                              1 ;--------------------------------------------------------
                              2 ; File Created by SDCC : FreeWare ANSI-C Compiler
                              3 ; Version 2.3.1 Thu Dec 10 15:55:58 2020
                              4 
                              5 ;--------------------------------------------------------
                              6 	.module lcc814710
                              7 	
                              8 ;--------------------------------------------------------
                              9 ; Public variables in this module
                             10 ;--------------------------------------------------------
                             11 	.globl _main
                             12 	.globl _run
                             13 	.globl _render_score
                             14 	.globl _score
                             15 	.globl _move
                             16 	.globl _collide
                             17 	.globl _physics
                             18 	.globl _input
                             19 	.globl _end_splash
                             20 	.globl _set_blocks
                             21 	.globl _set_lives
                             22 	.globl _set_ball
                             23 	.globl _set_paddle
                             24 	.globl _render_sad_cody
                             25 	.globl _render_background
                             26 	.globl _abs
                             27 	.globl _game_over_message_array
                             28 	.globl _score_array
                             29 	.globl _block_sprites
                             30 	.globl _temp_seconds
                             31 	.globl _seconds
                             32 	.globl _frames
                             33 	.globl _game_score
                             34 	.globl _vertical_paddle_movement
                             35 	.globl _ball_vel_y
                             36 	.globl _ball_vel_x
                             37 	.globl _ball_y
                             38 	.globl _ball_x
                             39 	.globl _paddle_vel_y
                             40 	.globl _paddle_vel_x
                             41 	.globl _paddle_y
                             42 	.globl _paddle_x
                             43 	.globl _current_level
                             44 	.globl _game_over
                             45 	.globl _splash_over
                             46 	.globl _game_started
                             47 	.globl _lives
                             48 	.globl _key
                             49 	.globl _BALL_SIZE
                             50 	.globl _SPRITE_SIZE
                             51 	.globl _SCREEN_HEIGHT
                             52 	.globl _SCREEN_WIDTH
                             53 	.globl _codysad_tilemap
                             54 	.globl _codysad_tiledata
                             55 	.globl _blank_screen
                             56 	.globl _lives_sprite_begin
                             57 	.globl _ball_speed
                             58 	.globl _ball_sprite
                             59 	.globl _paddle_speed
                             60 	.globl _paddle_sprite_right
                             61 	.globl _paddle_sprite_left
                             62 	.globl _framerate
                             63 	.globl _INITIAL_LIVES
                             64 	.globl _block_map
                             65 	.globl _block_sprite_data
                             66 	.globl _death_sprite_data
                             67 	.globl _smile_sprite_data
                             68 	.globl _small_ball_sprite_data
                             69 	.globl _paddle_sprite_data
                             70 	.globl _numbers
                             71 	.globl _alpha
                             72 ;--------------------------------------------------------
                             73 ; special function registers
                             74 ;--------------------------------------------------------
                             75 ;--------------------------------------------------------
                             76 ; special function bits 
                             77 ;--------------------------------------------------------
                             78 ;--------------------------------------------------------
                             79 ; internal ram data
                             80 ;--------------------------------------------------------
                             81 	.area _DATA
   0000                      82 _blank_screen::
   0000                      83 	.ds 360
   0168                      84 _codysad_tiledata::
   0168                      85 	.ds 3344
   0E78                      86 _codysad_tilemap::
   0E78                      87 	.ds 208
   0F48                      88 _SCREEN_WIDTH::
   0F48                      89 	.ds 2
   0F4A                      90 _SCREEN_HEIGHT::
   0F4A                      91 	.ds 2
   0F4C                      92 _SPRITE_SIZE::
   0F4C                      93 	.ds 2
   0F4E                      94 _BALL_SIZE::
   0F4E                      95 	.ds 2
   0F50                      96 _key::
   0F50                      97 	.ds 1
   0F51                      98 _lives::
   0F51                      99 	.ds 2
   0F53                     100 _game_started::
   0F53                     101 	.ds 2
   0F55                     102 _splash_over::
   0F55                     103 	.ds 2
   0F57                     104 _game_over::
   0F57                     105 	.ds 2
   0F59                     106 _current_level::
   0F59                     107 	.ds 2
   0F5B                     108 _paddle_x::
   0F5B                     109 	.ds 1
   0F5C                     110 _paddle_y::
   0F5C                     111 	.ds 1
   0F5D                     112 _paddle_vel_x::
   0F5D                     113 	.ds 1
   0F5E                     114 _paddle_vel_y::
   0F5E                     115 	.ds 1
   0F5F                     116 _ball_x::
   0F5F                     117 	.ds 1
   0F60                     118 _ball_y::
   0F60                     119 	.ds 1
   0F61                     120 _ball_vel_x::
   0F61                     121 	.ds 1
   0F62                     122 _ball_vel_y::
   0F62                     123 	.ds 1
   0F63                     124 _vertical_paddle_movement::
   0F63                     125 	.ds 2
   0F65                     126 _game_score::
   0F65                     127 	.ds 2
   0F67                     128 _frames::
   0F67                     129 	.ds 2
   0F69                     130 _seconds::
   0F69                     131 	.ds 2
   0F6B                     132 _temp_seconds::
   0F6B                     133 	.ds 2
   0F6D                     134 _block_sprites::
   0F6D                     135 	.ds 144
   0FFD                     136 _score_array::
   0FFD                     137 	.ds 4
   1001                     138 _game_over_message_array::
   1001                     139 	.ds 52
                            140 ;--------------------------------------------------------
                            141 ; overlayable items in internal ram 
                            142 ;--------------------------------------------------------
                            143 	.area _OVERLAY
                            144 ;--------------------------------------------------------
                            145 ; indirectly addressable internal ram data
                            146 ;--------------------------------------------------------
                            147 	.area _ISEG
                            148 ;--------------------------------------------------------
                            149 ; bit data
                            150 ;--------------------------------------------------------
                            151 	.area _BSEG
                            152 ;--------------------------------------------------------
                            153 ; external ram data
                            154 ;--------------------------------------------------------
                            155 	.area _XSEG
                            156 ;--------------------------------------------------------
                            157 ; global & static initialisations
                            158 ;--------------------------------------------------------
                            159 	.area _GSINIT
                            160 	.area _GSFINAL
                            161 	.area _GSINIT
                            162 ;	bustout.c 2
                            163 ;	bustout.c 512
                            164 ;	genArrayInit
                            165 ; _saveRegsForCall: sendSetSize: 0 deInUse: 0 bcInUse: 0 deSending: 0
   0000 21 00 00            166 	ld	hl,#_blank_screen
   0003 CD 00 00            167 	call	__initrleblock
   0006 01                  168 	.db	1
   0007 11                  169 	.db	0x11
   0008 81 30               170 	.db	-127,0x30
   000A 81 30               171 	.db	-127,0x30
   000C 97 30               172 	.db	-105,0x30
   000E 00                  173 	.db	0
                            174 ;	bustout.c 13
                            175 ;	bustout.c 512
                            176 ;	genArrayInit
                            177 ; _saveRegsForCall: sendSetSize: 0 deInUse: 0 bcInUse: 0 deSending: 0
   000F 21 68 01            178 	ld	hl,#_codysad_tiledata
   0012 CD 00 00            179 	call	__initrleblock
   0015 C2 00               180 	.db	-62,0x00
   0017 01                  181 	.db	1
   0018 03                  182 	.db	0x03
   0019 F7 00               183 	.db	-9,0x00
   001B 08                  184 	.db	8
   001C 09 00 35 0A D5 2A   185 	.db	0x09, 0x00, 0x35, 0x0A, 0xD5, 0x2A, 0x55, 0xAA
        55 AA
   0024 FA 00               186 	.db	-6,0x00
   0026 0A                  187 	.db	10
   0027 3A 00 D5 2A 55 AA   188 	.db	0x3A, 0x00, 0xD5, 0x2A, 0x55, 0xAA, 0x55, 0xAA
        55 AA
   002F 55 AA               189 	.db	0x55, 0xAA
   0031 F8 00               190 	.db	-8,0x00
   0033 08                  191 	.db	8
   0034 B8 00 57 A8 55 AA   192 	.db	0xB8, 0x00, 0x57, 0xA8, 0x55, 0xAA, 0x55, 0xAA
        55 AA
   003C F6 00               193 	.db	-10,0x00
   003E 06                  194 	.db	6
   003F A0 00 D8 20 56 A8   195 	.db	0xA0, 0x00, 0xD8, 0x20, 0x56, 0xA8
   0045 88 00               196 	.db	-120,0x00
   0047 67                  197 	.db	103
   0048 02 00 0F 00 3A 00   198 	.db	0x02, 0x00, 0x0F, 0x00, 0x3A, 0x00, 0xBB, 0x00
        BB 00
   0050 0D 02 35 0A D7 28   199 	.db	0x0D, 0x02, 0x35, 0x0A, 0xD7, 0x28, 0xFF, 0x00
        FF 00
   0058 FF 00 BF 00 FF 00   200 	.db	0xFF, 0x00, 0xBF, 0x00, 0xFF, 0x00, 0xEF, 0x00
        EF 00
   0060 55 AA DD 22 FD 02   201 	.db	0x55, 0xAA, 0xDD, 0x22, 0xFD, 0x02, 0xFF, 0x00
        FF 00
   0068 FF 00 FF 00 EF 00   202 	.db	0xFF, 0x00, 0xFF, 0x00, 0xEF, 0x00, 0xAF, 0x00
        AF 00
   0070 55 AA D5 2A FD 02   203 	.db	0x55, 0xAA, 0xD5, 0x2A, 0xFD, 0x02, 0xFF, 0x00
        FF 00
   0078 FF 00 EF 00 EB 00   204 	.db	0xFF, 0x00, 0xEF, 0x00, 0xEB, 0x00, 0xEA, 0x00
        EA 00
   0080 55 AA 75 8A D5 2A   205 	.db	0x55, 0xAA, 0x75, 0x8A, 0xD5, 0x2A, 0xDF, 0x20
        DF 20
   0088 FF 00 FB 00 FA 00   206 	.db	0xFF, 0x00, 0xFB, 0x00, 0xFA, 0x00, 0xFA, 0x00
        FA 00
   0090 55 AA 55 AA F5 0A   207 	.db	0x55, 0xAA, 0x55, 0xAA, 0xF5, 0x0A, 0xFF, 0x00
        FF 00
   0098 FF 00 EB 00 AA 00   208 	.db	0xFF, 0x00, 0xEB, 0x00, 0xAA, 0x00, 0xAA, 0x00
        AA 00
   00A0 78 80 5E A0 55 AA   209 	.db	0x78, 0x80, 0x5E, 0xA0, 0x55, 0xAA, 0x5F, 0xA0
        5F A0
   00A8 FF 00 FF 00 FE 00   210 	.db	0xFF, 0x00, 0xFF, 0x00, 0xFE, 0x00, 0xAA
        AA
   00AF FB 00               211 	.db	-5,0x00
   00B1 0B                  212 	.db	11
   00B2 80 00 60 80 C0 38   213 	.db	0x80, 0x00, 0x60, 0x80, 0xC0, 0x38, 0xF6, 0x08
        F6 08
   00BA BF 00 AB            214 	.db	0xBF, 0x00, 0xAB
   00BD F3 00               215 	.db	-13,0x00
   00BF 03                  216 	.db	3
   00C0 80 00 80            217 	.db	0x80, 0x00, 0x80
   00C3 CB 00               218 	.db	-53,0x00
   00C5 7F                  219 	.db	127
   00C6 03 00 03 00 0B 00   220 	.db	0x03, 0x00, 0x03, 0x00, 0x0B, 0x00, 0x0B, 0x00
        0B 00
   00CE 1B 00 1F 00 BB 00   221 	.db	0x1B, 0x00, 0x1F, 0x00, 0xBB, 0x00, 0xFE, 0x00
        FE 00
   00D6 FE 00 FE 00 FF 00   222 	.db	0xFE, 0x00, 0xFE, 0x00, 0xFF, 0x00, 0xDF, 0x20
        DF 20
   00DE FF 00 7D 82 AF 00   223 	.db	0xFF, 0x00, 0x7D, 0x82, 0xAF, 0x00, 0xAF, 0x00
        AF 00
   00E6 BF 00 BF 00 FF 00   224 	.db	0xBF, 0x00, 0xBF, 0x00, 0xFF, 0x00, 0xFF, 0x00
        FF 00
   00EE FD 02 D5 2A AF 00   225 	.db	0xFD, 0x02, 0xD5, 0x2A, 0xAF, 0x00, 0xFF, 0x00
        FF 00
   00F6 FF 00 FF 00 7F 80   226 	.db	0xFF, 0x00, 0xFF, 0x00, 0x7F, 0x80, 0x55, 0xAA
        55 AA
   00FE 55 AA 55 AA EA 00   227 	.db	0x55, 0xAA, 0x55, 0xAA, 0xEA, 0x00, 0xEA, 0x00
        EA 00
   0106 FA 00 DB 20 5F A0   228 	.db	0xFA, 0x00, 0xDB, 0x20, 0x5F, 0xA0, 0x57, 0xA8
        57 A8
   010E 57 A8 57 A8 FE 00   229 	.db	0x57, 0xA8, 0x57, 0xA8, 0xFE, 0x00, 0xFE, 0x00
        FE 00
   0116 EE 00 FE 00 FF 00   230 	.db	0xEE, 0x00, 0xFE, 0x00, 0xFF, 0x00, 0xDF, 0x20
        DF 20
   011E D7 28 D7 28 AA 00   231 	.db	0xD7, 0x28, 0xD7, 0x28, 0xAA, 0x00, 0xAA, 0x00
        AA 00
   0126 AA 00 AA 00 AA 00   232 	.db	0xAA, 0x00, 0xAA, 0x00, 0xAA, 0x00, 0xAB, 0x00
        AB 00
   012E AA 00 FB 00 AA 00   233 	.db	0xAA, 0x00, 0xFB, 0x00, 0xAA, 0x00, 0xAA, 0x00
        AA 00
   0136 AA 00 AA 00 AA 00   234 	.db	0xAA, 0x00, 0xAA, 0x00, 0xAA, 0x00, 0xAA, 0x00
        AA 00
   013E EA 00 FE 00 AB 00   235 	.db	0xEA, 0x00, 0xFE, 0x00, 0xAB, 0x00, 0xAA
        AA
   0145 1C                  236 	.db	28
   0146 00 AA 00 AA 00 AA   237 	.db	0x00, 0xAA, 0x00, 0xAA, 0x00, 0xAA, 0x00, 0xAB
        00 AB
   014E 00 EB 00 FB 00 C0   238 	.db	0x00, 0xEB, 0x00, 0xFB, 0x00, 0xC0, 0x00, 0xC0
        00 C0
   0156 00 E0 00 B0 00 B8   239 	.db	0x00, 0xE0, 0x00, 0xB0, 0x00, 0xB8, 0x00, 0xBE
        00 BE
   015E 00 FE 00 FF         240 	.db	0x00, 0xFE, 0x00, 0xFF
   0162 F1 00               241 	.db	-15,0x00
   0164 01                  242 	.db	1
   0165 80                  243 	.db	0x80
   0166 DF 00               244 	.db	-33,0x00
   0168 7F                  245 	.db	127
   0169 3F 00 3F 00 15 2A   246 	.db	0x3F, 0x00, 0x3F, 0x00, 0x15, 0x2A, 0x15, 0x2A
        15 2A
   0171 55 2A 55 2A 55 2A   247 	.db	0x55, 0x2A, 0x55, 0x2A, 0x55, 0x2A, 0xD5, 0x2A
        D5 2A
   0179 7D 82 75 8A 75 8A   248 	.db	0x7D, 0x82, 0x75, 0x8A, 0x75, 0x8A, 0x55, 0xAA
        55 AA
   0181 55 AA 55 AA 55 AA   249 	.db	0x55, 0xAA, 0x55, 0xAA, 0x55, 0xAA, 0x55, 0xAA
        55 AA
   0189 55 AA 55 AA 45 BA   250 	.db	0x55, 0xAA, 0x55, 0xAA, 0x45, 0xBA, 0x45, 0xBA
        45 BA
   0191 05 FA 45 BA 55 AA   251 	.db	0x05, 0xFA, 0x45, 0xBA, 0x55, 0xAA, 0x15, 0xEA
        15 EA
   0199 55 AA 15 EA 15 EA   252 	.db	0x55, 0xAA, 0x15, 0xEA, 0x15, 0xEA, 0x15, 0xEA
        15 EA
   01A1 05 FA 45 BA 44 BB   253 	.db	0x05, 0xFA, 0x45, 0xBA, 0x44, 0xBB, 0x44, 0xBB
        44 BB
   01A9 55 AA 55 AA 55 AA   254 	.db	0x55, 0xAA, 0x55, 0xAA, 0x55, 0xAA, 0x55, 0xAA
        55 AA
   01B1 55 AA 55 AA 15 EA   255 	.db	0x55, 0xAA, 0x55, 0xAA, 0x15, 0xEA, 0x15, 0xEA
        15 EA
   01B9 55 AA 55 AA 75 8A   256 	.db	0x55, 0xAA, 0x55, 0xAA, 0x75, 0x8A, 0x55, 0xAA
        55 AA
   01C1 55 AA 55 AA 55 AA   257 	.db	0x55, 0xAA, 0x55, 0xAA, 0x55, 0xAA, 0x55, 0xAA
        55 AA
   01C9 7A 80 5F A0 5F A0   258 	.db	0x7A, 0x80, 0x5F, 0xA0, 0x5F, 0xA0, 0x5F, 0xA0
        5F A0
   01D1 5F A0 57 A8 55 AA   259 	.db	0x5F, 0xA0, 0x57, 0xA8, 0x55, 0xAA, 0x55, 0xAA
        55 AA
   01D9 FF 00 DF 20 DD 22   260 	.db	0xFF, 0x00, 0xDF, 0x20, 0xDD, 0x22, 0xD5, 0x2A
        D5 2A
   01E1 D5 2A D5 2A F5 0A   261 	.db	0xD5, 0x2A, 0xD5, 0x2A, 0xF5, 0x0A, 0xF5
        F5
   01E8 30                  262 	.db	48
   01E9 0A FF 00 FF 00 FF   263 	.db	0x0A, 0xFF, 0x00, 0xFF, 0x00, 0xFF, 0x00, 0xFF
        00 FF
   01F1 00 7F 80 FF 00 FF   264 	.db	0x00, 0x7F, 0x80, 0xFF, 0x00, 0xFF, 0x00, 0xFF
        00 FF
   01F9 00 FF 00 FF 00 FF   265 	.db	0x00, 0xFF, 0x00, 0xFF, 0x00, 0xFF, 0x00, 0xFD
        00 FD
   0201 02 FF 00 BF 00 FF   266 	.db	0x02, 0xFF, 0x00, 0xBF, 0x00, 0xFF, 0x00, 0xFF
        00 FF
   0209 00 00 80 40 80 40   267 	.db	0x00, 0x00, 0x80, 0x40, 0x80, 0x40, 0x80, 0xC0
        80 C0
   0211 00 E0 00 60 80 E0   268 	.db	0x00, 0xE0, 0x00, 0x60, 0x80, 0xE0, 0x00, 0xF0
        00 F0
   0219 E7 00               269 	.db	-25,0x00
   021B 7F                  270 	.db	127
   021C 01 00 03 00 03 00   271 	.db	0x01, 0x00, 0x03, 0x00, 0x03, 0x00, 0x01, 0x02
        01 02
   0224 D5 2A D5 2A 54 AB   272 	.db	0xD5, 0x2A, 0xD5, 0x2A, 0x54, 0xAB, 0x54, 0xAB
        54 AB
   022C 54 AB 54 AB 54 AB   273 	.db	0x54, 0xAB, 0x54, 0xAB, 0x54, 0xAB, 0x54, 0xAB
        54 AB
   0234 44 BB 00 FF 00 FF   274 	.db	0x44, 0xBB, 0x00, 0xFF, 0x00, 0xFF, 0x00, 0xFF
        00 FF
   023C 00 FF 00 FF 00 FF   275 	.db	0x00, 0xFF, 0x00, 0xFF, 0x00, 0xFF, 0x00, 0xFF
        00 FF
   0244 50 AF 10 EF 00 FF   276 	.db	0x50, 0xAF, 0x10, 0xEF, 0x00, 0xFF, 0x00, 0xFF
        00 FF
   024C 02 FF 02 FF 0A FF   277 	.db	0x02, 0xFF, 0x02, 0xFF, 0x0A, 0xFF, 0x2A, 0xFF
        2A FF
   0254 44 BB 44 BB 55 AA   278 	.db	0x44, 0xBB, 0x44, 0xBB, 0x55, 0xAA, 0x15, 0xEA
        15 EA
   025C 15 EA 17 E8 17 E8   279 	.db	0x15, 0xEA, 0x17, 0xE8, 0x17, 0xE8, 0x07, 0xF8
        07 F8
   0264 05 FA 05 FA 05 FA   280 	.db	0x05, 0xFA, 0x05, 0xFA, 0x05, 0xFA, 0x01, 0xFE
        01 FE
   026C 01 FE 40 BF 42 BF   281 	.db	0x01, 0xFE, 0x40, 0xBF, 0x42, 0xBF, 0x42, 0xBF
        42 BF
   0274 55 AA 54 AB 54 AB   282 	.db	0x55, 0xAA, 0x54, 0xAB, 0x54, 0xAB, 0x54, 0xAB
        54 AB
   027C 44 BB 45 BA 45 BA   283 	.db	0x44, 0xBB, 0x45, 0xBA, 0x45, 0xBA, 0x41, 0xBE
        41 BE
   0284 15 EA 15 EA 05 FA   284 	.db	0x15, 0xEA, 0x15, 0xEA, 0x05, 0xFA, 0x01, 0xFE
        01 FE
   028C 01 FE 21 FE 01 FE   285 	.db	0x01, 0xFE, 0x21, 0xFE, 0x01, 0xFE, 0x01, 0xFE
        01 FE
   0294 F5 0A F5 0A F5 0A   286 	.db	0xF5, 0x0A, 0xF5, 0x0A, 0xF5, 0x0A, 0x7D
        7D
   029B 38                  287 	.db	56
   029C 82 7D 82 5D A2 5F   288 	.db	0x82, 0x7D, 0x82, 0x5D, 0xA2, 0x5F, 0xA0, 0x57
        A0 57
   02A4 A8 7F 80 5F A0 5F   289 	.db	0xA8, 0x7F, 0x80, 0x5F, 0xA0, 0x5F, 0xA0, 0x5F
        A0 5F
   02AC A0 5F A0 55 AA 55   290 	.db	0xA0, 0x5F, 0xA0, 0x55, 0xAA, 0x55, 0xAA, 0x55
        AA 55
   02B4 AA FF 00 FF 00 FF   291 	.db	0xAA, 0xFF, 0x00, 0xFF, 0x00, 0xFF, 0x00, 0xFB
        00 FB
   02BC 00 FF 00 7E 80 7F   292 	.db	0x00, 0xFF, 0x00, 0x7E, 0x80, 0x7F, 0x80, 0x7F
        80 7F
   02C4 80 F8 00 F8 00 F8   293 	.db	0x80, 0xF8, 0x00, 0xF8, 0x00, 0xF8, 0x00, 0xF8
        00 F8
   02CC 00 F8 00 BC 00 BE   294 	.db	0x00, 0xF8, 0x00, 0xBC, 0x00, 0xBE, 0x00, 0xBE
        00 BE
   02D4 EF 00               295 	.db	-17,0x00
   02D6 7F                  296 	.db	127
   02D7 05 02 05 02 00 07   297 	.db	0x05, 0x02, 0x05, 0x02, 0x00, 0x07, 0x08, 0x07
        08 07
   02DF 08 07 08 07 00 0F   298 	.db	0x08, 0x07, 0x08, 0x07, 0x00, 0x0F, 0x00, 0x0F
        00 0F
   02E7 54 AB 50 AF 50 AF   299 	.db	0x54, 0xAB, 0x50, 0xAF, 0x50, 0xAF, 0x40, 0xBF
        40 BF
   02EF 00 FF 00 FF 00 FF   300 	.db	0x00, 0xFF, 0x00, 0xFF, 0x00, 0xFF, 0x00, 0xFF
        00 FF
   02F7 00 FF 00 FF 00 FF   301 	.db	0x00, 0xFF, 0x00, 0xFF, 0x00, 0xFF, 0x00, 0xFF
        00 FF
   02FF 02 FF 02 FF 82 FF   302 	.db	0x02, 0xFF, 0x02, 0xFF, 0x82, 0xFF, 0x82, 0xFF
        82 FF
   0307 2A FF 2A FF AA FF   303 	.db	0x2A, 0xFF, 0x2A, 0xFF, 0xAA, 0xFF, 0xA8, 0xFF
        A8 FF
   030F A8 FF A8 FF A0 FF   304 	.db	0xA8, 0xFF, 0xA8, 0xFF, 0xA0, 0xFF, 0xA0, 0xFF
        A0 FF
   0317 05 FA 85 FA 05 FA   305 	.db	0x05, 0xFA, 0x85, 0xFA, 0x05, 0xFA, 0x14, 0xEB
        14 EB
   031F 14 EB 5C A3 5C A3   306 	.db	0x14, 0xEB, 0x5C, 0xA3, 0x5C, 0xA3, 0x5C, 0xA3
        5C A3
   0327 42 BF 42 BF 02 FF   307 	.db	0x42, 0xBF, 0x42, 0xBF, 0x02, 0xFF, 0x02, 0xFF
        02 FF
   032F 02 FF 02 FF 02 FF   308 	.db	0x02, 0xFF, 0x02, 0xFF, 0x02, 0xFF, 0x42, 0xBF
        42 BF
   0337 01 FE 01 FE 81 FE   309 	.db	0x01, 0xFE, 0x01, 0xFE, 0x81, 0xFE, 0x85, 0xFA
        85 FA
   033F A5 FA A5 FA 27 F8   310 	.db	0xA5, 0xFA, 0xA5, 0xFA, 0x27, 0xF8, 0x07, 0xF8
        07 F8
   0347 40 BF 40 BF 50 AF   311 	.db	0x40, 0xBF, 0x40, 0xBF, 0x50, 0xAF, 0x50, 0xAF
        50 AF
   034F 54 AB 55 AA 7D 82   312 	.db	0x54, 0xAB, 0x55, 0xAA, 0x7D, 0x82, 0x7F
        7F
   0356 40                  313 	.db	64
   0357 80 57 A8 05 FA 01   314 	.db	0x80, 0x57, 0xA8, 0x05, 0xFA, 0x01, 0xFE, 0x01
        FE 01
   035F FE 00 FF 00 FF 00   315 	.db	0xFE, 0x00, 0xFF, 0x00, 0xFF, 0x00, 0xFF, 0x00
        FF 00
   0367 FF D5 2A 55 AA 55   316 	.db	0xFF, 0xD5, 0x2A, 0x55, 0xAA, 0x55, 0xAA, 0x55
        AA 55
   036F AA 55 AA 54 AB 14   317 	.db	0xAA, 0x55, 0xAA, 0x54, 0xAB, 0x14, 0xEB, 0x05
        EB 05
   0377 FA 5F A0 17 E8 15   318 	.db	0xFA, 0x5F, 0xA0, 0x17, 0xE8, 0x15, 0xEA, 0x05
        EA 05
   037F FA 05 FA 05 FA 05   319 	.db	0xFA, 0x05, 0xFA, 0x05, 0xFA, 0x05, 0xFA, 0x05
        FA 05
   0387 FA BF 00 BF 00 BF   320 	.db	0xFA, 0xBF, 0x00, 0xBF, 0x00, 0xBF, 0x00, 0xFF
        00 FF
   038F 00 FF 00 FF 00 FF   321 	.db	0x00, 0xFF, 0x00, 0xFF, 0x00, 0xFF, 0x00, 0xFF
        00 FF
   0397 FB 00               322 	.db	-5,0x00
   0399 7F                  323 	.db	127
   039A C0 00 C0 00 80 00   324 	.db	0xC0, 0x00, 0xC0, 0x00, 0x80, 0x00, 0xA0, 0x00
        A0 00
   03A2 C0 20 C0 20 08 0F   325 	.db	0xC0, 0x20, 0xC0, 0x20, 0x08, 0x0F, 0x00, 0x0F
        00 0F
   03AA 10 0F 10 0F 10 0F   326 	.db	0x10, 0x0F, 0x10, 0x0F, 0x10, 0x0F, 0x10, 0x0F
        10 0F
   03B2 20 1F 20 1F 02 FF   327 	.db	0x20, 0x1F, 0x20, 0x1F, 0x02, 0xFF, 0x00, 0xFF
        00 FF
   03BA 00 FF 00 FF 02 FF   328 	.db	0x00, 0xFF, 0x00, 0xFF, 0x02, 0xFF, 0x2A, 0xFF
        2A FF
   03C2 28 FF A0 FF 02 FF   329 	.db	0x28, 0xFF, 0xA0, 0xFF, 0x02, 0xFF, 0x02, 0xFF
        02 FF
   03CA 00 FF 00 FF 00 FF   330 	.db	0x00, 0xFF, 0x00, 0xFF, 0x00, 0xFF, 0x01, 0xFE
        01 FE
   03D2 05 FA 57 A8 81 FE   331 	.db	0x05, 0xFA, 0x57, 0xA8, 0x81, 0xFE, 0x05, 0xFA
        05 FA
   03DA 15 EA 55 AA 5D A2   332 	.db	0x15, 0xEA, 0x55, 0xAA, 0x5D, 0xA2, 0x7F, 0x80
        7F 80
   03E2 FF 00 DD 22 70 8F   333 	.db	0xFF, 0x00, 0xDD, 0x22, 0x70, 0x8F, 0x51, 0xAE
        51 AE
   03EA 51 AE 50 AF 54 AB   334 	.db	0x51, 0xAE, 0x50, 0xAF, 0x54, 0xAB, 0x55, 0xAA
        55 AA
   03F2 55 AA 55 AA 40 BF   335 	.db	0x55, 0xAA, 0x55, 0xAA, 0x40, 0xBF, 0x40, 0xBF
        40 BF
   03FA 00 FF 00 FF 00 FF   336 	.db	0x00, 0xFF, 0x00, 0xFF, 0x00, 0xFF, 0x00, 0xFF
        00 FF
   0402 40 BF 51 AE 85 FA   337 	.db	0x40, 0xBF, 0x51, 0xAE, 0x85, 0xFA, 0x9D, 0xE2
        9D E2
   040A 9D E2 15 EA 17 E8   338 	.db	0x9D, 0xE2, 0x15, 0xEA, 0x17, 0xE8, 0x57, 0xA8
        57 A8
   0412 57 A8 55 AA FF 00   339 	.db	0x57, 0xA8, 0x55, 0xAA, 0xFF, 0x00, 0xAF
        AF
   0419 7F                  340 	.db	127
   041A 00 AB 00 AA 00 EA   341 	.db	0x00, 0xAB, 0x00, 0xAA, 0x00, 0xEA, 0x00, 0xFA
        00 FA
   0422 00 FF 00 55 AA 40   342 	.db	0x00, 0xFF, 0x00, 0x55, 0xAA, 0x40, 0xBF, 0xD4
        BF D4
   042A 2B D4 2B FF 00 FB   343 	.db	0x2B, 0xD4, 0x2B, 0xFF, 0x00, 0xFB, 0x00, 0xAA
        00 AA
   0432 00 EA 00 7E 80 05   344 	.db	0x00, 0xEA, 0x00, 0x7E, 0x80, 0x05, 0xFA, 0x07
        FA 07
   043A F8 07 F8 57 A8 FF   345 	.db	0xF8, 0x07, 0xF8, 0x57, 0xA8, 0xFF, 0x00, 0xBF
        00 BF
   0442 00 AB 00 AB 00 07   346 	.db	0x00, 0xAB, 0x00, 0xAB, 0x00, 0x07, 0xF8, 0x07
        F8 07
   044A F8 05 FA 45 BA 45   347 	.db	0xF8, 0x05, 0xFA, 0x45, 0xBA, 0x45, 0xBA, 0x45
        BA 45
   0452 BA 41 BE C1 3E EF   348 	.db	0xBA, 0x41, 0xBE, 0xC1, 0x3E, 0xEF, 0x00, 0xFF
        00 FF
   045A 00 FF 00 FF 00 FF   349 	.db	0x00, 0xFF, 0x00, 0xFF, 0x00, 0xFF, 0x00, 0xFF
        00 FF
   0462 00 FF 00 FF 00 E0   350 	.db	0x00, 0xFF, 0x00, 0xFF, 0x00, 0xE0, 0x00, 0xC0
        00 C0
   046A 20 E0 00 E0 00 E0   351 	.db	0x20, 0xE0, 0x00, 0xE0, 0x00, 0xE0, 0x00, 0xE0
        00 E0
   0472 00 E0 00 E0 00 20   352 	.db	0x00, 0xE0, 0x00, 0xE0, 0x00, 0x20, 0x1F, 0x08
        1F 08
   047A 3F 3A 0F 1A 0F 2A   353 	.db	0x3F, 0x3A, 0x0F, 0x1A, 0x0F, 0x2A, 0x1F, 0x0A
        1F 0A
   0482 1F 12 0F 02 0F A0   354 	.db	0x1F, 0x12, 0x0F, 0x02, 0x0F, 0xA0, 0xFF, 0xA1
        FF A1
   048A FE A1 FE A1 FE A5   355 	.db	0xFE, 0xA1, 0xFE, 0xA1, 0xFE, 0xA5, 0xFA, 0xA4
        FA A4
   0492 FB A0 FF A0 FF 5F   356 	.db	0xFB, 0xA0, 0xFF, 0xA0, 0xFF, 0x5F, 0xA0
        A0
   0499 7F                  357 	.db	127
   049A 55 AA 40 BF 00 FF   358 	.db	0x55, 0xAA, 0x40, 0xBF, 0x00, 0xFF, 0x02, 0xFF
        02 FF
   04A2 00 FF 00 FF 00 FF   359 	.db	0x00, 0xFF, 0x00, 0xFF, 0x00, 0xFF, 0x55, 0xAA
        55 AA
   04AA 00 FF 00 FF AA FF   360 	.db	0x00, 0xFF, 0x00, 0xFF, 0xAA, 0xFF, 0xAA, 0xFF
        AA FF
   04B2 00 FF 00 FF 10 EF   361 	.db	0x00, 0xFF, 0x00, 0xFF, 0x10, 0xEF, 0x55, 0xAA
        55 AA
   04BA 55 AA 15 EA 05 FA   362 	.db	0x55, 0xAA, 0x15, 0xEA, 0x05, 0xFA, 0x05, 0xFA
        05 FA
   04C2 01 FE 00 FF 00 FF   363 	.db	0x01, 0xFE, 0x00, 0xFF, 0x00, 0xFF, 0x55, 0xAA
        55 AA
   04CA 55 AA 55 AA 55 AA   364 	.db	0x55, 0xAA, 0x55, 0xAA, 0x55, 0xAA, 0x55, 0xAA
        55 AA
   04D2 55 AA 57 A8 5F A0   365 	.db	0x55, 0xAA, 0x57, 0xA8, 0x5F, 0xA0, 0x55, 0xAA
        55 AA
   04DA 54 AB 50 AF 50 AF   366 	.db	0x54, 0xAB, 0x50, 0xAF, 0x50, 0xAF, 0x54, 0xAB
        54 AB
   04E2 50 AF D0 2F D4 2B   367 	.db	0x50, 0xAF, 0xD0, 0x2F, 0xD4, 0x2B, 0x00, 0xFF
        00 FF
   04EA 00 FF 00 FF 00 FF   368 	.db	0x00, 0xFF, 0x00, 0xFF, 0x00, 0xFF, 0x05, 0xFA
        05 FA
   04F2 05 FA 05 FA 01 FE   369 	.db	0x05, 0xFA, 0x05, 0xFA, 0x01, 0xFE, 0x57, 0xA8
        57 A8
   04FA 15 EA 15 EA 55 AA   370 	.db	0x15, 0xEA, 0x15, 0xEA, 0x55, 0xAA, 0x55, 0xAA
        55 AA
   0502 57 A8 FF 00 7F 80   371 	.db	0x57, 0xA8, 0xFF, 0x00, 0x7F, 0x80, 0xAB, 0x00
        AB 00
   050A EB 00 6B 80 7A 80   372 	.db	0xEB, 0x00, 0x6B, 0x80, 0x7A, 0x80, 0x7E, 0x80
        7E 80
   0512 7E 80 FE 00 FE 00   373 	.db	0x7E, 0x80, 0xFE, 0x00, 0xFE, 0x00, 0xC1
        C1
   0519 7F                  374 	.db	127
   051A 3E C1 3E C1 3E C1   375 	.db	0x3E, 0xC1, 0x3E, 0xC1, 0x3E, 0xC1, 0x3E, 0xC1
        3E C1
   0522 3E C1 3E C0 3F C0   376 	.db	0x3E, 0xC1, 0x3E, 0xC0, 0x3F, 0xC0, 0x3F, 0xFF
        3F FF
   052A 00 FF 00 7F 80 5F   377 	.db	0x00, 0xFF, 0x00, 0x7F, 0x80, 0x5F, 0xA0, 0x5F
        A0 5F
   0532 A0 57 A8 55 AA 55   378 	.db	0xA0, 0x57, 0xA8, 0x55, 0xAA, 0x55, 0xAA, 0xE0
        AA E0
   053A 00 C0 00 C0 00 C0   379 	.db	0x00, 0xC0, 0x00, 0xC0, 0x00, 0xC0, 0x00, 0xC0
        00 C0
   0542 00 C0 00 E0 00 E0   380 	.db	0x00, 0xC0, 0x00, 0xE0, 0x00, 0xE0, 0x00, 0x02
        00 02
   054A 0F 02 0F 0A 07 0A   381 	.db	0x0F, 0x02, 0x0F, 0x0A, 0x07, 0x0A, 0x07, 0x0A
        07 0A
   0552 07 0A 07 02 0F 02   382 	.db	0x07, 0x0A, 0x07, 0x02, 0x0F, 0x02, 0x0F, 0xA0
        0F A0
   055A FF A0 FF A0 FF A2   383 	.db	0xFF, 0xA0, 0xFF, 0xA0, 0xFF, 0xA2, 0xFF, 0x82
        FF 82
   0562 FF 82 FF 82 FF 82   384 	.db	0xFF, 0x82, 0xFF, 0x82, 0xFF, 0x82, 0xFF, 0x45
        FF 45
   056A BA 05 FA 14 EB 00   385 	.db	0xBA, 0x05, 0xFA, 0x14, 0xEB, 0x00, 0xFF, 0x00
        FF 00
   0572 FF 00 FF 08 FF 01   386 	.db	0xFF, 0x00, 0xFF, 0x08, 0xFF, 0x01, 0xFE, 0x54
        FE 54
   057A AB 50 AF 10 EF 10   387 	.db	0xAB, 0x50, 0xAF, 0x10, 0xEF, 0x10, 0xEF, 0x00
        EF 00
   0582 FF 00 FF 05 FA 55   388 	.db	0xFF, 0x00, 0xFF, 0x05, 0xFA, 0x55, 0xAA, 0x00
        AA 00
   058A FF 00 FF 00 FF 81   389 	.db	0xFF, 0x00, 0xFF, 0x00, 0xFF, 0x81, 0xFE, 0x81
        FE 81
   0592 FE 00 FF 51 AE 51   390 	.db	0xFE, 0x00, 0xFF, 0x51, 0xAE, 0x51, 0xAE
        AE
   0599 7F                  391 	.db	127
   059A 5E A0 5A A0 7A 80   392 	.db	0x5E, 0xA0, 0x5A, 0xA0, 0x7A, 0x80, 0x7A, 0x80
        7A 80
   05A2 7F 80 7F 80 7F 80   393 	.db	0x7F, 0x80, 0x7F, 0x80, 0x7F, 0x80, 0x7B, 0x80
        7B 80
   05AA D1 2E F4 0B F4 0B   394 	.db	0xD1, 0x2E, 0xF4, 0x0B, 0xF4, 0x0B, 0xFC, 0x03
        FC 03
   05B2 FD 02 7F 80 FF 00   395 	.db	0xFD, 0x02, 0x7F, 0x80, 0xFF, 0x00, 0xD7, 0x28
        D7 28
   05BA 05 FA 05 FA 05 FA   396 	.db	0x05, 0xFA, 0x05, 0xFA, 0x05, 0xFA, 0x01, 0xFE
        01 FE
   05C2 01 FE 55 AA 55 AA   397 	.db	0x01, 0xFE, 0x55, 0xAA, 0x55, 0xAA, 0x57, 0xA8
        57 A8
   05CA 7F 80 7F 80 7F 80   398 	.db	0x7F, 0x80, 0x7F, 0x80, 0x7F, 0x80, 0x7F, 0x80
        7F 80
   05D2 57 A8 7F 80 FF 00   399 	.db	0x57, 0xA8, 0x7F, 0x80, 0xFF, 0x00, 0xEA, 0x00
        EA 00
   05DA FA 00 FA 00 BF 00   400 	.db	0xFA, 0x00, 0xFA, 0x00, 0xBF, 0x00, 0xB5, 0x0A
        B5 0A
   05E2 F5 0A FE 00 AE 00   401 	.db	0xF5, 0x0A, 0xFE, 0x00, 0xAE, 0x00, 0xAE, 0x00
        AE 00
   05EA C0 3F F0 0F F4 0B   402 	.db	0xC0, 0x3F, 0xF0, 0x0F, 0xF4, 0x0B, 0xD4, 0x2B
        D4 2B
   05F2 F0 0F B0 0F B4 0B   403 	.db	0xF0, 0x0F, 0xB0, 0x0F, 0xB4, 0x0B, 0xAC, 0x03
        AC 03
   05FA 55 AA 55 AA 5D A2   404 	.db	0x55, 0xAA, 0x55, 0xAA, 0x5D, 0xA2, 0x15, 0xEA
        15 EA
   0602 85 FA A5 FA A5 FA   405 	.db	0x85, 0xFA, 0xA5, 0xFA, 0xA5, 0xFA, 0xA0, 0xFF
        A0 FF
   060A 60 80 70 80 78 80   406 	.db	0x60, 0x80, 0x70, 0x80, 0x78, 0x80, 0x78, 0x80
        78 80
   0612 7C 80 7E 80 5E A0   407 	.db	0x7C, 0x80, 0x7E, 0x80, 0x5E, 0xA0, 0x5F
        5F
   0619 7F                  408 	.db	127
   061A A0 02 0F 1A 0F 1A   409 	.db	0xA0, 0x02, 0x0F, 0x1A, 0x0F, 0x1A, 0x0F, 0x02
        0F 02
   0622 0F 0A 07 0A 07 02   410 	.db	0x0F, 0x0A, 0x07, 0x0A, 0x07, 0x02, 0x07, 0x06
        07 06
   062A 03 82 FF 90 EF 94   411 	.db	0x03, 0x82, 0xFF, 0x90, 0xEF, 0x94, 0xEB, 0x94
        EB 94
   0632 EB 9F E0 87 F8 85   412 	.db	0xEB, 0x9F, 0xE0, 0x87, 0xF8, 0x85, 0xFA, 0x95
        FA 95
   063A EA 15 EA 55 AA 55   413 	.db	0xEA, 0x15, 0xEA, 0x55, 0xAA, 0x55, 0xAA, 0x75
        AA 75
   0642 8A 55 AA 55 AA 5D   414 	.db	0x8A, 0x55, 0xAA, 0x55, 0xAA, 0x5D, 0xA2, 0x7F
        A2 7F
   064A 80 74 8B 54 AB 01   415 	.db	0x80, 0x74, 0x8B, 0x54, 0xAB, 0x01, 0xFE, 0x55
        FE 55
   0652 AA 57 A8 7F 80 FF   416 	.db	0xAA, 0x57, 0xA8, 0x7F, 0x80, 0xFF, 0x00, 0xFF
        00 FF
   065A 00 50 AF 50 AF 75   417 	.db	0x00, 0x50, 0xAF, 0x50, 0xAF, 0x75, 0x8A, 0xF5
        8A F5
   0662 0A F5 0A F5 0A D5   418 	.db	0x0A, 0xF5, 0x0A, 0xF5, 0x0A, 0xD5, 0x2A, 0x55
        2A 55
   066A AA 6A 80 6A 80 6A   419 	.db	0xAA, 0x6A, 0x80, 0x6A, 0x80, 0x6A, 0x80, 0xEA
        80 EA
   0672 00 EA 00 EA 00 EA   420 	.db	0x00, 0xEA, 0x00, 0xEA, 0x00, 0xEA, 0x00, 0xEA
        00 EA
   067A 00 C7 38 DF 20 DE   421 	.db	0x00, 0xC7, 0x38, 0xDF, 0x20, 0xDE, 0x20, 0xDF
        20 DF
   0682 20 DE 20 B6 08 B7   422 	.db	0x20, 0xDE, 0x20, 0xB6, 0x08, 0xB7, 0x08, 0xB5
        08 B5
   068A 0A D5 2A FF 00 FF   423 	.db	0x0A, 0xD5, 0x2A, 0xFF, 0x00, 0xFF, 0x00, 0xFF
        00 FF
   0692 00 BF 00 AB 00 AA   424 	.db	0x00, 0xBF, 0x00, 0xAB, 0x00, 0xAA, 0x00
        00
   0699 5B                  425 	.db	91
   069A EA 00 EA 00 EA 00   426 	.db	0xEA, 0x00, 0xEA, 0x00, 0xEA, 0x00, 0xEA, 0x00
        EA 00
   06A2 FA 00 EA 00 A8 00   427 	.db	0xFA, 0x00, 0xEA, 0x00, 0xA8, 0x00, 0xAA, 0x00
        AA 00
   06AA AA 00 AE 00 8E 00   428 	.db	0xAA, 0x00, 0xAE, 0x00, 0x8E, 0x00, 0x8A, 0x00
        8A 00
   06B2 28 00 28 00 A0 00   429 	.db	0x28, 0x00, 0x28, 0x00, 0xA0, 0x00, 0x80, 0x00
        80 00
   06BA 80 00 AC 03 AC 03   430 	.db	0x80, 0x00, 0xAC, 0x03, 0xAC, 0x03, 0x2D, 0x02
        2D 02
   06C2 0B 00 0B 00 0B 00   431 	.db	0x0B, 0x00, 0x0B, 0x00, 0x0B, 0x00, 0x0B, 0x00
        0B 00
   06CA 0B 00 20 FF 20 FF   432 	.db	0x0B, 0x00, 0x20, 0xFF, 0x20, 0xFF, 0x20, 0xFF
        20 FF
   06D2 00 FF 00 FF 00 FF   433 	.db	0x00, 0xFF, 0x00, 0xFF, 0x00, 0xFF, 0x00, 0xFF
        00 FF
   06DA 01 FE 5F A0 5F A0   434 	.db	0x01, 0xFE, 0x5F, 0xA0, 0x5F, 0xA0, 0x57, 0xA8
        57 A8
   06E2 57 A8 17 E8 07 F8   435 	.db	0x57, 0xA8, 0x17, 0xE8, 0x07, 0xF8, 0x07, 0xF8
        07 F8
   06EA 07 F8 00 03 02 01   436 	.db	0x07, 0xF8, 0x00, 0x03, 0x02, 0x01, 0x02, 0x01
        02 01
   06F2 02 01 01            437 	.db	0x02, 0x01, 0x01
   06F5 F9 00               438 	.db	-7,0x00
   06F7 7F                  439 	.db	127
   06F8 85 FA 85 FA 85 FA   440 	.db	0x85, 0xFA, 0x85, 0xFA, 0x85, 0xFA, 0xA5, 0xFA
        A5 FA
   0700 25 FA 05 FA C5 3A   441 	.db	0x25, 0xFA, 0x05, 0xFA, 0xC5, 0x3A, 0x45, 0x3A
        45 3A
   0708 5D A2 55 AA 55 AA   442 	.db	0x5D, 0xA2, 0x55, 0xAA, 0x55, 0xAA, 0x55, 0xAA
        55 AA
   0710 55 AA 55 AA 55 AA   443 	.db	0x55, 0xAA, 0x55, 0xAA, 0x55, 0xAA, 0x5F, 0xA0
        5F A0
   0718 55 AA 55 AA 54 AB   444 	.db	0x55, 0xAA, 0x55, 0xAA, 0x54, 0xAB, 0x55, 0xAA
        55 AA
   0720 55 AA 7D 82 FD 02   445 	.db	0x55, 0xAA, 0x7D, 0x82, 0xFD, 0x02, 0xFD, 0x02
        FD 02
   0728 45 BA 15 EA 15 EA   446 	.db	0x45, 0xBA, 0x15, 0xEA, 0x15, 0xEA, 0x55, 0xAA
        55 AA
   0730 45 BA 57 A8 17 E8   447 	.db	0x45, 0xBA, 0x57, 0xA8, 0x17, 0xE8, 0x15, 0xEA
        15 EA
   0738 EA 00 EA 00 EA 00   448 	.db	0xEA, 0x00, 0xEA, 0x00, 0xEA, 0x00, 0xEA, 0x00
        EA 00
   0740 EA 00 EA 00 FA 00   449 	.db	0xEA, 0x00, 0xEA, 0x00, 0xFA, 0x00, 0xFA, 0x00
        FA 00
   0748 BD 02 AD 02 AD 02   450 	.db	0xBD, 0x02, 0xAD, 0x02, 0xAD, 0x02, 0xAD, 0x02
        AD 02
   0750 AD 02 AF 00 AB 00   451 	.db	0xAD, 0x02, 0xAF, 0x00, 0xAB, 0x00, 0xAA, 0x00
        AA 00
   0758 7E 80 5E A0 5E A0   452 	.db	0x7E, 0x80, 0x5E, 0xA0, 0x5E, 0xA0, 0x5E, 0xA0
        5E A0
   0760 5E A0 5E A0 D7 28   453 	.db	0x5E, 0xA0, 0x5E, 0xA0, 0xD7, 0x28, 0xD7, 0x28
        D7 28
   0768 AA 00 AA 00 AA 00   454 	.db	0xAA, 0x00, 0xAA, 0x00, 0xAA, 0x00, 0xA8, 0x00
        A8 00
   0770 A8 00 A0 00 A0 00   455 	.db	0xA8, 0x00, 0xA0, 0x00, 0xA0, 0x00, 0xA8
        A8
   0777 04                  456 	.db	4
   0778 00 A0 00 A0         457 	.db	0x00, 0xA0, 0x00, 0xA0
   077C F3 00               458 	.db	-13,0x00
   077E 30                  459 	.db	48
   077F 0B 00 0B 00 0B 00   460 	.db	0x0B, 0x00, 0x0B, 0x00, 0x0B, 0x00, 0x0B, 0x00
        0B 00
   0787 09 02 09 02 0D 02   461 	.db	0x09, 0x02, 0x09, 0x02, 0x0D, 0x02, 0x0F, 0x00
        0F 00
   078F 00 FF 00 FF 00 FF   462 	.db	0x00, 0xFF, 0x00, 0xFF, 0x00, 0xFF, 0x00, 0xFF
        00 FF
   0797 00 FF 00 FF 44 BB   463 	.db	0x00, 0xFF, 0x00, 0xFF, 0x44, 0xBB, 0xF4, 0x0B
        F4 0B
   079F 07 F8 05 FA 05 FA   464 	.db	0x07, 0xF8, 0x05, 0xFA, 0x05, 0xFA, 0x05, 0xFA
        05 FA
   07A7 05 FA 05 FA 15 EA   465 	.db	0x05, 0xFA, 0x05, 0xFA, 0x15, 0xEA, 0x17, 0xE8
        17 E8
   07AF F0 00               466 	.db	-16,0x00
   07B1 7F                  467 	.db	127
   07B2 05 3A 05 3A 05 3A   468 	.db	0x05, 0x3A, 0x05, 0x3A, 0x05, 0x3A, 0x15, 0x2A
        15 2A
   07BA 15 2A 35 0A 35 0A   469 	.db	0x15, 0x2A, 0x35, 0x0A, 0x35, 0x0A, 0x15, 0x0A
        15 0A
   07C2 7F 80 7F 80 7F 80   470 	.db	0x7F, 0x80, 0x7F, 0x80, 0x7F, 0x80, 0x7F, 0x80
        7F 80
   07CA 5F A0 55 AA 55 AA   471 	.db	0x5F, 0xA0, 0x55, 0xAA, 0x55, 0xAA, 0x55, 0xAA
        55 AA
   07D2 F4 0B D4 2B D0 2F   472 	.db	0xF4, 0x0B, 0xD4, 0x2B, 0xD0, 0x2F, 0x50, 0xAF
        50 AF
   07DA 50 AF 41 BE 41 BE   473 	.db	0x50, 0xAF, 0x41, 0xBE, 0x41, 0xBE, 0x41, 0xBE
        41 BE
   07E2 15 EA 10 EF 00 FF   474 	.db	0x15, 0xEA, 0x10, 0xEF, 0x00, 0xFF, 0x42, 0xBF
        42 BF
   07EA 40 BF 50 AF 54 AB   475 	.db	0x40, 0xBF, 0x50, 0xAF, 0x54, 0xAB, 0x75, 0x8A
        75 8A
   07F2 7F 80 55 AA 01 FE   476 	.db	0x7F, 0x80, 0x55, 0xAA, 0x01, 0xFE, 0x01, 0xFE
        01 FE
   07FA 80 FF 00 FF 00 FF   477 	.db	0x80, 0xFF, 0x00, 0xFF, 0x00, 0xFF, 0x01, 0xFE
        01 FE
   0802 AA 00 FF 00 55 AA   478 	.db	0xAA, 0x00, 0xFF, 0x00, 0x55, 0xAA, 0x01, 0xFE
        01 FE
   080A 05 FA 5F A0 5F A0   479 	.db	0x05, 0xFA, 0x5F, 0xA0, 0x5F, 0xA0, 0x7E, 0x80
        7E 80
   0812 D5 2A D5 2A D5 2A   480 	.db	0xD5, 0x2A, 0xD5, 0x2A, 0xD5, 0x2A, 0xF5, 0x0A
        F5 0A
   081A F5 0A FD 02 AD 02   481 	.db	0xF5, 0x0A, 0xFD, 0x02, 0xAD, 0x02, 0xAF, 0x00
        AF 00
   0822 E8 00 E8 00 6A 80   482 	.db	0xE8, 0x00, 0xE8, 0x00, 0x6A, 0x80, 0x7A, 0x80
        7A 80
   082A 7A 80 5A A0 5E A0   483 	.db	0x7A, 0x80, 0x5A, 0xA0, 0x5E, 0xA0, 0x5E
        5E
   0831 01                  484 	.db	1
   0832 A0                  485 	.db	0xA0
   0833 FA 00               486 	.db	-6,0x00
   0835 33                  487 	.db	51
   0836 80 00 80 00 A0 00   488 	.db	0x80, 0x00, 0x80, 0x00, 0xA0, 0x00, 0xAA, 0x00
        AA 00
   083E AA 00 0F 00 0F 00   489 	.db	0xAA, 0x00, 0x0F, 0x00, 0x0F, 0x00, 0x0B, 0x00
        0B 00
   0846 2B 00 AB 00 AB 00   490 	.db	0x2B, 0x00, 0xAB, 0x00, 0xAB, 0x00, 0xAD, 0x02
        AD 02
   084E 8C 03 F4 0B F4 0B   491 	.db	0x8C, 0x03, 0xF4, 0x0B, 0xF4, 0x0B, 0xFC, 0x03
        FC 03
   0856 FC 03 F5 0A F6 08   492 	.db	0xFC, 0x03, 0xF5, 0x0A, 0xF6, 0x08, 0x04, 0xF8
        04 F8
   085E 00 F8 14 E8 10 E8   493 	.db	0x00, 0xF8, 0x14, 0xE8, 0x10, 0xE8, 0x18, 0xE0
        18 E0
   0866 60 80 80            494 	.db	0x60, 0x80, 0x80
   0869 E9 00               495 	.db	-23,0x00
   086B 7F                  496 	.db	127
   086C 15 0A 05 0A 0D 02   497 	.db	0x15, 0x0A, 0x05, 0x0A, 0x0D, 0x02, 0x05, 0x02
        05 02
   0874 02 03 03 00 01 00   498 	.db	0x02, 0x03, 0x03, 0x00, 0x01, 0x00, 0x00, 0x00
        00 00
   087C 55 AA 55 AA 55 AA   499 	.db	0x55, 0xAA, 0x55, 0xAA, 0x55, 0xAA, 0x55, 0xAA
        55 AA
   0884 55 AA 55 AA 57 A8   500 	.db	0x55, 0xAA, 0x55, 0xAA, 0x57, 0xA8, 0x57, 0xA8
        57 A8
   088C 45 BA 45 BA 55 AA   501 	.db	0x45, 0xBA, 0x45, 0xBA, 0x55, 0xAA, 0x55, 0xAA
        55 AA
   0894 55 AA 55 AA 55 AA   502 	.db	0x55, 0xAA, 0x55, 0xAA, 0x55, 0xAA, 0x55, 0xAA
        55 AA
   089C 75 8A 7F 80 FF 00   503 	.db	0x75, 0x8A, 0x7F, 0x80, 0xFF, 0x00, 0x7F, 0x80
        7F 80
   08A4 7D 82 54 AB 40 BF   504 	.db	0x7D, 0x82, 0x54, 0xAB, 0x40, 0xBF, 0x01, 0xFE
        01 FE
   08AC 41 BE 41 BE 55 AA   505 	.db	0x41, 0xBE, 0x41, 0xBE, 0x55, 0xAA, 0xD5, 0x2A
        D5 2A
   08B4 55 AA 15 EA 15 EA   506 	.db	0x55, 0xAA, 0x15, 0xEA, 0x15, 0xEA, 0x57, 0xA8
        57 A8
   08BC 7A 80 7A 80 7A 80   507 	.db	0x7A, 0x80, 0x7A, 0x80, 0x7A, 0x80, 0xFA, 0x00
        FA 00
   08C4 7E 80 55 AA 55 AA   508 	.db	0x7E, 0x80, 0x55, 0xAA, 0x55, 0xAA, 0xFF, 0x00
        FF 00
   08CC AB 00 AB 00 AB 00   509 	.db	0xAB, 0x00, 0xAB, 0x00, 0xAB, 0x00, 0xAA, 0x00
        AA 00
   08D4 AA 00 EF 00 7F 80   510 	.db	0xAA, 0x00, 0xEF, 0x00, 0x7F, 0x80, 0xFD, 0x02
        FD 02
   08DC 56 A8 D6 28 D6 28   511 	.db	0x56, 0xA8, 0xD6, 0x28, 0xD6, 0x28, 0xF6, 0x08
        F6 08
   08E4 BE 00 BF 00 EF 00   512 	.db	0xBE, 0x00, 0xBF, 0x00, 0xEF, 0x00, 0x7F
        7F
   08EB 29                  513 	.db	41
   08EC 80 AA 00 AA 00 AA   514 	.db	0x80, 0xAA, 0x00, 0xAA, 0x00, 0xAA, 0x00, 0xAA
        00 AA
   08F4 00 AA 00 AA 00 AA   515 	.db	0x00, 0xAA, 0x00, 0xAA, 0x00, 0xAA, 0x00, 0xAA
        00 AA
   08FC 00 A8 07 AA 07 A8   516 	.db	0x00, 0xA8, 0x07, 0xAA, 0x07, 0xA8, 0x07, 0x28
        07 28
   0904 07 A8 07 AB 06 32   517 	.db	0x07, 0xA8, 0x07, 0xAB, 0x06, 0x32, 0x0E, 0xB2
        0E B2
   090C 0E 48 B0 10 E0 60   518 	.db	0x0E, 0x48, 0xB0, 0x10, 0xE0, 0x60, 0x80, 0x00
        80 00
   0914 80                  519 	.db	0x80
   0915 C8 00               520 	.db	-56,0x00
   0917 7F                  521 	.db	127
   0918 D5 2A D7 28 55 2A   522 	.db	0xD5, 0x2A, 0xD7, 0x28, 0x55, 0x2A, 0x15, 0x2A
        15 2A
   0920 25 1A 15 0A 05 0A   523 	.db	0x25, 0x1A, 0x15, 0x0A, 0x05, 0x0A, 0x09, 0x06
        09 06
   0928 F4 0B F4 0B F4 0B   524 	.db	0xF4, 0x0B, 0xF4, 0x0B, 0xF4, 0x0B, 0xF1, 0x0E
        F1 0E
   0930 F5 0A 55 AA 57 A8   525 	.db	0xF5, 0x0A, 0x55, 0xAA, 0x57, 0xA8, 0x5F, 0xA0
        5F A0
   0938 05 FA 55 AA 7F 80   526 	.db	0x05, 0xFA, 0x55, 0xAA, 0x7F, 0x80, 0x75, 0x8A
        75 8A
   0940 FD 02 FD 02 FD 02   527 	.db	0xFD, 0x02, 0xFD, 0x02, 0xFD, 0x02, 0xFD, 0x02
        FD 02
   0948 FF 00 FF 00 F7 08   528 	.db	0xFF, 0x00, 0xFF, 0x00, 0xF7, 0x08, 0x55, 0xAA
        55 AA
   0950 55 AA 55 AA 57 A8   529 	.db	0x55, 0xAA, 0x55, 0xAA, 0x57, 0xA8, 0x57, 0xA8
        57 A8
   0958 FF 00 FA 00 FA 00   530 	.db	0xFF, 0x00, 0xFA, 0x00, 0xFA, 0x00, 0xFA, 0x00
        FA 00
   0960 FE 00 FE 00 FE 00   531 	.db	0xFE, 0x00, 0xFE, 0x00, 0xFE, 0x00, 0xFE, 0x00
        FE 00
   0968 ED 02 AB 00 AB 00   532 	.db	0xED, 0x02, 0xAB, 0x00, 0xAB, 0x00, 0xAA, 0x00
        AA 00
   0970 AA 00 AA 00 AA 00   533 	.db	0xAA, 0x00, 0xAA, 0x00, 0xAA, 0x00, 0xAA, 0x00
        AA 00
   0978 7F 80 7F 80 5A A0   534 	.db	0x7F, 0x80, 0x7F, 0x80, 0x5A, 0xA0, 0xDE, 0x20
        DE 20
   0980 FE 00 FE 00 BF 00   535 	.db	0xFE, 0x00, 0xFE, 0x00, 0xBF, 0x00, 0x3F, 0x00
        3F 00
   0988 AA 00 AA 00 AA 00   536 	.db	0xAA, 0x00, 0xAA, 0x00, 0xAA, 0x00, 0xAA, 0x00
        AA 00
   0990 AA 00 AA 00 AA 00   537 	.db	0xAA, 0x00, 0xAA, 0x00, 0xAA, 0x00, 0xAB
        AB
   0997 10                  538 	.db	16
   0998 00 B2 0C B4 08 A0   539 	.db	0x00, 0xB2, 0x0C, 0xB4, 0x08, 0xA0, 0x00, 0xA0
        00 A0
   09A0 00 C0 00 C0 00 80   540 	.db	0x00, 0xC0, 0x00, 0xC0, 0x00, 0x80, 0x00, 0x80
        00 80
   09A8 BF 00               541 	.db	-65,0x00
   09AA 09                  542 	.db	9
   09AB 04 03 00 03 00 03   543 	.db	0x04, 0x03, 0x00, 0x03, 0x00, 0x03, 0x03, 0x00
        03 00
   09B3 01                  544 	.db	0x01
   09B4 F9 00               545 	.db	-7,0x00
   09B6 6D                  546 	.db	109
   09B7 5F A0 5F A0 5F A0   547 	.db	0x5F, 0xA0, 0x5F, 0xA0, 0x5F, 0xA0, 0x1F, 0xE0
        1F E0
   09BF 17 E8 95 6A 45 3A   548 	.db	0x17, 0xE8, 0x95, 0x6A, 0x45, 0x3A, 0x21, 0x1E
        21 1E
   09C7 FD 02 FD 02 5D A2   549 	.db	0xFD, 0x02, 0xFD, 0x02, 0x5D, 0xA2, 0x5D, 0xA2
        5D A2
   09CF 7F 80 FF 00 7F 80   550 	.db	0x7F, 0x80, 0xFF, 0x00, 0x7F, 0x80, 0x57, 0xA8
        57 A8
   09D7 5F A0 7F 80 7F 80   551 	.db	0x5F, 0xA0, 0x7F, 0x80, 0x7F, 0x80, 0xFF, 0x00
        FF 00
   09DF FF 00 FF 00 DF 20   552 	.db	0xFF, 0x00, 0xFF, 0x00, 0xDF, 0x20, 0x57, 0xA8
        57 A8
   09E7 FE 00 FE 00 AA 00   553 	.db	0xFE, 0x00, 0xFE, 0x00, 0xAA, 0x00, 0xAA, 0x00
        AA 00
   09EF EA 00 EA 00 FA 00   554 	.db	0xEA, 0x00, 0xEA, 0x00, 0xFA, 0x00, 0xFA, 0x00
        FA 00
   09F7 AA 00 AA 00 AA 00   555 	.db	0xAA, 0x00, 0xAA, 0x00, 0xAA, 0x00, 0xAA, 0x00
        AA 00
   09FF AF 00 AF 00 AB 00   556 	.db	0xAF, 0x00, 0xAF, 0x00, 0xAB, 0x00, 0xAA, 0x00
        AA 00
   0A07 AE 00 AA 00 AA 00   557 	.db	0xAE, 0x00, 0xAA, 0x00, 0xAA, 0x00, 0xAA, 0x00
        AA 00
   0A0F AA 00 AA 00 AA 00   558 	.db	0xAA, 0x00, 0xAA, 0x00, 0xAA, 0x00, 0xEA, 0x00
        EA 00
   0A17 AA 00 A8 00 A8 00   559 	.db	0xAA, 0x00, 0xA8, 0x00, 0xA8, 0x00, 0xA0, 0x00
        A0 00
   0A1F A0 00 80 00 80      560 	.db	0xA0, 0x00, 0x80, 0x00, 0x80
   0A24 9D 00               561 	.db	-99,0x00
   0A26 0B                  562 	.db	11
   0A27 01 0E 0C 03 04 03   563 	.db	0x01, 0x0E, 0x0C, 0x03, 0x04, 0x03, 0x02, 0x01
        02 01
   0A2F 02 01 01            564 	.db	0x02, 0x01, 0x01
   0A32 FB 00               565 	.db	-5,0x00
   0A34 4B                  566 	.db	75
   0A35 57 A8 55 AA 55 AA   567 	.db	0x57, 0xA8, 0x55, 0xAA, 0x55, 0xAA, 0x55, 0xAA
        55 AA
   0A3D 15 EA 15 EA 01 FE   568 	.db	0x15, 0xEA, 0x15, 0xEA, 0x01, 0xFE, 0xC0, 0x3F
        C0 3F
   0A45 55 AA 55 AA 55 AA   569 	.db	0x55, 0xAA, 0x55, 0xAA, 0x55, 0xAA, 0x55, 0xAA
        55 AA
   0A4D 55 AA 51 AE 40 BF   570 	.db	0x55, 0xAA, 0x51, 0xAE, 0x40, 0xBF, 0x00, 0xFF
        00 FF
   0A55 7A 80 7E 80 7E 80   571 	.db	0x7A, 0x80, 0x7E, 0x80, 0x7E, 0x80, 0x7E, 0x80
        7E 80
   0A5D 7F 80 5F A0 57 A8   572 	.db	0x7F, 0x80, 0x5F, 0xA0, 0x57, 0xA8, 0x15, 0xEA
        15 EA
   0A65 AF 00 AF 00 AF 00   573 	.db	0xAF, 0x00, 0xAF, 0x00, 0xAF, 0x00, 0xAF, 0x00
        AF 00
   0A6D FF 00 FF 00 FE 00   574 	.db	0xFF, 0x00, 0xFF, 0x00, 0xFE, 0x00, 0xF6, 0x08
        F6 08
   0A75 EE 00 E8 00 E8 00   575 	.db	0xEE, 0x00, 0xE8, 0x00, 0xE8, 0x00, 0xE0, 0x00
        E0 00
   0A7D 80 00 80            576 	.db	0x80, 0x00, 0x80
   0A80 AB 00               577 	.db	-85,0x00
   0A82 00                  578 	.db	0
                            579 ;	bustout.c 224
                            580 ;	bustout.c 512
                            581 ;	genArrayInit
                            582 ; _saveRegsForCall: sendSetSize: 0 deInUse: 0 bcInUse: 0 deSending: 0
   0A83 21 78 0E            583 	ld	hl,#_codysad_tilemap
   0A86 CD 00 00            584 	call	__initrleblock
   0A89 7F                  585 	.db	127
   0A8A 00 01 02 03 04 05   586 	.db	0x00, 0x01, 0x02, 0x03, 0x04, 0x05, 0x06, 0x07
        06 07
   0A92 08 09 0A 0B 0C 0D   587 	.db	0x08, 0x09, 0x0A, 0x0B, 0x0C, 0x0D, 0x0E, 0x0F
        0E 0F
   0A9A 10 11 12 13 14 15   588 	.db	0x10, 0x11, 0x12, 0x13, 0x14, 0x15, 0x16, 0x17
        16 17
   0AA2 18 19 1A 1B 1C 1D   589 	.db	0x18, 0x19, 0x1A, 0x1B, 0x1C, 0x1D, 0x1E, 0x1F
        1E 1F
   0AAA 20 21 22 23 24 25   590 	.db	0x20, 0x21, 0x22, 0x23, 0x24, 0x25, 0x26, 0x27
        26 27
   0AB2 28 29 2A 2B 2C 2D   591 	.db	0x28, 0x29, 0x2A, 0x2B, 0x2C, 0x2D, 0x2E, 0x2F
        2E 2F
   0ABA 30 31 32 33 34 35   592 	.db	0x30, 0x31, 0x32, 0x33, 0x34, 0x35, 0x36, 0x37
        36 37
   0AC2 38 39 3A 3B 3C 3D   593 	.db	0x38, 0x39, 0x3A, 0x3B, 0x3C, 0x3D, 0x3E, 0x3F
        3E 3F
   0ACA 40 41 42 43 44 45   594 	.db	0x40, 0x41, 0x42, 0x43, 0x44, 0x45, 0x46, 0x47
        46 47
   0AD2 48 49 4A 4B 4C 4D   595 	.db	0x48, 0x49, 0x4A, 0x4B, 0x4C, 0x4D, 0x4E, 0x4F
        4E 4F
   0ADA 50 51 52 53 54 55   596 	.db	0x50, 0x51, 0x52, 0x53, 0x54, 0x55, 0x56, 0x57
        56 57
   0AE2 58 59 5A 5B 5C 5D   597 	.db	0x58, 0x59, 0x5A, 0x5B, 0x5C, 0x5D, 0x5E, 0x5F
        5E 5F
   0AEA 60 61 62 63 64 65   598 	.db	0x60, 0x61, 0x62, 0x63, 0x64, 0x65, 0x66, 0x67
        66 67
   0AF2 68 69 6A 6B 6C 6D   599 	.db	0x68, 0x69, 0x6A, 0x6B, 0x6C, 0x6D, 0x6E, 0x6F
        6E 6F
   0AFA 70 71 72 73 74 75   600 	.db	0x70, 0x71, 0x72, 0x73, 0x74, 0x75, 0x76, 0x77
        76 77
   0B02 78 79 7A 7B 7C 7D   601 	.db	0x78, 0x79, 0x7A, 0x7B, 0x7C, 0x7D, 0x7E
        7E
   0B09 51                  602 	.db	81
   0B0A 7F 80 81 82 83 84   603 	.db	0x7F, 0x80, 0x81, 0x82, 0x83, 0x84, 0x85, 0x86
        85 86
   0B12 87 88 89 8A 8B 8C   604 	.db	0x87, 0x88, 0x89, 0x8A, 0x8B, 0x8C, 0x8D, 0x8E
        8D 8E
   0B1A 8F 90 91 92 93 94   605 	.db	0x8F, 0x90, 0x91, 0x92, 0x93, 0x94, 0x95, 0x96
        95 96
   0B22 97 98 99 9A 9B 9C   606 	.db	0x97, 0x98, 0x99, 0x9A, 0x9B, 0x9C, 0x9D, 0x9E
        9D 9E
   0B2A 9F A0 A1 A2 A3 A4   607 	.db	0x9F, 0xA0, 0xA1, 0xA2, 0xA3, 0xA4, 0xA5, 0xA6
        A5 A6
   0B32 A7 A8 A9 AA AB AC   608 	.db	0xA7, 0xA8, 0xA9, 0xAA, 0xAB, 0xAC, 0xAD, 0xAE
        AD AE
   0B3A AF B0 B1 B2 B3 B4   609 	.db	0xAF, 0xB0, 0xB1, 0xB2, 0xB3, 0xB4, 0xB5, 0xB6
        B5 B6
   0B42 B7 B8 B9 BA BB BC   610 	.db	0xB7, 0xB8, 0xB9, 0xBA, 0xBB, 0xBC, 0xBD, 0xBE
        BD BE
   0B4A BF C0 C1 C2 C3 C4   611 	.db	0xBF, 0xC0, 0xC1, 0xC2, 0xC3, 0xC4, 0xC5, 0xC6
        C5 C6
   0B52 C7 C8 C9 CA CB CC   612 	.db	0xC7, 0xC8, 0xC9, 0xCA, 0xCB, 0xCC, 0xCD, 0xCE
        CD CE
   0B5A CF                  613 	.db	0xCF
   0B5B 00                  614 	.db	0
                            615 ;	bustout.c 44
                            616 ;	genAssign
                            617 ;	AOP_HL for _SCREEN_WIDTH
   0B5C 21 48 0F            618 	ld	hl,#_SCREEN_WIDTH
   0B5F 36 A0               619 	ld	(hl),#0xA0
   0B61 23                  620 	inc	hl
   0B62 36 00               621 	ld	(hl),#0x00
                            622 ;	bustout.c 45
                            623 ;	genAssign
                            624 ;	AOP_HL for _SCREEN_HEIGHT
   0B64 21 4A 0F            625 	ld	hl,#_SCREEN_HEIGHT
   0B67 36 90               626 	ld	(hl),#0x90
   0B69 23                  627 	inc	hl
   0B6A 36 00               628 	ld	(hl),#0x00
                            629 ;	bustout.c 46
                            630 ;	genAssign
                            631 ;	AOP_HL for _SPRITE_SIZE
   0B6C 21 4C 0F            632 	ld	hl,#_SPRITE_SIZE
   0B6F 36 10               633 	ld	(hl),#0x10
   0B71 23                  634 	inc	hl
   0B72 36 00               635 	ld	(hl),#0x00
                            636 ;	bustout.c 47
                            637 ;	genAssign
                            638 ;	AOP_HL for _BALL_SIZE
   0B74 21 4E 0F            639 	ld	hl,#_BALL_SIZE
   0B77 36 08               640 	ld	(hl),#0x08
   0B79 23                  641 	inc	hl
   0B7A 36 00               642 	ld	(hl),#0x00
                            643 ;	bustout.c 52
                            644 ;	genAssign
                            645 ;	AOP_HL for _INITIAL_LIVES
                            646 ;	AOP_HL for _lives
   0B7C 21 32 05            647 	ld	hl,#_INITIAL_LIVES
   0B7F 2A                  648 	ld	a,(hl+)
   0B80 5E                  649 	ld	e,(hl)
   0B81 21 51 0F            650 	ld	hl,#_lives
   0B84 22                  651 	ld	(hl+),a
   0B85 73                  652 	ld	(hl),e
                            653 ;	bustout.c 53
                            654 ;	genAssign
                            655 ;	AOP_HL for _game_started
   0B86 21 53 0F            656 	ld	hl,#_game_started
   0B89 36 00               657 	ld	(hl),#0x00
   0B8B 23                  658 	inc	hl
   0B8C 36 00               659 	ld	(hl),#0x00
                            660 ;	bustout.c 54
                            661 ;	genAssign
                            662 ;	AOP_HL for _splash_over
   0B8E 21 55 0F            663 	ld	hl,#_splash_over
   0B91 36 00               664 	ld	(hl),#0x00
   0B93 23                  665 	inc	hl
   0B94 36 00               666 	ld	(hl),#0x00
                            667 ;	bustout.c 55
                            668 ;	genAssign
                            669 ;	AOP_HL for _game_over
   0B96 21 57 0F            670 	ld	hl,#_game_over
   0B99 36 00               671 	ld	(hl),#0x00
   0B9B 23                  672 	inc	hl
   0B9C 36 00               673 	ld	(hl),#0x00
                            674 ;	bustout.c 56
                            675 ;	genAssign
                            676 ;	AOP_HL for _current_level
   0B9E 21 59 0F            677 	ld	hl,#_current_level
   0BA1 36 00               678 	ld	(hl),#0x00
   0BA3 23                  679 	inc	hl
   0BA4 36 00               680 	ld	(hl),#0x00
                            681 ;	bustout.c 73
                            682 ;	genAssign
                            683 ;	AOP_HL for _vertical_paddle_movement
   0BA6 21 63 0F            684 	ld	hl,#_vertical_paddle_movement
   0BA9 36 01               685 	ld	(hl),#0x01
   0BAB 23                  686 	inc	hl
   0BAC 36 00               687 	ld	(hl),#0x00
                            688 ;	bustout.c 75
                            689 ;	genAssign
                            690 ;	AOP_HL for _game_score
   0BAE 21 65 0F            691 	ld	hl,#_game_score
   0BB1 36 00               692 	ld	(hl),#0x00
   0BB3 23                  693 	inc	hl
   0BB4 36 00               694 	ld	(hl),#0x00
                            695 ;	bustout.c 77
                            696 ;	genAssign
                            697 ;	AOP_HL for _frames
   0BB6 21 67 0F            698 	ld	hl,#_frames
   0BB9 36 00               699 	ld	(hl),#0x00
   0BBB 23                  700 	inc	hl
   0BBC 36 00               701 	ld	(hl),#0x00
                            702 ;	bustout.c 79
                            703 ;	genAssign
                            704 ;	AOP_HL for _seconds
   0BBE 21 69 0F            705 	ld	hl,#_seconds
   0BC1 36 00               706 	ld	(hl),#0x00
   0BC3 23                  707 	inc	hl
   0BC4 36 00               708 	ld	(hl),#0x00
                            709 ;	bustout.c 80
                            710 ;	genAssign
                            711 ;	AOP_HL for _temp_seconds
   0BC6 21 6B 0F            712 	ld	hl,#_temp_seconds
   0BC9 36 00               713 	ld	(hl),#0x00
   0BCB 23                  714 	inc	hl
   0BCC 36 00               715 	ld	(hl),#0x00
                            716 ;	bustout.c 88
                            717 ;	bustout.c 512
                            718 ;	genArrayInit
                            719 ; _saveRegsForCall: sendSetSize: 0 deInUse: 0 bcInUse: 0 deSending: 0
   0BCE 21 FD 0F            720 	ld	hl,#_score_array
   0BD1 CD 00 00            721 	call	__initrleblock
   0BD4 04                  722 	.db	4
   0BD5 30 30 30 30         723 	.db	0x30, 0x30, 0x30, 0x30
   0BD9 00                  724 	.db	0
                            725 ;	bustout.c 89
                            726 ;	bustout.c 512
                            727 ;	genArrayInit
                            728 ; _saveRegsForCall: sendSetSize: 0 deInUse: 0 bcInUse: 0 deSending: 0
   0BDA 21 01 10            729 	ld	hl,#_game_over_message_array
   0BDD CD 00 00            730 	call	__initrleblock
   0BE0 F1 FF               731 	.db	-15,0xFF
   0BE2 16                  732 	.db	22
   0BE3 17 11 1D 15 FF 1F   733 	.db	0x17, 0x11, 0x1D, 0x15, 0xFF, 0x1F, 0x26, 0x15
        26 15
   0BEB 22 FF FF FF FF 1E   734 	.db	0x22, 0xFF, 0xFF, 0xFF, 0xFF, 0x1E, 0x1F, 0xFF
        1F FF
   0BF3 1D 25 1C 1C 15 24   735 	.db	0x1D, 0x25, 0x1C, 0x1C, 0x15, 0x24
   0BF9 F1 FF               736 	.db	-15,0xFF
   0BFB 00                  737 	.db	0
                            738 ;--------------------------------------------------------
                            739 ; Home
                            740 ;--------------------------------------------------------
                            741 	.area _HOME
                            742 	.area _CODE
                            743 ;--------------------------------------------------------
                            744 ; code
                            745 ;--------------------------------------------------------
                            746 	.area _CODE
                            747 ;	bustout.c 8
                            748 ;	genLabel
                            749 ;	genFunction
                            750 ;	---------------------------------
                            751 ; Function abs
                            752 ; ---------------------------------
   0000                     753 ___abs_start:
   0000                     754 _abs:
                            755 	
                            756 ;	bustout.c 10
                            757 ;	genCmpLt
                            758 ;	AOP_STK for 
   0000 F8 03               759 	lda	hl,3(sp)
   0002 7E                  760 	ld	a,(hl)
   0003 CB 7F               761 	bit	7,a
   0005 CA 33 00            762 	jp	z,00102$
                            763 ;	bustout.c 11
                            764 ;	genMult
                            765 ;	AOP_STK for 
   0008 2B                  766 	dec	hl
   0009 5E                  767 	ld	e,(hl)
   000A 23                  768 	inc	hl
   000B 56                  769 	ld	d,(hl)
   000C 6B                  770 	ld	l,e
   000D 62                  771 	ld	h,d
   000E 29                  772 	add	hl,hl
   000F 19                  773 	add	hl,de
   0010 29                  774 	add	hl,hl
   0011 19                  775 	add	hl,de
   0012 29                  776 	add	hl,hl
   0013 19                  777 	add	hl,de
   0014 29                  778 	add	hl,hl
   0015 19                  779 	add	hl,de
   0016 29                  780 	add	hl,hl
   0017 19                  781 	add	hl,de
   0018 29                  782 	add	hl,hl
   0019 19                  783 	add	hl,de
   001A 29                  784 	add	hl,hl
   001B 19                  785 	add	hl,de
   001C 29                  786 	add	hl,hl
   001D 19                  787 	add	hl,de
   001E 29                  788 	add	hl,hl
   001F 19                  789 	add	hl,de
   0020 29                  790 	add	hl,hl
   0021 19                  791 	add	hl,de
   0022 29                  792 	add	hl,hl
   0023 19                  793 	add	hl,de
   0024 29                  794 	add	hl,hl
   0025 19                  795 	add	hl,de
   0026 29                  796 	add	hl,hl
   0027 19                  797 	add	hl,de
   0028 29                  798 	add	hl,hl
   0029 19                  799 	add	hl,de
   002A 29                  800 	add	hl,hl
   002B 19                  801 	add	hl,de
   002C 4D                  802 	ld	c,l
   002D 44                  803 	ld	b,h
                            804 ;	genRet
   002E 59                  805 	ld	e,c
   002F 50                  806 	ld	d,b
   0030 C3 38 00            807 	jp	00104$
                            808 ;	genLabel
   0033                     809 00102$:
                            810 ;	bustout.c 13
                            811 ;	genRet
                            812 ;	AOP_STK for 
   0033 F8 02               813 	lda	hl,2(sp)
   0035 5E                  814 	ld	e,(hl)
   0036 23                  815 	inc	hl
   0037 56                  816 	ld	d,(hl)
                            817 ;	genLabel
   0038                     818 00104$:
                            819 ;	genEndFunction
                            820 	
   0038 C9                  821 	ret
   0039                     822 ___abs_end:
   0039                     823 _alpha:
   0039 7C                  824 	.db #0x7C
   003A 7C                  825 	.db #0x7C
   003B 86                  826 	.db #0x86
   003C 86                  827 	.db #0x86
   003D 8A                  828 	.db #0x8A
   003E 8A                  829 	.db #0x8A
   003F 92                  830 	.db #0x92
   0040 92                  831 	.db #0x92
   0041 A2                  832 	.db #0xA2
   0042 A2                  833 	.db #0xA2
   0043 C2                  834 	.db #0xC2
   0044 C2                  835 	.db #0xC2
   0045 7C                  836 	.db #0x7C
   0046 7C                  837 	.db #0x7C
   0047 00                  838 	.db #0x00
   0048 00                  839 	.db #0x00
   0049 10                  840 	.db #0x10
   004A 10                  841 	.db #0x10
   004B 30                  842 	.db #0x30
   004C 30                  843 	.db #0x30
   004D 10                  844 	.db #0x10
   004E 10                  845 	.db #0x10
   004F 10                  846 	.db #0x10
   0050 10                  847 	.db #0x10
   0051 10                  848 	.db #0x10
   0052 10                  849 	.db #0x10
   0053 10                  850 	.db #0x10
   0054 10                  851 	.db #0x10
   0055 7C                  852 	.db #0x7C
   0056 7C                  853 	.db #0x7C
   0057 00                  854 	.db #0x00
   0058 00                  855 	.db #0x00
   0059 7C                  856 	.db #0x7C
   005A 7C                  857 	.db #0x7C
   005B 82                  858 	.db #0x82
   005C 82                  859 	.db #0x82
   005D 02                  860 	.db #0x02
   005E 02                  861 	.db #0x02
   005F 1C                  862 	.db #0x1C
   0060 1C                  863 	.db #0x1C
   0061 60                  864 	.db #0x60
   0062 60                  865 	.db #0x60
   0063 80                  866 	.db #0x80
   0064 80                  867 	.db #0x80
   0065 FE                  868 	.db #0xFE
   0066 FE                  869 	.db #0xFE
   0067 00                  870 	.db #0x00
   0068 00                  871 	.db #0x00
   0069 FE                  872 	.db #0xFE
   006A FE                  873 	.db #0xFE
   006B 04                  874 	.db #0x04
   006C 04                  875 	.db #0x04
   006D 18                  876 	.db #0x18
   006E 18                  877 	.db #0x18
   006F 04                  878 	.db #0x04
   0070 04                  879 	.db #0x04
   0071 02                  880 	.db #0x02
   0072 02                  881 	.db #0x02
   0073 82                  882 	.db #0x82
   0074 82                  883 	.db #0x82
   0075 7C                  884 	.db #0x7C
   0076 7C                  885 	.db #0x7C
   0077 00                  886 	.db #0x00
   0078 00                  887 	.db #0x00
   0079 0C                  888 	.db #0x0C
   007A 0C                  889 	.db #0x0C
   007B 14                  890 	.db #0x14
   007C 14                  891 	.db #0x14
   007D 24                  892 	.db #0x24
   007E 24                  893 	.db #0x24
   007F 44                  894 	.db #0x44
   0080 44                  895 	.db #0x44
   0081 84                  896 	.db #0x84
   0082 84                  897 	.db #0x84
   0083 FE                  898 	.db #0xFE
   0084 FE                  899 	.db #0xFE
   0085 04                  900 	.db #0x04
   0086 04                  901 	.db #0x04
   0087 00                  902 	.db #0x00
   0088 00                  903 	.db #0x00
   0089 FC                  904 	.db #0xFC
   008A FC                  905 	.db #0xFC
   008B 80                  906 	.db #0x80
   008C 80                  907 	.db #0x80
   008D FC                  908 	.db #0xFC
   008E FC                  909 	.db #0xFC
   008F 02                  910 	.db #0x02
   0090 02                  911 	.db #0x02
   0091 02                  912 	.db #0x02
   0092 02                  913 	.db #0x02
   0093 82                  914 	.db #0x82
   0094 82                  915 	.db #0x82
   0095 7C                  916 	.db #0x7C
   0096 7C                  917 	.db #0x7C
   0097 00                  918 	.db #0x00
   0098 00                  919 	.db #0x00
   0099 7C                  920 	.db #0x7C
   009A 7C                  921 	.db #0x7C
   009B 80                  922 	.db #0x80
   009C 80                  923 	.db #0x80
   009D 80                  924 	.db #0x80
   009E 80                  925 	.db #0x80
   009F FC                  926 	.db #0xFC
   00A0 FC                  927 	.db #0xFC
   00A1 82                  928 	.db #0x82
   00A2 82                  929 	.db #0x82
   00A3 82                  930 	.db #0x82
   00A4 82                  931 	.db #0x82
   00A5 7C                  932 	.db #0x7C
   00A6 7C                  933 	.db #0x7C
   00A7 00                  934 	.db #0x00
   00A8 00                  935 	.db #0x00
   00A9 FE                  936 	.db #0xFE
   00AA FE                  937 	.db #0xFE
   00AB 82                  938 	.db #0x82
   00AC 82                  939 	.db #0x82
   00AD 04                  940 	.db #0x04
   00AE 04                  941 	.db #0x04
   00AF 08                  942 	.db #0x08
   00B0 08                  943 	.db #0x08
   00B1 10                  944 	.db #0x10
   00B2 10                  945 	.db #0x10
   00B3 10                  946 	.db #0x10
   00B4 10                  947 	.db #0x10
   00B5 10                  948 	.db #0x10
   00B6 10                  949 	.db #0x10
   00B7 00                  950 	.db #0x00
   00B8 00                  951 	.db #0x00
   00B9 7C                  952 	.db #0x7C
   00BA 7C                  953 	.db #0x7C
   00BB 82                  954 	.db #0x82
   00BC 82                  955 	.db #0x82
   00BD 82                  956 	.db #0x82
   00BE 82                  957 	.db #0x82
   00BF 7C                  958 	.db #0x7C
   00C0 7C                  959 	.db #0x7C
   00C1 82                  960 	.db #0x82
   00C2 82                  961 	.db #0x82
   00C3 82                  962 	.db #0x82
   00C4 82                  963 	.db #0x82
   00C5 7C                  964 	.db #0x7C
   00C6 7C                  965 	.db #0x7C
   00C7 00                  966 	.db #0x00
   00C8 00                  967 	.db #0x00
   00C9 7C                  968 	.db #0x7C
   00CA 7C                  969 	.db #0x7C
   00CB 82                  970 	.db #0x82
   00CC 82                  971 	.db #0x82
   00CD 82                  972 	.db #0x82
   00CE 82                  973 	.db #0x82
   00CF 7E                  974 	.db #0x7E
   00D0 7E                  975 	.db #0x7E
   00D1 02                  976 	.db #0x02
   00D2 02                  977 	.db #0x02
   00D3 02                  978 	.db #0x02
   00D4 02                  979 	.db #0x02
   00D5 7C                  980 	.db #0x7C
   00D6 7C                  981 	.db #0x7C
   00D7 00                  982 	.db #0x00
   00D8 00                  983 	.db #0x00
   00D9 00                  984 	.db #0x00
   00DA 00                  985 	.db #0x00
   00DB 30                  986 	.db #0x30
   00DC 30                  987 	.db #0x30
   00DD 30                  988 	.db #0x30
   00DE 30                  989 	.db #0x30
   00DF 00                  990 	.db #0x00
   00E0 00                  991 	.db #0x00
   00E1 30                  992 	.db #0x30
   00E2 30                  993 	.db #0x30
   00E3 30                  994 	.db #0x30
   00E4 30                  995 	.db #0x30
   00E5 00                  996 	.db #0x00
   00E6 00                  997 	.db #0x00
   00E7 00                  998 	.db #0x00
   00E8 00                  999 	.db #0x00
   00E9 00                 1000 	.db #0x00
   00EA 00                 1001 	.db #0x00
   00EB 30                 1002 	.db #0x30
   00EC 30                 1003 	.db #0x30
   00ED 30                 1004 	.db #0x30
   00EE 30                 1005 	.db #0x30
   00EF 00                 1006 	.db #0x00
   00F0 00                 1007 	.db #0x00
   00F1 30                 1008 	.db #0x30
   00F2 30                 1009 	.db #0x30
   00F3 10                 1010 	.db #0x10
   00F4 10                 1011 	.db #0x10
   00F5 20                 1012 	.db #0x20
   00F6 20                 1013 	.db #0x20
   00F7 00                 1014 	.db #0x00
   00F8 00                 1015 	.db #0x00
   00F9 00                 1016 	.db #0x00
   00FA 00                 1017 	.db #0x00
   00FB 00                 1018 	.db #0x00
   00FC 00                 1019 	.db #0x00
   00FD 00                 1020 	.db #0x00
   00FE 00                 1021 	.db #0x00
   00FF 00                 1022 	.db #0x00
   0100 00                 1023 	.db #0x00
   0101 18                 1024 	.db #0x18
   0102 18                 1025 	.db #0x18
   0103 08                 1026 	.db #0x08
   0104 08                 1027 	.db #0x08
   0105 10                 1028 	.db #0x10
   0106 10                 1029 	.db #0x10
   0107 00                 1030 	.db #0x00
   0108 00                 1031 	.db #0x00
   0109 00                 1032 	.db #0x00
   010A 00                 1033 	.db #0x00
   010B 00                 1034 	.db #0x00
   010C 00                 1035 	.db #0x00
   010D 00                 1036 	.db #0x00
   010E 00                 1037 	.db #0x00
   010F 3E                 1038 	.db #0x3E
   0110 3E                 1039 	.db #0x3E
   0111 00                 1040 	.db #0x00
   0112 00                 1041 	.db #0x00
   0113 00                 1042 	.db #0x00
   0114 00                 1043 	.db #0x00
   0115 00                 1044 	.db #0x00
   0116 00                 1045 	.db #0x00
   0117 00                 1046 	.db #0x00
   0118 00                 1047 	.db #0x00
   0119 00                 1048 	.db #0x00
   011A 00                 1049 	.db #0x00
   011B 00                 1050 	.db #0x00
   011C 00                 1051 	.db #0x00
   011D 00                 1052 	.db #0x00
   011E 00                 1053 	.db #0x00
   011F 00                 1054 	.db #0x00
   0120 00                 1055 	.db #0x00
   0121 00                 1056 	.db #0x00
   0122 00                 1057 	.db #0x00
   0123 18                 1058 	.db #0x18
   0124 18                 1059 	.db #0x18
   0125 18                 1060 	.db #0x18
   0126 18                 1061 	.db #0x18
   0127 00                 1062 	.db #0x00
   0128 00                 1063 	.db #0x00
   0129 01                 1064 	.db #0x01
   012A 01                 1065 	.db #0x01
   012B 02                 1066 	.db #0x02
   012C 02                 1067 	.db #0x02
   012D 04                 1068 	.db #0x04
   012E 04                 1069 	.db #0x04
   012F 08                 1070 	.db #0x08
   0130 08                 1071 	.db #0x08
   0131 10                 1072 	.db #0x10
   0132 10                 1073 	.db #0x10
   0133 20                 1074 	.db #0x20
   0134 20                 1075 	.db #0x20
   0135 40                 1076 	.db #0x40
   0136 40                 1077 	.db #0x40
   0137 00                 1078 	.db #0x00
   0138 00                 1079 	.db #0x00
   0139 7C                 1080 	.db #0x7C
   013A 7C                 1081 	.db #0x7C
   013B 82                 1082 	.db #0x82
   013C 82                 1083 	.db #0x82
   013D 9A                 1084 	.db #0x9A
   013E 9A                 1085 	.db #0x9A
   013F AA                 1086 	.db #0xAA
   0140 AA                 1087 	.db #0xAA
   0141 BC                 1088 	.db #0xBC
   0142 BC                 1089 	.db #0xBC
   0143 80                 1090 	.db #0x80
   0144 80                 1091 	.db #0x80
   0145 7C                 1092 	.db #0x7C
   0146 7C                 1093 	.db #0x7C
   0147 00                 1094 	.db #0x00
   0148 00                 1095 	.db #0x00
   0149 38                 1096 	.db #0x38
   014A 38                 1097 	.db #0x38
   014B 44                 1098 	.db #0x44
   014C 44                 1099 	.db #0x44
   014D 82                 1100 	.db #0x82
   014E 82                 1101 	.db #0x82
   014F 82                 1102 	.db #0x82
   0150 82                 1103 	.db #0x82
   0151 FE                 1104 	.db #0xFE
   0152 FE                 1105 	.db #0xFE
   0153 82                 1106 	.db #0x82
   0154 82                 1107 	.db #0x82
   0155 82                 1108 	.db #0x82
   0156 82                 1109 	.db #0x82
   0157 00                 1110 	.db #0x00
   0158 00                 1111 	.db #0x00
   0159 FC                 1112 	.db #0xFC
   015A FC                 1113 	.db #0xFC
   015B 82                 1114 	.db #0x82
   015C 82                 1115 	.db #0x82
   015D 82                 1116 	.db #0x82
   015E 82                 1117 	.db #0x82
   015F FC                 1118 	.db #0xFC
   0160 FC                 1119 	.db #0xFC
   0161 82                 1120 	.db #0x82
   0162 82                 1121 	.db #0x82
   0163 82                 1122 	.db #0x82
   0164 82                 1123 	.db #0x82
   0165 FC                 1124 	.db #0xFC
   0166 FC                 1125 	.db #0xFC
   0167 00                 1126 	.db #0x00
   0168 00                 1127 	.db #0x00
   0169 7C                 1128 	.db #0x7C
   016A 7C                 1129 	.db #0x7C
   016B 82                 1130 	.db #0x82
   016C 82                 1131 	.db #0x82
   016D 80                 1132 	.db #0x80
   016E 80                 1133 	.db #0x80
   016F 80                 1134 	.db #0x80
   0170 80                 1135 	.db #0x80
   0171 80                 1136 	.db #0x80
   0172 80                 1137 	.db #0x80
   0173 82                 1138 	.db #0x82
   0174 82                 1139 	.db #0x82
   0175 7C                 1140 	.db #0x7C
   0176 7C                 1141 	.db #0x7C
   0177 00                 1142 	.db #0x00
   0178 00                 1143 	.db #0x00
   0179 F8                 1144 	.db #0xF8
   017A F8                 1145 	.db #0xF8
   017B 84                 1146 	.db #0x84
   017C 84                 1147 	.db #0x84
   017D 82                 1148 	.db #0x82
   017E 82                 1149 	.db #0x82
   017F 82                 1150 	.db #0x82
   0180 82                 1151 	.db #0x82
   0181 82                 1152 	.db #0x82
   0182 82                 1153 	.db #0x82
   0183 84                 1154 	.db #0x84
   0184 84                 1155 	.db #0x84
   0185 F8                 1156 	.db #0xF8
   0186 F8                 1157 	.db #0xF8
   0187 00                 1158 	.db #0x00
   0188 00                 1159 	.db #0x00
   0189 FE                 1160 	.db #0xFE
   018A FE                 1161 	.db #0xFE
   018B 80                 1162 	.db #0x80
   018C 80                 1163 	.db #0x80
   018D 80                 1164 	.db #0x80
   018E 80                 1165 	.db #0x80
   018F FC                 1166 	.db #0xFC
   0190 FC                 1167 	.db #0xFC
   0191 80                 1168 	.db #0x80
   0192 80                 1169 	.db #0x80
   0193 80                 1170 	.db #0x80
   0194 80                 1171 	.db #0x80
   0195 FE                 1172 	.db #0xFE
   0196 FE                 1173 	.db #0xFE
   0197 00                 1174 	.db #0x00
   0198 00                 1175 	.db #0x00
   0199 FE                 1176 	.db #0xFE
   019A FE                 1177 	.db #0xFE
   019B 80                 1178 	.db #0x80
   019C 80                 1179 	.db #0x80
   019D 80                 1180 	.db #0x80
   019E 80                 1181 	.db #0x80
   019F FC                 1182 	.db #0xFC
   01A0 FC                 1183 	.db #0xFC
   01A1 80                 1184 	.db #0x80
   01A2 80                 1185 	.db #0x80
   01A3 80                 1186 	.db #0x80
   01A4 80                 1187 	.db #0x80
   01A5 80                 1188 	.db #0x80
   01A6 80                 1189 	.db #0x80
   01A7 00                 1190 	.db #0x00
   01A8 00                 1191 	.db #0x00
   01A9 7C                 1192 	.db #0x7C
   01AA 7C                 1193 	.db #0x7C
   01AB 82                 1194 	.db #0x82
   01AC 82                 1195 	.db #0x82
   01AD 80                 1196 	.db #0x80
   01AE 80                 1197 	.db #0x80
   01AF 80                 1198 	.db #0x80
   01B0 80                 1199 	.db #0x80
   01B1 8E                 1200 	.db #0x8E
   01B2 8E                 1201 	.db #0x8E
   01B3 82                 1202 	.db #0x82
   01B4 82                 1203 	.db #0x82
   01B5 7E                 1204 	.db #0x7E
   01B6 7E                 1205 	.db #0x7E
   01B7 00                 1206 	.db #0x00
   01B8 00                 1207 	.db #0x00
   01B9 82                 1208 	.db #0x82
   01BA 82                 1209 	.db #0x82
   01BB 82                 1210 	.db #0x82
   01BC 82                 1211 	.db #0x82
   01BD 82                 1212 	.db #0x82
   01BE 82                 1213 	.db #0x82
   01BF FE                 1214 	.db #0xFE
   01C0 FE                 1215 	.db #0xFE
   01C1 82                 1216 	.db #0x82
   01C2 82                 1217 	.db #0x82
   01C3 82                 1218 	.db #0x82
   01C4 82                 1219 	.db #0x82
   01C5 82                 1220 	.db #0x82
   01C6 82                 1221 	.db #0x82
   01C7 00                 1222 	.db #0x00
   01C8 00                 1223 	.db #0x00
   01C9 7C                 1224 	.db #0x7C
   01CA 7C                 1225 	.db #0x7C
   01CB 10                 1226 	.db #0x10
   01CC 10                 1227 	.db #0x10
   01CD 10                 1228 	.db #0x10
   01CE 10                 1229 	.db #0x10
   01CF 10                 1230 	.db #0x10
   01D0 10                 1231 	.db #0x10
   01D1 10                 1232 	.db #0x10
   01D2 10                 1233 	.db #0x10
   01D3 10                 1234 	.db #0x10
   01D4 10                 1235 	.db #0x10
   01D5 7C                 1236 	.db #0x7C
   01D6 7C                 1237 	.db #0x7C
   01D7 00                 1238 	.db #0x00
   01D8 00                 1239 	.db #0x00
   01D9 1E                 1240 	.db #0x1E
   01DA 1E                 1241 	.db #0x1E
   01DB 04                 1242 	.db #0x04
   01DC 04                 1243 	.db #0x04
   01DD 04                 1244 	.db #0x04
   01DE 04                 1245 	.db #0x04
   01DF 04                 1246 	.db #0x04
   01E0 04                 1247 	.db #0x04
   01E1 04                 1248 	.db #0x04
   01E2 04                 1249 	.db #0x04
   01E3 84                 1250 	.db #0x84
   01E4 84                 1251 	.db #0x84
   01E5 78                 1252 	.db #0x78
   01E6 78                 1253 	.db #0x78
   01E7 00                 1254 	.db #0x00
   01E8 00                 1255 	.db #0x00
   01E9 84                 1256 	.db #0x84
   01EA 84                 1257 	.db #0x84
   01EB 88                 1258 	.db #0x88
   01EC 88                 1259 	.db #0x88
   01ED 90                 1260 	.db #0x90
   01EE 90                 1261 	.db #0x90
   01EF F0                 1262 	.db #0xF0
   01F0 F0                 1263 	.db #0xF0
   01F1 88                 1264 	.db #0x88
   01F2 88                 1265 	.db #0x88
   01F3 84                 1266 	.db #0x84
   01F4 84                 1267 	.db #0x84
   01F5 82                 1268 	.db #0x82
   01F6 82                 1269 	.db #0x82
   01F7 00                 1270 	.db #0x00
   01F8 00                 1271 	.db #0x00
   01F9 40                 1272 	.db #0x40
   01FA 40                 1273 	.db #0x40
   01FB 40                 1274 	.db #0x40
   01FC 40                 1275 	.db #0x40
   01FD 40                 1276 	.db #0x40
   01FE 40                 1277 	.db #0x40
   01FF 40                 1278 	.db #0x40
   0200 40                 1279 	.db #0x40
   0201 40                 1280 	.db #0x40
   0202 40                 1281 	.db #0x40
   0203 40                 1282 	.db #0x40
   0204 40                 1283 	.db #0x40
   0205 7E                 1284 	.db #0x7E
   0206 7E                 1285 	.db #0x7E
   0207 00                 1286 	.db #0x00
   0208 00                 1287 	.db #0x00
   0209 82                 1288 	.db #0x82
   020A 82                 1289 	.db #0x82
   020B C6                 1290 	.db #0xC6
   020C C6                 1291 	.db #0xC6
   020D AA                 1292 	.db #0xAA
   020E AA                 1293 	.db #0xAA
   020F 92                 1294 	.db #0x92
   0210 92                 1295 	.db #0x92
   0211 82                 1296 	.db #0x82
   0212 82                 1297 	.db #0x82
   0213 82                 1298 	.db #0x82
   0214 82                 1299 	.db #0x82
   0215 82                 1300 	.db #0x82
   0216 82                 1301 	.db #0x82
   0217 00                 1302 	.db #0x00
   0218 00                 1303 	.db #0x00
   0219 82                 1304 	.db #0x82
   021A 82                 1305 	.db #0x82
   021B C2                 1306 	.db #0xC2
   021C C2                 1307 	.db #0xC2
   021D A2                 1308 	.db #0xA2
   021E A2                 1309 	.db #0xA2
   021F 92                 1310 	.db #0x92
   0220 92                 1311 	.db #0x92
   0221 8A                 1312 	.db #0x8A
   0222 8A                 1313 	.db #0x8A
   0223 86                 1314 	.db #0x86
   0224 86                 1315 	.db #0x86
   0225 82                 1316 	.db #0x82
   0226 82                 1317 	.db #0x82
   0227 00                 1318 	.db #0x00
   0228 00                 1319 	.db #0x00
   0229 7C                 1320 	.db #0x7C
   022A 7C                 1321 	.db #0x7C
   022B 82                 1322 	.db #0x82
   022C 82                 1323 	.db #0x82
   022D 82                 1324 	.db #0x82
   022E 82                 1325 	.db #0x82
   022F 82                 1326 	.db #0x82
   0230 82                 1327 	.db #0x82
   0231 82                 1328 	.db #0x82
   0232 82                 1329 	.db #0x82
   0233 82                 1330 	.db #0x82
   0234 82                 1331 	.db #0x82
   0235 7C                 1332 	.db #0x7C
   0236 7C                 1333 	.db #0x7C
   0237 00                 1334 	.db #0x00
   0238 00                 1335 	.db #0x00
   0239 FC                 1336 	.db #0xFC
   023A FC                 1337 	.db #0xFC
   023B 82                 1338 	.db #0x82
   023C 82                 1339 	.db #0x82
   023D 82                 1340 	.db #0x82
   023E 82                 1341 	.db #0x82
   023F 82                 1342 	.db #0x82
   0240 82                 1343 	.db #0x82
   0241 FC                 1344 	.db #0xFC
   0242 FC                 1345 	.db #0xFC
   0243 80                 1346 	.db #0x80
   0244 80                 1347 	.db #0x80
   0245 80                 1348 	.db #0x80
   0246 80                 1349 	.db #0x80
   0247 00                 1350 	.db #0x00
   0248 00                 1351 	.db #0x00
   0249 7C                 1352 	.db #0x7C
   024A 7C                 1353 	.db #0x7C
   024B 82                 1354 	.db #0x82
   024C 82                 1355 	.db #0x82
   024D 82                 1356 	.db #0x82
   024E 82                 1357 	.db #0x82
   024F 92                 1358 	.db #0x92
   0250 92                 1359 	.db #0x92
   0251 8A                 1360 	.db #0x8A
   0252 8A                 1361 	.db #0x8A
   0253 84                 1362 	.db #0x84
   0254 84                 1363 	.db #0x84
   0255 7A                 1364 	.db #0x7A
   0256 7A                 1365 	.db #0x7A
   0257 00                 1366 	.db #0x00
   0258 00                 1367 	.db #0x00
   0259 FC                 1368 	.db #0xFC
   025A FC                 1369 	.db #0xFC
   025B 82                 1370 	.db #0x82
   025C 82                 1371 	.db #0x82
   025D 82                 1372 	.db #0x82
   025E 82                 1373 	.db #0x82
   025F 84                 1374 	.db #0x84
   0260 84                 1375 	.db #0x84
   0261 F8                 1376 	.db #0xF8
   0262 F8                 1377 	.db #0xF8
   0263 84                 1378 	.db #0x84
   0264 84                 1379 	.db #0x84
   0265 82                 1380 	.db #0x82
   0266 82                 1381 	.db #0x82
   0267 00                 1382 	.db #0x00
   0268 00                 1383 	.db #0x00
   0269 7C                 1384 	.db #0x7C
   026A 7C                 1385 	.db #0x7C
   026B 80                 1386 	.db #0x80
   026C 80                 1387 	.db #0x80
   026D 80                 1388 	.db #0x80
   026E 80                 1389 	.db #0x80
   026F 7C                 1390 	.db #0x7C
   0270 7C                 1391 	.db #0x7C
   0271 02                 1392 	.db #0x02
   0272 02                 1393 	.db #0x02
   0273 02                 1394 	.db #0x02
   0274 02                 1395 	.db #0x02
   0275 FC                 1396 	.db #0xFC
   0276 FC                 1397 	.db #0xFC
   0277 00                 1398 	.db #0x00
   0278 00                 1399 	.db #0x00
   0279 FE                 1400 	.db #0xFE
   027A FE                 1401 	.db #0xFE
   027B 10                 1402 	.db #0x10
   027C 10                 1403 	.db #0x10
   027D 10                 1404 	.db #0x10
   027E 10                 1405 	.db #0x10
   027F 10                 1406 	.db #0x10
   0280 10                 1407 	.db #0x10
   0281 10                 1408 	.db #0x10
   0282 10                 1409 	.db #0x10
   0283 10                 1410 	.db #0x10
   0284 10                 1411 	.db #0x10
   0285 10                 1412 	.db #0x10
   0286 10                 1413 	.db #0x10
   0287 00                 1414 	.db #0x00
   0288 00                 1415 	.db #0x00
   0289 82                 1416 	.db #0x82
   028A 82                 1417 	.db #0x82
   028B 82                 1418 	.db #0x82
   028C 82                 1419 	.db #0x82
   028D 82                 1420 	.db #0x82
   028E 82                 1421 	.db #0x82
   028F 82                 1422 	.db #0x82
   0290 82                 1423 	.db #0x82
   0291 82                 1424 	.db #0x82
   0292 82                 1425 	.db #0x82
   0293 82                 1426 	.db #0x82
   0294 82                 1427 	.db #0x82
   0295 7C                 1428 	.db #0x7C
   0296 7C                 1429 	.db #0x7C
   0297 00                 1430 	.db #0x00
   0298 00                 1431 	.db #0x00
   0299 82                 1432 	.db #0x82
   029A 82                 1433 	.db #0x82
   029B 82                 1434 	.db #0x82
   029C 82                 1435 	.db #0x82
   029D 82                 1436 	.db #0x82
   029E 82                 1437 	.db #0x82
   029F 82                 1438 	.db #0x82
   02A0 82                 1439 	.db #0x82
   02A1 44                 1440 	.db #0x44
   02A2 44                 1441 	.db #0x44
   02A3 28                 1442 	.db #0x28
   02A4 28                 1443 	.db #0x28
   02A5 10                 1444 	.db #0x10
   02A6 10                 1445 	.db #0x10
   02A7 00                 1446 	.db #0x00
   02A8 00                 1447 	.db #0x00
   02A9 82                 1448 	.db #0x82
   02AA 82                 1449 	.db #0x82
   02AB 82                 1450 	.db #0x82
   02AC 82                 1451 	.db #0x82
   02AD 82                 1452 	.db #0x82
   02AE 82                 1453 	.db #0x82
   02AF 92                 1454 	.db #0x92
   02B0 92                 1455 	.db #0x92
   02B1 AA                 1456 	.db #0xAA
   02B2 AA                 1457 	.db #0xAA
   02B3 C6                 1458 	.db #0xC6
   02B4 C6                 1459 	.db #0xC6
   02B5 82                 1460 	.db #0x82
   02B6 82                 1461 	.db #0x82
   02B7 00                 1462 	.db #0x00
   02B8 00                 1463 	.db #0x00
   02B9 82                 1464 	.db #0x82
   02BA 82                 1465 	.db #0x82
   02BB 44                 1466 	.db #0x44
   02BC 44                 1467 	.db #0x44
   02BD 28                 1468 	.db #0x28
   02BE 28                 1469 	.db #0x28
   02BF 10                 1470 	.db #0x10
   02C0 10                 1471 	.db #0x10
   02C1 28                 1472 	.db #0x28
   02C2 28                 1473 	.db #0x28
   02C3 44                 1474 	.db #0x44
   02C4 44                 1475 	.db #0x44
   02C5 82                 1476 	.db #0x82
   02C6 82                 1477 	.db #0x82
   02C7 00                 1478 	.db #0x00
   02C8 00                 1479 	.db #0x00
   02C9 82                 1480 	.db #0x82
   02CA 82                 1481 	.db #0x82
   02CB 44                 1482 	.db #0x44
   02CC 44                 1483 	.db #0x44
   02CD 28                 1484 	.db #0x28
   02CE 28                 1485 	.db #0x28
   02CF 10                 1486 	.db #0x10
   02D0 10                 1487 	.db #0x10
   02D1 10                 1488 	.db #0x10
   02D2 10                 1489 	.db #0x10
   02D3 10                 1490 	.db #0x10
   02D4 10                 1491 	.db #0x10
   02D5 10                 1492 	.db #0x10
   02D6 10                 1493 	.db #0x10
   02D7 00                 1494 	.db #0x00
   02D8 00                 1495 	.db #0x00
   02D9 FE                 1496 	.db #0xFE
   02DA FE                 1497 	.db #0xFE
   02DB 04                 1498 	.db #0x04
   02DC 04                 1499 	.db #0x04
   02DD 08                 1500 	.db #0x08
   02DE 08                 1501 	.db #0x08
   02DF 10                 1502 	.db #0x10
   02E0 10                 1503 	.db #0x10
   02E1 20                 1504 	.db #0x20
   02E2 20                 1505 	.db #0x20
   02E3 40                 1506 	.db #0x40
   02E4 40                 1507 	.db #0x40
   02E5 FE                 1508 	.db #0xFE
   02E6 FE                 1509 	.db #0xFE
   02E7 00                 1510 	.db #0x00
   02E8 00                 1511 	.db #0x00
   02E9 1C                 1512 	.db #0x1C
   02EA 1C                 1513 	.db #0x1C
   02EB 10                 1514 	.db #0x10
   02EC 10                 1515 	.db #0x10
   02ED 10                 1516 	.db #0x10
   02EE 10                 1517 	.db #0x10
   02EF 10                 1518 	.db #0x10
   02F0 10                 1519 	.db #0x10
   02F1 10                 1520 	.db #0x10
   02F2 10                 1521 	.db #0x10
   02F3 10                 1522 	.db #0x10
   02F4 10                 1523 	.db #0x10
   02F5 1C                 1524 	.db #0x1C
   02F6 1C                 1525 	.db #0x1C
   02F7 00                 1526 	.db #0x00
   02F8 00                 1527 	.db #0x00
   02F9 80                 1528 	.db #0x80
   02FA 80                 1529 	.db #0x80
   02FB 40                 1530 	.db #0x40
   02FC 40                 1531 	.db #0x40
   02FD 20                 1532 	.db #0x20
   02FE 20                 1533 	.db #0x20
   02FF 10                 1534 	.db #0x10
   0300 10                 1535 	.db #0x10
   0301 08                 1536 	.db #0x08
   0302 08                 1537 	.db #0x08
   0303 04                 1538 	.db #0x04
   0304 04                 1539 	.db #0x04
   0305 02                 1540 	.db #0x02
   0306 02                 1541 	.db #0x02
   0307 00                 1542 	.db #0x00
   0308 00                 1543 	.db #0x00
   0309 70                 1544 	.db #0x70
   030A 70                 1545 	.db #0x70
   030B 10                 1546 	.db #0x10
   030C 10                 1547 	.db #0x10
   030D 10                 1548 	.db #0x10
   030E 10                 1549 	.db #0x10
   030F 10                 1550 	.db #0x10
   0310 10                 1551 	.db #0x10
   0311 10                 1552 	.db #0x10
   0312 10                 1553 	.db #0x10
   0313 10                 1554 	.db #0x10
   0314 10                 1555 	.db #0x10
   0315 70                 1556 	.db #0x70
   0316 70                 1557 	.db #0x70
   0317 00                 1558 	.db #0x00
   0318 00                 1559 	.db #0x00
   0319 10                 1560 	.db #0x10
   031A 10                 1561 	.db #0x10
   031B 28                 1562 	.db #0x28
   031C 28                 1563 	.db #0x28
   031D 44                 1564 	.db #0x44
   031E 44                 1565 	.db #0x44
   031F 82                 1566 	.db #0x82
   0320 82                 1567 	.db #0x82
   0321 00                 1568 	.db #0x00
   0322 00                 1569 	.db #0x00
   0323 00                 1570 	.db #0x00
   0324 00                 1571 	.db #0x00
   0325 00                 1572 	.db #0x00
   0326 00                 1573 	.db #0x00
   0327 00                 1574 	.db #0x00
   0328 00                 1575 	.db #0x00
   0329 00                 1576 	.db #0x00
   032A 00                 1577 	.db #0x00
   032B 00                 1578 	.db #0x00
   032C 00                 1579 	.db #0x00
   032D 00                 1580 	.db #0x00
   032E 00                 1581 	.db #0x00
   032F 00                 1582 	.db #0x00
   0330 00                 1583 	.db #0x00
   0331 00                 1584 	.db #0x00
   0332 00                 1585 	.db #0x00
   0333 00                 1586 	.db #0x00
   0334 00                 1587 	.db #0x00
   0335 FE                 1588 	.db #0xFE
   0336 FE                 1589 	.db #0xFE
   0337 00                 1590 	.db #0x00
   0338 00                 1591 	.db #0x00
   0339                    1592 _numbers:
   0339 00                 1593 	.db #0x00
   033A 01                 1594 	.db #0x01
   033B 02                 1595 	.db #0x02
   033C 03                 1596 	.db #0x03
   033D 04                 1597 	.db #0x04
   033E 05                 1598 	.db #0x05
   033F 06                 1599 	.db #0x06
   0340 07                 1600 	.db #0x07
   0341 08                 1601 	.db #0x08
   0342 09                 1602 	.db #0x09
   0343                    1603 _paddle_sprite_data:
   0343 00                 1604 	.db #0x00
   0344 00                 1605 	.db #0x00
   0345 00                 1606 	.db #0x00
   0346 00                 1607 	.db #0x00
   0347 00                 1608 	.db #0x00
   0348 00                 1609 	.db #0x00
   0349 00                 1610 	.db #0x00
   034A 00                 1611 	.db #0x00
   034B 00                 1612 	.db #0x00
   034C 00                 1613 	.db #0x00
   034D 00                 1614 	.db #0x00
   034E 00                 1615 	.db #0x00
   034F 00                 1616 	.db #0x00
   0350 00                 1617 	.db #0x00
   0351 00                 1618 	.db #0x00
   0352 00                 1619 	.db #0x00
   0353 00                 1620 	.db #0x00
   0354 00                 1621 	.db #0x00
   0355 00                 1622 	.db #0x00
   0356 00                 1623 	.db #0x00
   0357 00                 1624 	.db #0x00
   0358 00                 1625 	.db #0x00
   0359 00                 1626 	.db #0x00
   035A 00                 1627 	.db #0x00
   035B FF                 1628 	.db #0xFF
   035C FF                 1629 	.db #0xFF
   035D FF                 1630 	.db #0xFF
   035E FF                 1631 	.db #0xFF
   035F 7F                 1632 	.db #0x7F
   0360 7F                 1633 	.db #0x7F
   0361 3F                 1634 	.db #0x3F
   0362 3F                 1635 	.db #0x3F
   0363 00                 1636 	.db #0x00
   0364 00                 1637 	.db #0x00
   0365 00                 1638 	.db #0x00
   0366 00                 1639 	.db #0x00
   0367 00                 1640 	.db #0x00
   0368 00                 1641 	.db #0x00
   0369 00                 1642 	.db #0x00
   036A 00                 1643 	.db #0x00
   036B 00                 1644 	.db #0x00
   036C 00                 1645 	.db #0x00
   036D 00                 1646 	.db #0x00
   036E 00                 1647 	.db #0x00
   036F 00                 1648 	.db #0x00
   0370 00                 1649 	.db #0x00
   0371 00                 1650 	.db #0x00
   0372 00                 1651 	.db #0x00
   0373 00                 1652 	.db #0x00
   0374 00                 1653 	.db #0x00
   0375 00                 1654 	.db #0x00
   0376 00                 1655 	.db #0x00
   0377 00                 1656 	.db #0x00
   0378 00                 1657 	.db #0x00
   0379 00                 1658 	.db #0x00
   037A 00                 1659 	.db #0x00
   037B FF                 1660 	.db #0xFF
   037C FF                 1661 	.db #0xFF
   037D FF                 1662 	.db #0xFF
   037E FF                 1663 	.db #0xFF
   037F FE                 1664 	.db #0xFE
   0380 FE                 1665 	.db #0xFE
   0381 FC                 1666 	.db #0xFC
   0382 FC                 1667 	.db #0xFC
   0383                    1668 _small_ball_sprite_data:
   0383 00                 1669 	.db #0x00
   0384 00                 1670 	.db #0x00
   0385 00                 1671 	.db #0x00
   0386 00                 1672 	.db #0x00
   0387 00                 1673 	.db #0x00
   0388 00                 1674 	.db #0x00
   0389 00                 1675 	.db #0x00
   038A 00                 1676 	.db #0x00
   038B 00                 1677 	.db #0x00
   038C 00                 1678 	.db #0x00
   038D 00                 1679 	.db #0x00
   038E 00                 1680 	.db #0x00
   038F 00                 1681 	.db #0x00
   0390 00                 1682 	.db #0x00
   0391 00                 1683 	.db #0x00
   0392 00                 1684 	.db #0x00
   0393 18                 1685 	.db #0x18
   0394 18                 1686 	.db #0x18
   0395 7E                 1687 	.db #0x7E
   0396 7E                 1688 	.db #0x7E
   0397 7E                 1689 	.db #0x7E
   0398 7E                 1690 	.db #0x7E
   0399 FF                 1691 	.db #0xFF
   039A FF                 1692 	.db #0xFF
   039B FF                 1693 	.db #0xFF
   039C FF                 1694 	.db #0xFF
   039D 7E                 1695 	.db #0x7E
   039E 7E                 1696 	.db #0x7E
   039F 7E                 1697 	.db #0x7E
   03A0 7E                 1698 	.db #0x7E
   03A1 18                 1699 	.db #0x18
   03A2 18                 1700 	.db #0x18
   03A3 00                 1701 	.db #0x00
   03A4 00                 1702 	.db #0x00
   03A5 00                 1703 	.db #0x00
   03A6 00                 1704 	.db #0x00
   03A7 00                 1705 	.db #0x00
   03A8 00                 1706 	.db #0x00
   03A9 00                 1707 	.db #0x00
   03AA 00                 1708 	.db #0x00
   03AB 00                 1709 	.db #0x00
   03AC 00                 1710 	.db #0x00
   03AD 00                 1711 	.db #0x00
   03AE 00                 1712 	.db #0x00
   03AF 00                 1713 	.db #0x00
   03B0 00                 1714 	.db #0x00
   03B1 00                 1715 	.db #0x00
   03B2 00                 1716 	.db #0x00
   03B3 00                 1717 	.db #0x00
   03B4 00                 1718 	.db #0x00
   03B5 00                 1719 	.db #0x00
   03B6 00                 1720 	.db #0x00
   03B7 00                 1721 	.db #0x00
   03B8 00                 1722 	.db #0x00
   03B9 00                 1723 	.db #0x00
   03BA 00                 1724 	.db #0x00
   03BB 00                 1725 	.db #0x00
   03BC 00                 1726 	.db #0x00
   03BD 00                 1727 	.db #0x00
   03BE 00                 1728 	.db #0x00
   03BF 00                 1729 	.db #0x00
   03C0 00                 1730 	.db #0x00
   03C1 00                 1731 	.db #0x00
   03C2 00                 1732 	.db #0x00
   03C3                    1733 _smile_sprite_data:
   03C3 07                 1734 	.db #0x07
   03C4 00                 1735 	.db #0x00
   03C5 0F                 1736 	.db #0x0F
   03C6 00                 1737 	.db #0x00
   03C7 1F                 1738 	.db #0x1F
   03C8 00                 1739 	.db #0x00
   03C9 10                 1740 	.db #0x10
   03CA 08                 1741 	.db #0x08
   03CB 30                 1742 	.db #0x30
   03CC 08                 1743 	.db #0x08
   03CD 20                 1744 	.db #0x20
   03CE 16                 1745 	.db #0x16
   03CF 62                 1746 	.db #0x62
   03D0 14                 1747 	.db #0x14
   03D1 60                 1748 	.db #0x60
   03D2 10                 1749 	.db #0x10
   03D3 60                 1750 	.db #0x60
   03D4 14                 1751 	.db #0x14
   03D5 60                 1752 	.db #0x60
   03D6 13                 1753 	.db #0x13
   03D7 70                 1754 	.db #0x70
   03D8 08                 1755 	.db #0x08
   03D9 78                 1756 	.db #0x78
   03DA 04                 1757 	.db #0x04
   03DB 3C                 1758 	.db #0x3C
   03DC 02                 1759 	.db #0x02
   03DD 3C                 1760 	.db #0x3C
   03DE 02                 1761 	.db #0x02
   03DF 00                 1762 	.db #0x00
   03E0 02                 1763 	.db #0x02
   03E1 00                 1764 	.db #0x00
   03E2 02                 1765 	.db #0x02
   03E3 E0                 1766 	.db #0xE0
   03E4 00                 1767 	.db #0x00
   03E5 F0                 1768 	.db #0xF0
   03E6 00                 1769 	.db #0x00
   03E7 F8                 1770 	.db #0xF8
   03E8 00                 1771 	.db #0x00
   03E9 08                 1772 	.db #0x08
   03EA 10                 1773 	.db #0x10
   03EB 0C                 1774 	.db #0x0C
   03EC 10                 1775 	.db #0x10
   03ED 04                 1776 	.db #0x04
   03EE 68                 1777 	.db #0x68
   03EF 46                 1778 	.db #0x46
   03F0 28                 1779 	.db #0x28
   03F1 06                 1780 	.db #0x06
   03F2 08                 1781 	.db #0x08
   03F3 06                 1782 	.db #0x06
   03F4 28                 1783 	.db #0x28
   03F5 06                 1784 	.db #0x06
   03F6 C8                 1785 	.db #0xC8
   03F7 0E                 1786 	.db #0x0E
   03F8 10                 1787 	.db #0x10
   03F9 1E                 1788 	.db #0x1E
   03FA 20                 1789 	.db #0x20
   03FB 3C                 1790 	.db #0x3C
   03FC 40                 1791 	.db #0x40
   03FD 3C                 1792 	.db #0x3C
   03FE 40                 1793 	.db #0x40
   03FF 00                 1794 	.db #0x00
   0400 40                 1795 	.db #0x40
   0401 00                 1796 	.db #0x00
   0402 40                 1797 	.db #0x40
   0403                    1798 _death_sprite_data:
   0403 07                 1799 	.db #0x07
   0404 00                 1800 	.db #0x00
   0405 0F                 1801 	.db #0x0F
   0406 00                 1802 	.db #0x00
   0407 1F                 1803 	.db #0x1F
   0408 00                 1804 	.db #0x00
   0409 1F                 1805 	.db #0x1F
   040A 00                 1806 	.db #0x00
   040B 3F                 1807 	.db #0x3F
   040C 00                 1808 	.db #0x00
   040D 39                 1809 	.db #0x39
   040E 00                 1810 	.db #0x00
   040F 60                 1811 	.db #0x60
   0410 16                 1812 	.db #0x16
   0411 62                 1813 	.db #0x62
   0412 14                 1814 	.db #0x14
   0413 60                 1815 	.db #0x60
   0414 10                 1816 	.db #0x10
   0415 60                 1817 	.db #0x60
   0416 13                 1818 	.db #0x13
   0417 60                 1819 	.db #0x60
   0418 14                 1820 	.db #0x14
   0419 60                 1821 	.db #0x60
   041A 10                 1822 	.db #0x10
   041B 30                 1823 	.db #0x30
   041C 0E                 1824 	.db #0x0E
   041D 3C                 1825 	.db #0x3C
   041E 02                 1826 	.db #0x02
   041F 00                 1827 	.db #0x00
   0420 02                 1828 	.db #0x02
   0421 00                 1829 	.db #0x00
   0422 02                 1830 	.db #0x02
   0423 E0                 1831 	.db #0xE0
   0424 00                 1832 	.db #0x00
   0425 F0                 1833 	.db #0xF0
   0426 00                 1834 	.db #0x00
   0427 F8                 1835 	.db #0xF8
   0428 00                 1836 	.db #0x00
   0429 F8                 1837 	.db #0xF8
   042A 00                 1838 	.db #0x00
   042B FC                 1839 	.db #0xFC
   042C 00                 1840 	.db #0x00
   042D 9C                 1841 	.db #0x9C
   042E 00                 1842 	.db #0x00
   042F 06                 1843 	.db #0x06
   0430 68                 1844 	.db #0x68
   0431 46                 1845 	.db #0x46
   0432 28                 1846 	.db #0x28
   0433 06                 1847 	.db #0x06
   0434 08                 1848 	.db #0x08
   0435 06                 1849 	.db #0x06
   0436 C8                 1850 	.db #0xC8
   0437 06                 1851 	.db #0x06
   0438 28                 1852 	.db #0x28
   0439 06                 1853 	.db #0x06
   043A 08                 1854 	.db #0x08
   043B 0C                 1855 	.db #0x0C
   043C 70                 1856 	.db #0x70
   043D 3C                 1857 	.db #0x3C
   043E 40                 1858 	.db #0x40
   043F 00                 1859 	.db #0x00
   0440 40                 1860 	.db #0x40
   0441 00                 1861 	.db #0x00
   0442 40                 1862 	.db #0x40
   0443                    1863 _block_sprite_data:
   0443 FF                 1864 	.db #0xFF
   0444 FF                 1865 	.db #0xFF
   0445 FF                 1866 	.db #0xFF
   0446 80                 1867 	.db #0x80
   0447 FF                 1868 	.db #0xFF
   0448 BF                 1869 	.db #0xBF
   0449 FF                 1870 	.db #0xFF
   044A A0                 1871 	.db #0xA0
   044B FF                 1872 	.db #0xFF
   044C AF                 1873 	.db #0xAF
   044D FF                 1874 	.db #0xFF
   044E A8                 1875 	.db #0xA8
   044F FF                 1876 	.db #0xFF
   0450 AB                 1877 	.db #0xAB
   0451 FF                 1878 	.db #0xFF
   0452 AA                 1879 	.db #0xAA
   0453 FF                 1880 	.db #0xFF
   0454 AA                 1881 	.db #0xAA
   0455 FF                 1882 	.db #0xFF
   0456 AB                 1883 	.db #0xAB
   0457 FF                 1884 	.db #0xFF
   0458 A8                 1885 	.db #0xA8
   0459 FF                 1886 	.db #0xFF
   045A AF                 1887 	.db #0xAF
   045B FF                 1888 	.db #0xFF
   045C A0                 1889 	.db #0xA0
   045D FF                 1890 	.db #0xFF
   045E BF                 1891 	.db #0xBF
   045F FF                 1892 	.db #0xFF
   0460 80                 1893 	.db #0x80
   0461 FF                 1894 	.db #0xFF
   0462 FF                 1895 	.db #0xFF
   0463 FF                 1896 	.db #0xFF
   0464 FF                 1897 	.db #0xFF
   0465 FF                 1898 	.db #0xFF
   0466 01                 1899 	.db #0x01
   0467 FF                 1900 	.db #0xFF
   0468 FD                 1901 	.db #0xFD
   0469 FF                 1902 	.db #0xFF
   046A 05                 1903 	.db #0x05
   046B FF                 1904 	.db #0xFF
   046C F5                 1905 	.db #0xF5
   046D FF                 1906 	.db #0xFF
   046E 15                 1907 	.db #0x15
   046F FF                 1908 	.db #0xFF
   0470 D5                 1909 	.db #0xD5
   0471 FF                 1910 	.db #0xFF
   0472 55                 1911 	.db #0x55
   0473 FF                 1912 	.db #0xFF
   0474 55                 1913 	.db #0x55
   0475 FF                 1914 	.db #0xFF
   0476 D5                 1915 	.db #0xD5
   0477 FF                 1916 	.db #0xFF
   0478 15                 1917 	.db #0x15
   0479 FF                 1918 	.db #0xFF
   047A F5                 1919 	.db #0xF5
   047B FF                 1920 	.db #0xFF
   047C 05                 1921 	.db #0x05
   047D FF                 1922 	.db #0xFF
   047E FD                 1923 	.db #0xFD
   047F FF                 1924 	.db #0xFF
   0480 01                 1925 	.db #0x01
   0481 FF                 1926 	.db #0xFF
   0482 FF                 1927 	.db #0xFF
                           1928 ;	bustout.c 96
                           1929 ;	genLabel
                           1930 ;	genFunction
                           1931 ;	---------------------------------
                           1932 ; Function render_background
                           1933 ; ---------------------------------
   0483                    1934 ___render_background_start:
   0483                    1935 _render_background:
                           1936 	
                           1937 ;	bustout.c 99
                           1938 ;	genIpush
                           1939 ; _saveRegsForCall: sendSetSize: 0 deInUse: 0 bcInUse: 0 deSending: 0
   0483 21 39 00           1940 	ld	hl,#_alpha
   0486 E5                 1941 	push	hl
                           1942 ;	genIpush
   0487 21 00 2F           1943 	ld	hl,#0x2F00
   048A E5                 1944 	push	hl
                           1945 ;	genCall
   048B CD 00 00           1946 	call	_set_bkg_data
   048E E8 04              1947 	lda	sp,4(sp)
                           1948 ;	bustout.c 101
                           1949 ;	genIpush
                           1950 ; _saveRegsForCall: sendSetSize: 0 deInUse: 0 bcInUse: 0 deSending: 0
   0490 21 00 00           1951 	ld	hl,#_blank_screen
   0493 E5                 1952 	push	hl
                           1953 ;	genIpush
   0494 21 14 12           1954 	ld	hl,#0x1214
   0497 E5                 1955 	push	hl
                           1956 ;	genIpush
   0498 21 00 00           1957 	ld	hl,#0x0000
   049B E5                 1958 	push	hl
                           1959 ;	genCall
   049C CD 00 00           1960 	call	_set_bkg_tiles
   049F E8 06              1961 	lda	sp,6(sp)
                           1962 ;	genLabel
   04A1                    1963 00101$:
                           1964 ;	genEndFunction
                           1965 	
   04A1 C9                 1966 	ret
   04A2                    1967 ___render_background_end:
   04A2                    1968 _block_map:
   04A2 00 00              1969 	.dw #0x0000
   04A4 00 00              1970 	.dw #0x0000
   04A6 00 00              1971 	.dw #0x0000
   04A8 00 00              1972 	.dw #0x0000
   04AA 00 00              1973 	.dw #0x0000
   04AC 00 00              1974 	.dw #0x0000
   04AE 00 00              1975 	.dw #0x0000
   04B0 01 00              1976 	.dw #0x0001
   04B2 01 00              1977 	.dw #0x0001
   04B4 01 00              1978 	.dw #0x0001
   04B6 01 00              1979 	.dw #0x0001
   04B8 00 00              1980 	.dw #0x0000
   04BA 00 00              1981 	.dw #0x0000
   04BC 01 00              1982 	.dw #0x0001
   04BE 01 00              1983 	.dw #0x0001
   04C0 01 00              1984 	.dw #0x0001
   04C2 01 00              1985 	.dw #0x0001
   04C4 00 00              1986 	.dw #0x0000
   04C6 00 00              1987 	.dw #0x0000
   04C8 00 00              1988 	.dw #0x0000
   04CA 00 00              1989 	.dw #0x0000
   04CC 00 00              1990 	.dw #0x0000
   04CE 00 00              1991 	.dw #0x0000
   04D0 00 00              1992 	.dw #0x0000
   04D2 00 00              1993 	.dw #0x0000
   04D4 01 00              1994 	.dw #0x0001
   04D6 00 00              1995 	.dw #0x0000
   04D8 00 00              1996 	.dw #0x0000
   04DA 01 00              1997 	.dw #0x0001
   04DC 00 00              1998 	.dw #0x0000
   04DE 00 00              1999 	.dw #0x0000
   04E0 00 00              2000 	.dw #0x0000
   04E2 00 00              2001 	.dw #0x0000
   04E4 00 00              2002 	.dw #0x0000
   04E6 00 00              2003 	.dw #0x0000
   04E8 00 00              2004 	.dw #0x0000
   04EA 01 00              2005 	.dw #0x0001
   04EC 00 00              2006 	.dw #0x0000
   04EE 00 00              2007 	.dw #0x0000
   04F0 00 00              2008 	.dw #0x0000
   04F2 00 00              2009 	.dw #0x0000
   04F4 01 00              2010 	.dw #0x0001
   04F6 00 00              2011 	.dw #0x0000
   04F8 01 00              2012 	.dw #0x0001
   04FA 01 00              2013 	.dw #0x0001
   04FC 01 00              2014 	.dw #0x0001
   04FE 01 00              2015 	.dw #0x0001
   0500 00 00              2016 	.dw #0x0000
   0502 01 00              2017 	.dw #0x0001
   0504 00 00              2018 	.dw #0x0000
   0506 00 00              2019 	.dw #0x0000
   0508 00 00              2020 	.dw #0x0000
   050A 00 00              2021 	.dw #0x0000
   050C 01 00              2022 	.dw #0x0001
   050E 00 00              2023 	.dw #0x0000
   0510 01 00              2024 	.dw #0x0001
   0512 00 00              2025 	.dw #0x0000
   0514 00 00              2026 	.dw #0x0000
   0516 01 00              2027 	.dw #0x0001
   0518 00 00              2028 	.dw #0x0000
   051A 00 00              2029 	.dw #0x0000
   051C 01 00              2030 	.dw #0x0001
   051E 00 00              2031 	.dw #0x0000
   0520 00 00              2032 	.dw #0x0000
   0522 01 00              2033 	.dw #0x0001
   0524 00 00              2034 	.dw #0x0000
   0526 01 00              2035 	.dw #0x0001
   0528 00 00              2036 	.dw #0x0000
   052A 00 00              2037 	.dw #0x0000
   052C 00 00              2038 	.dw #0x0000
   052E 00 00              2039 	.dw #0x0000
   0530 01 00              2040 	.dw #0x0001
   0532                    2041 _INITIAL_LIVES:
   0532 03 00              2042 	.dw #0x0003
   0534                    2043 _framerate:
   0534 3C 00              2044 	.dw #0x003C
   0536                    2045 _paddle_sprite_left:
   0536 00 00              2046 	.dw #0x0000
   0538                    2047 _paddle_sprite_right:
   0538 01 00              2048 	.dw #0x0001
   053A                    2049 _paddle_speed:
   053A 03 00              2050 	.dw #0x0003
   053C                    2051 _ball_sprite:
   053C 02 00              2052 	.dw #0x0002
   053E                    2053 _ball_speed:
   053E 02 00              2054 	.dw #0x0002
   0540                    2055 _lives_sprite_begin:
   0540 03 00              2056 	.dw #0x0003
                           2057 ;	bustout.c 104
                           2058 ;	genLabel
                           2059 ;	genFunction
                           2060 ;	---------------------------------
                           2061 ; Function render_sad_cody
                           2062 ; ---------------------------------
   0542                    2063 ___render_sad_cody_start:
   0542                    2064 _render_sad_cody:
                           2065 	
                           2066 ;	bustout.c 106
                           2067 ;	genIpush
                           2068 ; _saveRegsForCall: sendSetSize: 0 deInUse: 0 bcInUse: 0 deSending: 0
   0542 21 68 01           2069 	ld	hl,#_codysad_tiledata
   0545 E5                 2070 	push	hl
                           2071 ;	genIpush
   0546 21 00 D1           2072 	ld	hl,#0xD100
   0549 E5                 2073 	push	hl
                           2074 ;	genCall
   054A CD 00 00           2075 	call	_set_bkg_data
   054D E8 04              2076 	lda	sp,4(sp)
                           2077 ;	bustout.c 107
                           2078 ;	genIpush
                           2079 ; _saveRegsForCall: sendSetSize: 0 deInUse: 0 bcInUse: 0 deSending: 0
   054F 21 78 0E           2080 	ld	hl,#_codysad_tilemap
   0552 E5                 2081 	push	hl
                           2082 ;	genIpush
   0553 21 0D 10           2083 	ld	hl,#0x100D
   0556 E5                 2084 	push	hl
                           2085 ;	genIpush
   0557 21 04 00           2086 	ld	hl,#0x0004
   055A E5                 2087 	push	hl
                           2088 ;	genCall
   055B CD 00 00           2089 	call	_set_bkg_tiles
   055E E8 06              2090 	lda	sp,6(sp)
                           2091 ;	bustout.c 110
                           2092 ;	genIpush
                           2093 ; _saveRegsForCall: sendSetSize: 0 deInUse: 0 bcInUse: 0 deSending: 0
   0560 21 39 00           2094 	ld	hl,#_alpha
   0563 E5                 2095 	push	hl
                           2096 ;	genIpush
   0564 21 00 2F           2097 	ld	hl,#0x2F00
   0567 E5                 2098 	push	hl
                           2099 ;	genCall
   0568 CD 00 00           2100 	call	_set_bkg_data
   056B E8 04              2101 	lda	sp,4(sp)
                           2102 ;	bustout.c 117
                           2103 ;	bustout.c 113
                           2104 ;	genIpush
                           2105 ; _saveRegsForCall: sendSetSize: 0 deInUse: 0 bcInUse: 0 deSending: 0
   056D 21 01 10           2106 	ld	hl,#_game_over_message_array
   0570 E5                 2107 	push	hl
                           2108 ;	genIpush
   0571 21 0D 04           2109 	ld	hl,#0x040D
   0574 E5                 2110 	push	hl
                           2111 ;	genIpush
   0575 21 04 00           2112 	ld	hl,#0x0004
   0578 E5                 2113 	push	hl
                           2114 ;	genCall
   0579 CD 00 00           2115 	call	_set_bkg_tiles
   057C E8 06              2116 	lda	sp,6(sp)
                           2117 ;	genLabel
   057E                    2118 00101$:
                           2119 ;	genEndFunction
                           2120 	
   057E C9                 2121 	ret
   057F                    2122 ___render_sad_cody_end:
                           2123 ;	bustout.c 121
                           2124 ;	genLabel
                           2125 ;	genFunction
                           2126 ;	---------------------------------
                           2127 ; Function set_paddle
                           2128 ; ---------------------------------
   057F                    2129 ___set_paddle_start:
   057F                    2130 _set_paddle:
   057F E8 FE              2131 	lda	sp,-2(sp)
                           2132 ;	bustout.c 123
                           2133 ;	genRightShift
                           2134 ;	AOP_HL for _SCREEN_WIDTH
   0581 21 48 0F           2135 	ld	hl,#_SCREEN_WIDTH
   0584 4E                 2136 	ld	c,(hl)
   0585 23                 2137 	inc	hl
   0586 46                 2138 	ld	b,(hl)
   0587 CB 28              2139 	sra	b
   0589 CB 19              2140 	rr	c
                           2141 ;	genCast
                           2142 ;	AOP_HL for _paddle_x
   058B 21 5B 0F           2143 	ld	hl,#_paddle_x
   058E 71                 2144 	ld	(hl),c
                           2145 ;	bustout.c 124
                           2146 ;	genMinus
                           2147 ;	AOP_HL for _SCREEN_HEIGHT
   058F 21 4A 0F           2148 	ld	hl,#_SCREEN_HEIGHT
   0592 4E                 2149 	ld	c,(hl)
   0593 23                 2150 	inc	hl
   0594 46                 2151 	ld	b,(hl)
   0595 0B                 2152 	dec	bc
                           2153 ;	genCast
                           2154 ;	AOP_HL for _paddle_y
   0596 21 5C 0F           2155 	ld	hl,#_paddle_y
   0599 71                 2156 	ld	(hl),c
                           2157 ;	bustout.c 126
                           2158 ;	genIpush
                           2159 ; _saveRegsForCall: sendSetSize: 0 deInUse: 0 bcInUse: 0 deSending: 0
   059A 21 43 03           2160 	ld	hl,#_paddle_sprite_data
   059D E5                 2161 	push	hl
                           2162 ;	genIpush
   059E 21 00 08           2163 	ld	hl,#0x0800
   05A1 E5                 2164 	push	hl
                           2165 ;	genCall
   05A2 CD 00 00           2166 	call	_set_sprite_data
   05A5 E8 04              2167 	lda	sp,4(sp)
                           2168 ;	bustout.c 127
                           2169 ;	genAssign
                           2170 ;	AOP_HL for _paddle_sprite_left
   05A7 21 36 05           2171 	ld	hl,#_paddle_sprite_left
   05AA 4E                 2172 	ld	c,(hl)
   05AB 23                 2173 	inc	hl
   05AC 46                 2174 	ld	b,(hl)
                           2175 ;	genCast
                           2176 ; Removed redundent load
                           2177 ;	genIpush
                           2178 ; _saveRegsForCall: sendSetSize: 0 deInUse: 0 bcInUse: 0 deSending: 0
   05AD 3E 00              2179 	ld	a,#0x00
   05AF F5                 2180 	push	af
   05B0 33                 2181 	inc	sp
                           2182 ;	genIpush
   05B1 79                 2183 	ld	a,c
   05B2 F5                 2184 	push	af
   05B3 33                 2185 	inc	sp
                           2186 ;	genCall
   05B4 CD 00 00           2187 	call	_set_sprite_tile
   05B7 E8 02              2188 	lda	sp,2(sp)
                           2189 ;	bustout.c 128
                           2190 ;	genAssign
                           2191 ;	AOP_HL for _paddle_sprite_right
   05B9 21 38 05           2192 	ld	hl,#_paddle_sprite_right
   05BC 4E                 2193 	ld	c,(hl)
   05BD 23                 2194 	inc	hl
   05BE 46                 2195 	ld	b,(hl)
                           2196 ;	genCast
                           2197 ; Removed redundent load
                           2198 ;	genIpush
                           2199 ; _saveRegsForCall: sendSetSize: 0 deInUse: 0 bcInUse: 0 deSending: 0
   05BF 3E 02              2200 	ld	a,#0x02
   05C1 F5                 2201 	push	af
   05C2 33                 2202 	inc	sp
                           2203 ;	genIpush
   05C3 79                 2204 	ld	a,c
   05C4 F5                 2205 	push	af
   05C5 33                 2206 	inc	sp
                           2207 ;	genCall
   05C6 CD 00 00           2208 	call	_set_sprite_tile
   05C9 E8 02              2209 	lda	sp,2(sp)
                           2210 ;	bustout.c 129
                           2211 ;	genAssign
                           2212 ;	AOP_HL for _paddle_sprite_left
   05CB 21 36 05           2213 	ld	hl,#_paddle_sprite_left
   05CE 4E                 2214 	ld	c,(hl)
   05CF 23                 2215 	inc	hl
   05D0 46                 2216 	ld	b,(hl)
                           2217 ;	genCast
                           2218 ; Removed redundent load
                           2219 ;	genIpush
                           2220 ; _saveRegsForCall: sendSetSize: 0 deInUse: 0 bcInUse: 0 deSending: 0
                           2221 ;	AOP_HL for _paddle_y
   05D1 21 5C 0F           2222 	ld	hl,#_paddle_y
   05D4 7E                 2223 	ld	a,(hl)
   05D5 F5                 2224 	push	af
   05D6 33                 2225 	inc	sp
                           2226 ;	genIpush
                           2227 ;	AOP_HL for _paddle_x
   05D7 21 5B 0F           2228 	ld	hl,#_paddle_x
   05DA 7E                 2229 	ld	a,(hl)
   05DB F5                 2230 	push	af
   05DC 33                 2231 	inc	sp
                           2232 ;	genIpush
   05DD 79                 2233 	ld	a,c
   05DE F5                 2234 	push	af
   05DF 33                 2235 	inc	sp
                           2236 ;	genCall
   05E0 CD 00 00           2237 	call	_move_sprite
   05E3 E8 03              2238 	lda	sp,3(sp)
                           2239 ;	bustout.c 130
                           2240 ;	genPlus
                           2241 ;	AOP_HL for _paddle_x
                           2242 ;	genPlusIncr
                           2243 ;	Can't optimise plus by inc, falling back to the normal way
   05E5 21 5B 0F           2244 	ld	hl,#_paddle_x
   05E8 7E                 2245 	ld	a,(hl)
   05E9 C6 08              2246 	add	a,#0x08
   05EB 4F                 2247 	ld	c,a
                           2248 ;	genAssign
                           2249 ;	AOP_HL for _paddle_sprite_right
                           2250 ;	AOP_STK for _set_paddle_sloc0_1_0
   05EC 21 38 05           2251 	ld	hl,#_paddle_sprite_right
   05EF 2A                 2252 	ld	a,(hl+)
   05F0 5E                 2253 	ld	e,(hl)
   05F1 F8 00              2254 	lda	hl,0(sp)
   05F3 22                 2255 	ld	(hl+),a
   05F4 73                 2256 	ld	(hl),e
                           2257 ;	genCast
                           2258 ;	AOP_STK for _set_paddle_sloc0_1_0
   05F5 2B                 2259 	dec	hl
   05F6 46                 2260 	ld	b,(hl)
                           2261 ;	genIpush
                           2262 ; _saveRegsForCall: sendSetSize: 0 deInUse: 0 bcInUse: 0 deSending: 0
                           2263 ;	AOP_HL for _paddle_y
   05F7 21 5C 0F           2264 	ld	hl,#_paddle_y
   05FA 7E                 2265 	ld	a,(hl)
   05FB F5                 2266 	push	af
   05FC 33                 2267 	inc	sp
                           2268 ;	genIpush
   05FD 79                 2269 	ld	a,c
   05FE F5                 2270 	push	af
   05FF 33                 2271 	inc	sp
                           2272 ;	genIpush
   0600 78                 2273 	ld	a,b
   0601 F5                 2274 	push	af
   0602 33                 2275 	inc	sp
                           2276 ;	genCall
   0603 CD 00 00           2277 	call	_move_sprite
   0606 E8 03              2278 	lda	sp,3(sp)
                           2279 ;	genLabel
   0608                    2280 00101$:
                           2281 ;	genEndFunction
   0608 E8 02              2282 	lda	sp,2(sp)
   060A C9                 2283 	ret
   060B                    2284 ___set_paddle_end:
                           2285 ;	bustout.c 133
                           2286 ;	genLabel
                           2287 ;	genFunction
                           2288 ;	---------------------------------
                           2289 ; Function set_ball
                           2290 ; ---------------------------------
   060B                    2291 ___set_ball_start:
   060B                    2292 _set_ball:
   060B E8 FE              2293 	lda	sp,-2(sp)
                           2294 ;	bustout.c 135
                           2295 ;	genRightShift
                           2296 ;	AOP_HL for _SCREEN_WIDTH
   060D 21 48 0F           2297 	ld	hl,#_SCREEN_WIDTH
   0610 4E                 2298 	ld	c,(hl)
   0611 23                 2299 	inc	hl
   0612 46                 2300 	ld	b,(hl)
   0613 CB 28              2301 	sra	b
   0615 CB 19              2302 	rr	c
                           2303 ;	genRightShift
                           2304 ;	AOP_HL for _BALL_SIZE
                           2305 ;	AOP_STK for _set_ball_sloc0_1_0
   0617 21 4E 0F           2306 	ld	hl,#_BALL_SIZE
   061A 7E                 2307 	ld	a,(hl)
   061B F8 00              2308 	lda	hl,0(sp)
   061D 77                 2309 	ld	(hl),a
   061E 21 4F 0F           2310 	ld	hl,#_BALL_SIZE + 1
   0621 7E                 2311 	ld	a,(hl)
   0622 F8 01              2312 	lda	hl,1(sp)
   0624 77                 2313 	ld	(hl),a
   0625 CB 2E              2314 	sra	(hl)
   0627 2B                 2315 	dec	hl
   0628 CB 1E              2316 	rr	(hl)
                           2317 ;	genPlus
                           2318 ;	AOP_STK for _set_ball_sloc0_1_0
                           2319 ;	Can't optimise plus by inc, falling back to the normal way
   062A 2A                 2320 	ld	a,(hl+)
   062B 66                 2321 	ld	h,(hl)
   062C 6F                 2322 	ld	l,a
   062D 09                 2323 	add	hl,bc
   062E 4D                 2324 	ld	c,l
   062F 44                 2325 	ld	b,h
                           2326 ;	genCast
                           2327 ;	AOP_HL for _ball_x
   0630 21 5F 0F           2328 	ld	hl,#_ball_x
   0633 71                 2329 	ld	(hl),c
                           2330 ;	bustout.c 136
                           2331 ;	genMinus
                           2332 ;	AOP_HL for _SCREEN_HEIGHT
   0634 21 4A 0F           2333 	ld	hl,#_SCREEN_HEIGHT
   0637 7E                 2334 	ld	a,(hl)
   0638 C6 FB              2335 	add	a,#0xFB
   063A 4F                 2336 	ld	c,a
   063B 23                 2337 	inc	hl
   063C 7E                 2338 	ld	a,(hl)
   063D CE FF              2339 	adc	a,#0xFF
   063F 47                 2340 	ld	b,a
                           2341 ;	genCast
                           2342 ;	AOP_HL for _ball_y
   0640 21 60 0F           2343 	ld	hl,#_ball_y
   0643 71                 2344 	ld	(hl),c
                           2345 ;	bustout.c 138
                           2346 ;	genIpush
                           2347 ; _saveRegsForCall: sendSetSize: 0 deInUse: 0 bcInUse: 0 deSending: 0
   0644 21 83 03           2348 	ld	hl,#_small_ball_sprite_data
   0647 E5                 2349 	push	hl
                           2350 ;	genIpush
   0648 21 08 08           2351 	ld	hl,#0x0808
   064B E5                 2352 	push	hl
                           2353 ;	genCall
   064C CD 00 00           2354 	call	_set_sprite_data
   064F E8 04              2355 	lda	sp,4(sp)
                           2356 ;	bustout.c 139
                           2357 ;	genAssign
                           2358 ;	AOP_HL for _ball_sprite
   0651 21 3C 05           2359 	ld	hl,#_ball_sprite
   0654 4E                 2360 	ld	c,(hl)
   0655 23                 2361 	inc	hl
   0656 46                 2362 	ld	b,(hl)
                           2363 ;	genCast
                           2364 ; Removed redundent load
                           2365 ;	genIpush
                           2366 ; _saveRegsForCall: sendSetSize: 0 deInUse: 0 bcInUse: 0 deSending: 0
   0657 3E 08              2367 	ld	a,#0x08
   0659 F5                 2368 	push	af
   065A 33                 2369 	inc	sp
                           2370 ;	genIpush
   065B 79                 2371 	ld	a,c
   065C F5                 2372 	push	af
   065D 33                 2373 	inc	sp
                           2374 ;	genCall
   065E CD 00 00           2375 	call	_set_sprite_tile
   0661 E8 02              2376 	lda	sp,2(sp)
                           2377 ;	bustout.c 140
                           2378 ;	genAssign
                           2379 ;	AOP_HL for _ball_sprite
   0663 21 3C 05           2380 	ld	hl,#_ball_sprite
   0666 4E                 2381 	ld	c,(hl)
   0667 23                 2382 	inc	hl
   0668 46                 2383 	ld	b,(hl)
                           2384 ;	genCast
                           2385 ; Removed redundent load
                           2386 ;	genIpush
                           2387 ; _saveRegsForCall: sendSetSize: 0 deInUse: 0 bcInUse: 0 deSending: 0
                           2388 ;	AOP_HL for _ball_y
   0669 21 60 0F           2389 	ld	hl,#_ball_y
   066C 7E                 2390 	ld	a,(hl)
   066D F5                 2391 	push	af
   066E 33                 2392 	inc	sp
                           2393 ;	genIpush
                           2394 ;	AOP_HL for _ball_x
   066F 21 5F 0F           2395 	ld	hl,#_ball_x
   0672 7E                 2396 	ld	a,(hl)
   0673 F5                 2397 	push	af
   0674 33                 2398 	inc	sp
                           2399 ;	genIpush
   0675 79                 2400 	ld	a,c
   0676 F5                 2401 	push	af
   0677 33                 2402 	inc	sp
                           2403 ;	genCall
   0678 CD 00 00           2404 	call	_move_sprite
   067B E8 03              2405 	lda	sp,3(sp)
                           2406 ;	bustout.c 143
                           2407 ;	genIfx
                           2408 ;	AOP_STK for 
   067D F8 04              2409 	lda	hl,4(sp)
   067F 2A                 2410 	ld	a,(hl+)
   0680 B6                 2411 	or	a,(hl)
   0681 CA 91 06           2412 	jp	z,00102$
                           2413 ;	bustout.c 144
                           2414 ;	genAssign
                           2415 ;	AOP_HL for _ball_vel_y
   0684 21 62 0F           2416 	ld	hl,#_ball_vel_y
   0687 36 FF              2417 	ld	(hl),#0xFF
                           2418 ;	bustout.c 145
                           2419 ;	genAssign
                           2420 ;	AOP_HL for _ball_vel_x
   0689 21 61 0F           2421 	ld	hl,#_ball_vel_x
   068C 36 01              2422 	ld	(hl),#0x01
                           2423 ;	genGoto
   068E C3 9B 06           2424 	jp	00104$
                           2425 ;	genLabel
   0691                    2426 00102$:
                           2427 ;	bustout.c 147
                           2428 ;	genAssign
                           2429 ;	AOP_HL for _ball_vel_x
   0691 21 61 0F           2430 	ld	hl,#_ball_vel_x
   0694 36 00              2431 	ld	(hl),#0x00
                           2432 ;	bustout.c 148
                           2433 ;	genAssign
                           2434 ;	AOP_HL for _ball_vel_y
   0696 21 62 0F           2435 	ld	hl,#_ball_vel_y
   0699 36 00              2436 	ld	(hl),#0x00
                           2437 ;	genLabel
   069B                    2438 00104$:
                           2439 ;	genEndFunction
   069B E8 02              2440 	lda	sp,2(sp)
   069D C9                 2441 	ret
   069E                    2442 ___set_ball_end:
                           2443 ;	bustout.c 152
                           2444 ;	genLabel
                           2445 ;	genFunction
                           2446 ;	---------------------------------
                           2447 ; Function set_lives
                           2448 ; ---------------------------------
   069E                    2449 ___set_lives_start:
   069E                    2450 _set_lives:
   069E E8 F1              2451 	lda	sp,-15(sp)
                           2452 ;	bustout.c 155
                           2453 ;	genAssign
                           2454 ;	AOP_HL for _lives_sprite_begin
   06A0 21 40 05           2455 	ld	hl,#_lives_sprite_begin
   06A3 4E                 2456 	ld	c,(hl)
   06A4 23                 2457 	inc	hl
   06A5 46                 2458 	ld	b,(hl)
                           2459 ;	genAssign
                           2460 ;	AOP_STK for _set_lives_sp_1_1
   06A6 F8 03              2461 	lda	hl,3(sp)
   06A8 71                 2462 	ld	(hl),c
   06A9 23                 2463 	inc	hl
   06AA 70                 2464 	ld	(hl),b
                           2465 ;	bustout.c 157
                           2466 ;	genIpush
                           2467 ; _saveRegsForCall: sendSetSize: 0 deInUse: 0 bcInUse: 0 deSending: 0
   06AB 21 C3 03           2468 	ld	hl,#_smile_sprite_data
   06AE E5                 2469 	push	hl
                           2470 ;	genIpush
   06AF 21 10 08           2471 	ld	hl,#0x0810
   06B2 E5                 2472 	push	hl
                           2473 ;	genCall
   06B3 CD 00 00           2474 	call	_set_sprite_data
   06B6 E8 04              2475 	lda	sp,4(sp)
                           2476 ;	bustout.c 158
                           2477 ;	genIpush
                           2478 ; _saveRegsForCall: sendSetSize: 0 deInUse: 0 bcInUse: 0 deSending: 0
   06B8 21 03 04           2479 	ld	hl,#_death_sprite_data
   06BB E5                 2480 	push	hl
                           2481 ;	genIpush
   06BC 21 18 08           2482 	ld	hl,#0x0818
   06BF E5                 2483 	push	hl
                           2484 ;	genCall
   06C0 CD 00 00           2485 	call	_set_sprite_data
   06C3 E8 04              2486 	lda	sp,4(sp)
                           2487 ;	bustout.c 160
                           2488 ;	genAssign
                           2489 ;	AOP_STK for _set_lives_i_1_1
   06C5 F8 0D              2490 	lda	hl,13(sp)
   06C7 36 00              2491 	ld	(hl),#0x00
   06C9 23                 2492 	inc	hl
   06CA 36 00              2493 	ld	(hl),#0x00
                           2494 ;	genLabel
   06CC                    2495 00101$:
                           2496 ;	genCmpLt
                           2497 ;	AOP_STK for _set_lives_i_1_1
                           2498 ;	AOP_HL for _lives
   06CC F8 0E              2499 	lda	hl,14(sp)
   06CE 7E                 2500 	ld	a,(hl)
   06CF EE 80              2501 	xor	a,#0x80
   06D1 5F                 2502 	ld	e,a
   06D2 21 52 0F           2503 	ld	hl,#_lives + 1
   06D5 7E                 2504 	ld	a,(hl)
   06D6 EE 80              2505 	xor	a,#0x80
   06D8 57                 2506 	ld	d,a
   06D9 F8 0D              2507 	lda	hl,13(sp)
   06DB 7E                 2508 	ld	a,(hl)
   06DC 21 51 0F           2509 	ld	hl,#_lives
   06DF 96                 2510 	sub	a,(hl)
   06E0 7B                 2511 	ld	a,e
   06E1 9A                 2512 	sbc	a,d
   06E2 D2 9C 07           2513 	jp	nc,00104$
                           2514 ;	bustout.c 161
                           2515 ;	genLeftShift
                           2516 ;	AOP_STK for _set_lives_i_1_1
                           2517 ;	AOP_STK for _set_lives_offset_1_1
   06E5 F8 0D              2518 	lda	hl,13(sp)
   06E7 7E                 2519 	ld	a,(hl)
   06E8 F8 05              2520 	lda	hl,5(sp)
   06EA 77                 2521 	ld	(hl),a
   06EB F8 0E              2522 	lda	hl,14(sp)
   06ED 7E                 2523 	ld	a,(hl)
   06EE F8 06              2524 	lda	hl,6(sp)
   06F0 77                 2525 	ld	(hl),a
   06F1 3E 05              2526 	ld	a,#0x04+1
   06F3 18 07              2527 	jr	00116$
   06F5                    2528 00115$:
   06F5 F8 05              2529 	lda	hl,5(sp)
   06F7 CB 26              2530 	sla	(hl)
   06F9 23                 2531 	inc	hl
   06FA CB 16              2532 	rl	(hl)
   06FC                    2533 00116$:
   06FC 3D                 2534 	dec	a
   06FD 20 F6              2535 	jr	nz,00115$
                           2536 ;	bustout.c 162
                           2537 ;	genAssign
                           2538 ;	AOP_STK for _set_lives_sp_1_1
                           2539 ;	AOP_STK for _set_lives_sloc0_1_0
   06FF F8 03              2540 	lda	hl,3(sp)
   0701 2A                 2541 	ld	a,(hl+)
   0702 5E                 2542 	ld	e,(hl)
   0703 F8 01              2543 	lda	hl,1(sp)
   0705 22                 2544 	ld	(hl+),a
   0706 73                 2545 	ld	(hl),e
                           2546 ;	genPlus
                           2547 ;	AOP_STK for _set_lives_sp_1_1
                           2548 ;	genPlusIncr
   0707 23                 2549 	inc	hl
   0708 34                 2550 	inc	(hl)
   0709 20 02              2551 	jr	nz,00117$
   070B 23                 2552 	inc	hl
   070C 34                 2553 	inc	(hl)
   070D                    2554 00117$:
                           2555 ;	genAssign
                           2556 ;	AOP_STK for _set_lives_sloc0_1_0
                           2557 ;	AOP_STK for _set_lives_a_1_1
   070D F8 01              2558 	lda	hl,1(sp)
   070F 2A                 2559 	ld	a,(hl+)
   0710 5E                 2560 	ld	e,(hl)
   0711 F8 09              2561 	lda	hl,9(sp)
   0713 22                 2562 	ld	(hl+),a
   0714 73                 2563 	ld	(hl),e
                           2564 ;	bustout.c 163
                           2565 ;	genAssign
                           2566 ;	AOP_STK for _set_lives_sp_1_1
                           2567 ;	AOP_STK for _set_lives_sloc0_1_0
   0715 F8 03              2568 	lda	hl,3(sp)
   0717 2A                 2569 	ld	a,(hl+)
   0718 5E                 2570 	ld	e,(hl)
   0719 F8 01              2571 	lda	hl,1(sp)
   071B 22                 2572 	ld	(hl+),a
   071C 73                 2573 	ld	(hl),e
                           2574 ;	genPlus
                           2575 ;	AOP_STK for _set_lives_sp_1_1
                           2576 ;	genPlusIncr
   071D 23                 2577 	inc	hl
   071E 34                 2578 	inc	(hl)
   071F 20 02              2579 	jr	nz,00118$
   0721 23                 2580 	inc	hl
   0722 34                 2581 	inc	(hl)
   0723                    2582 00118$:
                           2583 ;	genAssign
                           2584 ;	AOP_STK for _set_lives_sloc0_1_0
                           2585 ;	AOP_STK for _set_lives_b_1_1
   0723 F8 01              2586 	lda	hl,1(sp)
   0725 2A                 2587 	ld	a,(hl+)
   0726 5E                 2588 	ld	e,(hl)
   0727 F8 07              2589 	lda	hl,7(sp)
   0729 22                 2590 	ld	(hl+),a
   072A 73                 2591 	ld	(hl),e
                           2592 ;	bustout.c 165
                           2593 ;	genCast
                           2594 ;	AOP_STK for _set_lives_a_1_1
   072B 23                 2595 	inc	hl
   072C 4E                 2596 	ld	c,(hl)
                           2597 ;	genIpush
                           2598 ; _saveRegsForCall: sendSetSize: 0 deInUse: 0 bcInUse: 1 deSending: 0
   072D C5                 2599 	push	bc
   072E 3E 10              2600 	ld	a,#0x10
   0730 F5                 2601 	push	af
   0731 33                 2602 	inc	sp
                           2603 ;	genIpush
   0732 79                 2604 	ld	a,c
   0733 F5                 2605 	push	af
   0734 33                 2606 	inc	sp
                           2607 ;	genCall
   0735 CD 00 00           2608 	call	_set_sprite_tile
   0738 E8 02              2609 	lda	sp,2(sp)
   073A E1                 2610 	pop	hl
   073B 4D                 2611 	ld	c,l
                           2612 ;	bustout.c 166
                           2613 ;	genCast
                           2614 ;	AOP_STK for _set_lives_b_1_1
   073C F8 07              2615 	lda	hl,7(sp)
   073E 46                 2616 	ld	b,(hl)
                           2617 ;	genIpush
                           2618 ; _saveRegsForCall: sendSetSize: 0 deInUse: 0 bcInUse: 1 deSending: 0
   073F C5                 2619 	push	bc
   0740 3E 12              2620 	ld	a,#0x12
   0742 F5                 2621 	push	af
   0743 33                 2622 	inc	sp
                           2623 ;	genIpush
   0744 78                 2624 	ld	a,b
   0745 F5                 2625 	push	af
   0746 33                 2626 	inc	sp
                           2627 ;	genCall
   0747 CD 00 00           2628 	call	_set_sprite_tile
   074A E8 02              2629 	lda	sp,2(sp)
   074C C1                 2630 	pop	bc
                           2631 ;	bustout.c 167
                           2632 ;	genPlus
                           2633 ;	AOP_STK for _set_lives_offset_1_1
                           2634 ;	AOP_STK for _set_lives_sloc0_1_0
                           2635 ;	genPlusIncr
                           2636 ;	Can't optimise plus by inc, falling back to the normal way
   074D F8 05              2637 	lda	hl,5(sp)
   074F 5E                 2638 	ld	e,(hl)
   0750 23                 2639 	inc	hl
   0751 56                 2640 	ld	d,(hl)
   0752 21 08 00           2641 	ld	hl,#0x0008
   0755 19                 2642 	add	hl,de
   0756 7D                 2643 	ld	a,l
   0757 54                 2644 	ld	d,h
   0758 F8 01              2645 	lda	hl,1(sp)
   075A 22                 2646 	ld	(hl+),a
   075B 72                 2647 	ld	(hl),d
                           2648 ;	genCast
                           2649 ;	AOP_STK for _set_lives_sloc0_1_0
                           2650 ;	AOP_STK for _set_lives_sloc1_1_0
   075C 2B                 2651 	dec	hl
   075D 7E                 2652 	ld	a,(hl)
   075E 2B                 2653 	dec	hl
   075F 77                 2654 	ld	(hl),a
                           2655 ;	genIpush
                           2656 ; _saveRegsForCall: sendSetSize: 0 deInUse: 0 bcInUse: 1 deSending: 0
   0760 C5                 2657 	push	bc
   0761 3E 10              2658 	ld	a,#0x10
   0763 F5                 2659 	push	af
   0764 33                 2660 	inc	sp
                           2661 ;	genIpush
                           2662 ;	AOP_STK for _set_lives_sloc1_1_0
   0765 7E                 2663 	ld	a,(hl)
   0766 F5                 2664 	push	af
   0767 33                 2665 	inc	sp
                           2666 ;	genIpush
   0768 79                 2667 	ld	a,c
   0769 F5                 2668 	push	af
   076A 33                 2669 	inc	sp
                           2670 ;	genCall
   076B CD 00 00           2671 	call	_move_sprite
   076E E8 03              2672 	lda	sp,3(sp)
   0770 E1                 2673 	pop	hl
   0771 44                 2674 	ld	b,h
                           2675 ;	bustout.c 168
                           2676 ;	genPlus
                           2677 ;	AOP_STK for _set_lives_offset_1_1
                           2678 ;	AOP_STK for _set_lives_sloc0_1_0
                           2679 ;	genPlusIncr
                           2680 ;	Can't optimise plus by inc, falling back to the normal way
   0772 F8 05              2681 	lda	hl,5(sp)
   0774 5E                 2682 	ld	e,(hl)
   0775 23                 2683 	inc	hl
   0776 56                 2684 	ld	d,(hl)
   0777 21 10 00           2685 	ld	hl,#0x0010
   077A 19                 2686 	add	hl,de
   077B 7D                 2687 	ld	a,l
   077C 54                 2688 	ld	d,h
   077D F8 01              2689 	lda	hl,1(sp)
   077F 22                 2690 	ld	(hl+),a
   0780 72                 2691 	ld	(hl),d
                           2692 ;	genCast
                           2693 ;	AOP_STK for _set_lives_sloc0_1_0
   0781 2B                 2694 	dec	hl
   0782 4E                 2695 	ld	c,(hl)
                           2696 ;	genIpush
                           2697 ; _saveRegsForCall: sendSetSize: 0 deInUse: 0 bcInUse: 0 deSending: 0
   0783 3E 10              2698 	ld	a,#0x10
   0785 F5                 2699 	push	af
   0786 33                 2700 	inc	sp
                           2701 ;	genIpush
   0787 79                 2702 	ld	a,c
   0788 F5                 2703 	push	af
   0789 33                 2704 	inc	sp
                           2705 ;	genIpush
   078A 78                 2706 	ld	a,b
   078B F5                 2707 	push	af
   078C 33                 2708 	inc	sp
                           2709 ;	genCall
   078D CD 00 00           2710 	call	_move_sprite
   0790 E8 03              2711 	lda	sp,3(sp)
                           2712 ;	bustout.c 160
                           2713 ;	genPlus
                           2714 ;	AOP_STK for _set_lives_i_1_1
                           2715 ;	genPlusIncr
   0792 F8 0D              2716 	lda	hl,13(sp)
   0794 34                 2717 	inc	(hl)
   0795 20 02              2718 	jr	nz,00119$
   0797 23                 2719 	inc	hl
   0798 34                 2720 	inc	(hl)
   0799                    2721 00119$:
                           2722 ;	genGoto
   0799 C3 CC 06           2723 	jp	00101$
                           2724 ;	genLabel
   079C                    2725 00104$:
                           2726 ;	bustout.c 171
                           2727 ;	genAssign
                           2728 ;	AOP_HL for _lives
                           2729 ;	AOP_STK for _set_lives_j_1_1
   079C 21 51 0F           2730 	ld	hl,#_lives
   079F 2A                 2731 	ld	a,(hl+)
   07A0 5E                 2732 	ld	e,(hl)
   07A1 F8 0B              2733 	lda	hl,11(sp)
   07A3 22                 2734 	ld	(hl+),a
   07A4 73                 2735 	ld	(hl),e
                           2736 ;	genLabel
   07A5                    2737 00105$:
                           2738 ;	genAssign
                           2739 ;	AOP_HL for _INITIAL_LIVES
   07A5 21 32 05           2740 	ld	hl,#_INITIAL_LIVES
   07A8 4E                 2741 	ld	c,(hl)
   07A9 23                 2742 	inc	hl
   07AA 46                 2743 	ld	b,(hl)
                           2744 ;	genCmpLt
                           2745 ;	AOP_STK for _set_lives_j_1_1
   07AB F8 0C              2746 	lda	hl,12(sp)
   07AD 7E                 2747 	ld	a,(hl)
   07AE EE 80              2748 	xor	a,#0x80
   07B0 5F                 2749 	ld	e,a
   07B1 78                 2750 	ld	a,b
   07B2 EE 80              2751 	xor	a,#0x80
   07B4 57                 2752 	ld	d,a
   07B5 2B                 2753 	dec	hl
   07B6 7E                 2754 	ld	a,(hl)
   07B7 91                 2755 	sub	a,c
   07B8 7B                 2756 	ld	a,e
   07B9 9A                 2757 	sbc	a,d
   07BA D2 66 08           2758 	jp	nc,00109$
                           2759 ;	bustout.c 172
                           2760 ;	genLeftShift
                           2761 ;	AOP_STK for _set_lives_j_1_1
                           2762 ;	AOP_STK for _set_lives_offset_1_1
   07BD 7E                 2763 	ld	a,(hl)
   07BE F8 05              2764 	lda	hl,5(sp)
   07C0 77                 2765 	ld	(hl),a
   07C1 F8 0C              2766 	lda	hl,12(sp)
   07C3 7E                 2767 	ld	a,(hl)
   07C4 F8 06              2768 	lda	hl,6(sp)
   07C6 77                 2769 	ld	(hl),a
   07C7 3E 05              2770 	ld	a,#0x04+1
   07C9 18 07              2771 	jr	00121$
   07CB                    2772 00120$:
   07CB F8 05              2773 	lda	hl,5(sp)
   07CD CB 26              2774 	sla	(hl)
   07CF 23                 2775 	inc	hl
   07D0 CB 16              2776 	rl	(hl)
   07D2                    2777 00121$:
   07D2 3D                 2778 	dec	a
   07D3 20 F6              2779 	jr	nz,00120$
                           2780 ;	bustout.c 173
                           2781 ;	genAssign
                           2782 ;	AOP_STK for _set_lives_sp_1_1
   07D5 F8 03              2783 	lda	hl,3(sp)
   07D7 4E                 2784 	ld	c,(hl)
   07D8 23                 2785 	inc	hl
   07D9 46                 2786 	ld	b,(hl)
                           2787 ;	genPlus
                           2788 ;	AOP_STK for _set_lives_sp_1_1
                           2789 ;	genPlusIncr
   07DA 2B                 2790 	dec	hl
   07DB 34                 2791 	inc	(hl)
   07DC 20 02              2792 	jr	nz,00122$
   07DE 23                 2793 	inc	hl
   07DF 34                 2794 	inc	(hl)
   07E0                    2795 00122$:
                           2796 ;	genAssign
                           2797 ;	AOP_STK for _set_lives_a_1_1
   07E0 F8 09              2798 	lda	hl,9(sp)
   07E2 71                 2799 	ld	(hl),c
   07E3 23                 2800 	inc	hl
   07E4 70                 2801 	ld	(hl),b
                           2802 ;	bustout.c 174
                           2803 ;	genAssign
                           2804 ;	AOP_STK for _set_lives_sp_1_1
   07E5 F8 03              2805 	lda	hl,3(sp)
   07E7 4E                 2806 	ld	c,(hl)
   07E8 23                 2807 	inc	hl
   07E9 46                 2808 	ld	b,(hl)
                           2809 ;	genPlus
                           2810 ;	AOP_STK for _set_lives_sp_1_1
                           2811 ;	genPlusIncr
   07EA 2B                 2812 	dec	hl
   07EB 34                 2813 	inc	(hl)
   07EC 20 02              2814 	jr	nz,00123$
   07EE 23                 2815 	inc	hl
   07EF 34                 2816 	inc	(hl)
   07F0                    2817 00123$:
                           2818 ;	genAssign
                           2819 ;	AOP_STK for _set_lives_b_1_1
   07F0 F8 07              2820 	lda	hl,7(sp)
   07F2 71                 2821 	ld	(hl),c
   07F3 23                 2822 	inc	hl
   07F4 70                 2823 	ld	(hl),b
                           2824 ;	bustout.c 176
                           2825 ;	genCast
                           2826 ;	AOP_STK for _set_lives_a_1_1
   07F5 23                 2827 	inc	hl
   07F6 4E                 2828 	ld	c,(hl)
                           2829 ;	genIpush
                           2830 ; _saveRegsForCall: sendSetSize: 0 deInUse: 0 bcInUse: 1 deSending: 0
   07F7 C5                 2831 	push	bc
   07F8 3E 18              2832 	ld	a,#0x18
   07FA F5                 2833 	push	af
   07FB 33                 2834 	inc	sp
                           2835 ;	genIpush
   07FC 79                 2836 	ld	a,c
   07FD F5                 2837 	push	af
   07FE 33                 2838 	inc	sp
                           2839 ;	genCall
   07FF CD 00 00           2840 	call	_set_sprite_tile
   0802 E8 02              2841 	lda	sp,2(sp)
   0804 E1                 2842 	pop	hl
   0805 4D                 2843 	ld	c,l
                           2844 ;	bustout.c 177
                           2845 ;	genCast
                           2846 ;	AOP_STK for _set_lives_b_1_1
   0806 F8 07              2847 	lda	hl,7(sp)
   0808 46                 2848 	ld	b,(hl)
                           2849 ;	genIpush
                           2850 ; _saveRegsForCall: sendSetSize: 0 deInUse: 0 bcInUse: 1 deSending: 0
   0809 C5                 2851 	push	bc
   080A 3E 1A              2852 	ld	a,#0x1A
   080C F5                 2853 	push	af
   080D 33                 2854 	inc	sp
                           2855 ;	genIpush
   080E 78                 2856 	ld	a,b
   080F F5                 2857 	push	af
   0810 33                 2858 	inc	sp
                           2859 ;	genCall
   0811 CD 00 00           2860 	call	_set_sprite_tile
   0814 E8 02              2861 	lda	sp,2(sp)
   0816 C1                 2862 	pop	bc
                           2863 ;	bustout.c 178
                           2864 ;	genPlus
                           2865 ;	AOP_STK for _set_lives_offset_1_1
                           2866 ;	AOP_STK for _set_lives_sloc0_1_0
                           2867 ;	genPlusIncr
                           2868 ;	Can't optimise plus by inc, falling back to the normal way
   0817 F8 05              2869 	lda	hl,5(sp)
   0819 5E                 2870 	ld	e,(hl)
   081A 23                 2871 	inc	hl
   081B 56                 2872 	ld	d,(hl)
   081C 21 08 00           2873 	ld	hl,#0x0008
   081F 19                 2874 	add	hl,de
   0820 7D                 2875 	ld	a,l
   0821 54                 2876 	ld	d,h
   0822 F8 01              2877 	lda	hl,1(sp)
   0824 22                 2878 	ld	(hl+),a
   0825 72                 2879 	ld	(hl),d
                           2880 ;	genCast
                           2881 ;	AOP_STK for _set_lives_sloc0_1_0
                           2882 ;	AOP_STK for _set_lives_sloc1_1_0
   0826 2B                 2883 	dec	hl
   0827 7E                 2884 	ld	a,(hl)
   0828 2B                 2885 	dec	hl
   0829 77                 2886 	ld	(hl),a
                           2887 ;	genIpush
                           2888 ; _saveRegsForCall: sendSetSize: 0 deInUse: 0 bcInUse: 1 deSending: 0
   082A C5                 2889 	push	bc
   082B 3E 10              2890 	ld	a,#0x10
   082D F5                 2891 	push	af
   082E 33                 2892 	inc	sp
                           2893 ;	genIpush
                           2894 ;	AOP_STK for _set_lives_sloc1_1_0
   082F 7E                 2895 	ld	a,(hl)
   0830 F5                 2896 	push	af
   0831 33                 2897 	inc	sp
                           2898 ;	genIpush
   0832 79                 2899 	ld	a,c
   0833 F5                 2900 	push	af
   0834 33                 2901 	inc	sp
                           2902 ;	genCall
   0835 CD 00 00           2903 	call	_move_sprite
   0838 E8 03              2904 	lda	sp,3(sp)
   083A E1                 2905 	pop	hl
   083B 44                 2906 	ld	b,h
                           2907 ;	bustout.c 179
                           2908 ;	genPlus
                           2909 ;	AOP_STK for _set_lives_offset_1_1
                           2910 ;	AOP_STK for _set_lives_sloc0_1_0
                           2911 ;	genPlusIncr
                           2912 ;	Can't optimise plus by inc, falling back to the normal way
   083C F8 05              2913 	lda	hl,5(sp)
   083E 5E                 2914 	ld	e,(hl)
   083F 23                 2915 	inc	hl
   0840 56                 2916 	ld	d,(hl)
   0841 21 10 00           2917 	ld	hl,#0x0010
   0844 19                 2918 	add	hl,de
   0845 7D                 2919 	ld	a,l
   0846 54                 2920 	ld	d,h
   0847 F8 01              2921 	lda	hl,1(sp)
   0849 22                 2922 	ld	(hl+),a
   084A 72                 2923 	ld	(hl),d
                           2924 ;	genCast
                           2925 ;	AOP_STK for _set_lives_sloc0_1_0
   084B 2B                 2926 	dec	hl
   084C 4E                 2927 	ld	c,(hl)
                           2928 ;	genIpush
                           2929 ; _saveRegsForCall: sendSetSize: 0 deInUse: 0 bcInUse: 0 deSending: 0
   084D 3E 10              2930 	ld	a,#0x10
   084F F5                 2931 	push	af
   0850 33                 2932 	inc	sp
                           2933 ;	genIpush
   0851 79                 2934 	ld	a,c
   0852 F5                 2935 	push	af
   0853 33                 2936 	inc	sp
                           2937 ;	genIpush
   0854 78                 2938 	ld	a,b
   0855 F5                 2939 	push	af
   0856 33                 2940 	inc	sp
                           2941 ;	genCall
   0857 CD 00 00           2942 	call	_move_sprite
   085A E8 03              2943 	lda	sp,3(sp)
                           2944 ;	bustout.c 171
                           2945 ;	genPlus
                           2946 ;	AOP_STK for _set_lives_j_1_1
                           2947 ;	genPlusIncr
   085C F8 0B              2948 	lda	hl,11(sp)
   085E 34                 2949 	inc	(hl)
   085F 20 02              2950 	jr	nz,00124$
   0861 23                 2951 	inc	hl
   0862 34                 2952 	inc	(hl)
   0863                    2953 00124$:
                           2954 ;	genGoto
   0863 C3 A5 07           2955 	jp	00105$
                           2956 ;	genLabel
   0866                    2957 00109$:
                           2958 ;	genEndFunction
   0866 E8 0F              2959 	lda	sp,15(sp)
   0868 C9                 2960 	ret
   0869                    2961 ___set_lives_end:
                           2962 ;	bustout.c 183
                           2963 ;	genLabel
                           2964 ;	genFunction
                           2965 ;	---------------------------------
                           2966 ; Function set_blocks
                           2967 ; ---------------------------------
   0869                    2968 ___set_blocks_start:
   0869                    2969 _set_blocks:
   0869 E8 C1              2970 	lda	sp,-63(sp)
                           2971 ;	bustout.c 188
                           2972 ;	genAssign
                           2973 ;	AOP_HL for _INITIAL_LIVES
   086B 21 32 05           2974 	ld	hl,#_INITIAL_LIVES
   086E 4E                 2975 	ld	c,(hl)
   086F 23                 2976 	inc	hl
   0870 46                 2977 	ld	b,(hl)
                           2978 ;	genLeftShift
   0871 CB 21              2979 	sla	c
   0873 CB 10              2980 	rl	b
                           2981 ;	genLeftShift
   0875 CB 21              2982 	sla	c
   0877 CB 10              2983 	rl	b
                           2984 ;	genAssign
                           2985 ;	AOP_HL for _lives_sprite_begin
                           2986 ;	AOP_STK for _set_blocks_sloc0_1_0
   0879 21 40 05           2987 	ld	hl,#_lives_sprite_begin
   087C 2A                 2988 	ld	a,(hl+)
   087D 5E                 2989 	ld	e,(hl)
   087E F8 27              2990 	lda	hl,39(sp)
   0880 22                 2991 	ld	(hl+),a
   0881 73                 2992 	ld	(hl),e
                           2993 ;	genPlus
                           2994 ;	AOP_STK for _set_blocks_sloc0_1_0
                           2995 ;	Can't optimise plus by inc, falling back to the normal way
   0882 2B                 2996 	dec	hl
   0883 2A                 2997 	ld	a,(hl+)
   0884 66                 2998 	ld	h,(hl)
   0885 6F                 2999 	ld	l,a
   0886 09                 3000 	add	hl,bc
   0887 4D                 3001 	ld	c,l
   0888 44                 3002 	ld	b,h
                           3003 ;	genAssign
                           3004 ;	AOP_STK for _set_blocks_sp_1_1
   0889 F8 2B              3005 	lda	hl,43(sp)
   088B 71                 3006 	ld	(hl),c
   088C 23                 3007 	inc	hl
   088D 70                 3008 	ld	(hl),b
                           3009 ;	bustout.c 189
                           3010 ;	genAssign
                           3011 ;	AOP_STK for _set_blocks_sp_1_1
                           3012 ;	AOP_STK for _set_blocks_init_sp_1_1
   088E 2B                 3013 	dec	hl
   088F 2A                 3014 	ld	a,(hl+)
   0890 5E                 3015 	ld	e,(hl)
   0891 F8 29              3016 	lda	hl,41(sp)
   0893 22                 3017 	ld	(hl+),a
   0894 73                 3018 	ld	(hl),e
                           3019 ;	bustout.c 191
                           3020 ;	genIpush
                           3021 ; _saveRegsForCall: sendSetSize: 0 deInUse: 0 bcInUse: 0 deSending: 0
   0895 21 43 04           3022 	ld	hl,#_block_sprite_data
   0898 E5                 3023 	push	hl
                           3024 ;	genIpush
   0899 21 20 08           3025 	ld	hl,#0x0820
   089C E5                 3026 	push	hl
                           3027 ;	genCall
   089D CD 00 00           3028 	call	_set_sprite_data
   08A0 E8 04              3029 	lda	sp,4(sp)
                           3030 ;	bustout.c 193
                           3031 ;	genAssign
                           3032 ;	AOP_STK for _set_blocks_i_1_1
   08A2 F8 3D              3033 	lda	hl,61(sp)
   08A4 36 00              3034 	ld	(hl),#0x00
   08A6 23                 3035 	inc	hl
   08A7 36 00              3036 	ld	(hl),#0x00
                           3037 ;	genLabel
   08A9                    3038 00107$:
                           3039 ;	genCmpLt
                           3040 ;	AOP_STK for _set_blocks_i_1_1
   08A9 F8 3E              3041 	lda	hl,62(sp)
   08AB 7E                 3042 	ld	a,(hl)
   08AC EE 80              3043 	xor	a,#0x80
   08AE 5F                 3044 	ld	e,a
   08AF 16 80              3045 	ld	d,#0x80
   08B1 2B                 3046 	dec	hl
   08B2 7E                 3047 	ld	a,(hl)
   08B3 D6 04              3048 	sub	a,#0x04
   08B5 7B                 3049 	ld	a,e
   08B6 9A                 3050 	sbc	a,d
   08B7 D2 45 0B           3051 	jp	nc,00111$
                           3052 ;	bustout.c 194
                           3053 ;	genLeftShift
                           3054 ;	AOP_STK for _set_blocks_i_1_1
                           3055 ;	AOP_STK for _set_blocks_offset_x_1_1
   08BA 7E                 3056 	ld	a,(hl)
   08BB F8 2F              3057 	lda	hl,47(sp)
   08BD 77                 3058 	ld	(hl),a
   08BE F8 3E              3059 	lda	hl,62(sp)
   08C0 7E                 3060 	ld	a,(hl)
   08C1 F8 30              3061 	lda	hl,48(sp)
   08C3 77                 3062 	ld	(hl),a
   08C4 3E 05              3063 	ld	a,#0x04+1
   08C6 18 07              3064 	jr	00123$
   08C8                    3065 00122$:
   08C8 F8 2F              3066 	lda	hl,47(sp)
   08CA CB 26              3067 	sla	(hl)
   08CC 23                 3068 	inc	hl
   08CD CB 16              3069 	rl	(hl)
   08CF                    3070 00123$:
   08CF 3D                 3071 	dec	a
   08D0 20 F6              3072 	jr	nz,00122$
                           3073 ;	bustout.c 195
                           3074 ;	genAssign
                           3075 ;	AOP_STK for _set_blocks_j_1_1
   08D2 F8 3B              3076 	lda	hl,59(sp)
   08D4 36 00              3077 	ld	(hl),#0x00
   08D6 23                 3078 	inc	hl
   08D7 36 00              3079 	ld	(hl),#0x00
                           3080 ;	genLabel
   08D9                    3081 00103$:
                           3082 ;	genCmpLt
                           3083 ;	AOP_STK for _set_blocks_j_1_1
                           3084 ;	AOP_STK for _set_blocks_sloc7_1_0
   08D9 F8 3C              3085 	lda	hl,60(sp)
   08DB 7E                 3086 	ld	a,(hl)
   08DC EE 80              3087 	xor	a,#0x80
   08DE 5F                 3088 	ld	e,a
   08DF 16 80              3089 	ld	d,#0x80
   08E1 2B                 3090 	dec	hl
   08E2 7E                 3091 	ld	a,(hl)
   08E3 D6 06              3092 	sub	a,#0x06
   08E5 7B                 3093 	ld	a,e
   08E6 9A                 3094 	sbc	a,d
   08E7 3E 00              3095 	ld	a,#0x00
   08E9 17                 3096 	rla
   08EA F8 1A              3097 	lda	hl,26(sp)
   08EC 77                 3098 	ld	(hl),a
                           3099 ;	genIfx
                           3100 ;	AOP_STK for _set_blocks_sloc7_1_0
   08ED AF                 3101 	xor	a,a
   08EE B6                 3102 	or	a,(hl)
   08EF CA 3B 0B           3103 	jp	z,00109$
                           3104 ;	bustout.c 196
                           3105 ;	genMult
                           3106 ;	AOP_HL for _current_level
                           3107 ;	AOP_STK for _set_blocks_sloc0_1_0
   08F2 21 59 0F           3108 	ld	hl,#_current_level
   08F5 5E                 3109 	ld	e,(hl)
   08F6 23                 3110 	inc	hl
   08F7 56                 3111 	ld	d,(hl)
   08F8 6B                 3112 	ld	l,e
   08F9 62                 3113 	ld	h,d
   08FA 29                 3114 	add	hl,hl
   08FB 19                 3115 	add	hl,de
   08FC 29                 3116 	add	hl,hl
   08FD 29                 3117 	add	hl,hl
   08FE 29                 3118 	add	hl,hl
   08FF 29                 3119 	add	hl,hl
   0900 7D                 3120 	ld	a,l
   0901 54                 3121 	ld	d,h
   0902 F8 27              3122 	lda	hl,39(sp)
   0904 22                 3123 	ld	(hl+),a
   0905 72                 3124 	ld	(hl),d
                           3125 ;	genPlus
                           3126 ;	AOP_STK for _set_blocks_sloc0_1_0
                           3127 ;	AOP_STK for _set_blocks_sloc1_1_0
                           3128 ;	Can't optimise plus by inc, falling back to the normal way
   0906 11 A2 04           3129 	ld	de,#_block_map
   0909 2B                 3130 	dec	hl
   090A 2A                 3131 	ld	a,(hl+)
   090B 66                 3132 	ld	h,(hl)
   090C 6F                 3133 	ld	l,a
   090D 19                 3134 	add	hl,de
   090E 7D                 3135 	ld	a,l
   090F 54                 3136 	ld	d,h
   0910 F8 25              3137 	lda	hl,37(sp)
   0912 22                 3138 	ld	(hl+),a
   0913 72                 3139 	ld	(hl),d
                           3140 ;	genMult
                           3141 ;	AOP_STK for _set_blocks_i_1_1
                           3142 ;	AOP_STK for _set_blocks_sloc2_1_0
   0914 F8 3D              3143 	lda	hl,61(sp)
   0916 5E                 3144 	ld	e,(hl)
   0917 23                 3145 	inc	hl
   0918 56                 3146 	ld	d,(hl)
   0919 6B                 3147 	ld	l,e
   091A 62                 3148 	ld	h,d
   091B 29                 3149 	add	hl,hl
   091C 19                 3150 	add	hl,de
   091D 29                 3151 	add	hl,hl
   091E 29                 3152 	add	hl,hl
   091F 7D                 3153 	ld	a,l
   0920 54                 3154 	ld	d,h
   0921 F8 23              3155 	lda	hl,35(sp)
   0923 22                 3156 	ld	(hl+),a
   0924 72                 3157 	ld	(hl),d
                           3158 ;	genPlus
                           3159 ;	AOP_STK for _set_blocks_sloc1_1_0
                           3160 ;	AOP_STK for _set_blocks_sloc2_1_0
                           3161 ;	AOP_STK for _set_blocks_sloc3_1_0
                           3162 ;	Can't optimise plus by inc, falling back to the normal way
   0925 23                 3163 	inc	hl
   0926 5E                 3164 	ld	e,(hl)
   0927 23                 3165 	inc	hl
   0928 56                 3166 	ld	d,(hl)
   0929 F8 23              3167 	lda	hl,35(sp)
   092B 2A                 3168 	ld	a,(hl+)
   092C 66                 3169 	ld	h,(hl)
   092D 6F                 3170 	ld	l,a
   092E 19                 3171 	add	hl,de
   092F 7D                 3172 	ld	a,l
   0930 54                 3173 	ld	d,h
   0931 F8 21              3174 	lda	hl,33(sp)
   0933 22                 3175 	ld	(hl+),a
   0934 72                 3176 	ld	(hl),d
                           3177 ;	genLeftShift
                           3178 ;	AOP_STK for _set_blocks_j_1_1
                           3179 ;	AOP_STK for _set_blocks_sloc4_1_0
   0935 F8 3B              3180 	lda	hl,59(sp)
   0937 7E                 3181 	ld	a,(hl)
   0938 F8 1F              3182 	lda	hl,31(sp)
   093A 77                 3183 	ld	(hl),a
   093B F8 3C              3184 	lda	hl,60(sp)
   093D 7E                 3185 	ld	a,(hl)
   093E F8 20              3186 	lda	hl,32(sp)
   0940 32                 3187 	ld      (hl-),a
   0941 CB 26              3188 	sla	(hl)
   0943 23                 3189 	inc	hl
   0944 CB 16              3190 	rl	(hl)
                           3191 ;	genPlus
                           3192 ;	AOP_STK for _set_blocks_sloc3_1_0
                           3193 ;	AOP_STK for _set_blocks_sloc4_1_0
                           3194 ;	AOP_STK for _set_blocks_sloc5_1_0
                           3195 ;	Can't optimise plus by inc, falling back to the normal way
   0946 23                 3196 	inc	hl
   0947 5E                 3197 	ld	e,(hl)
   0948 23                 3198 	inc	hl
   0949 56                 3199 	ld	d,(hl)
   094A F8 1F              3200 	lda	hl,31(sp)
   094C 2A                 3201 	ld	a,(hl+)
   094D 66                 3202 	ld	h,(hl)
   094E 6F                 3203 	ld	l,a
   094F 19                 3204 	add	hl,de
   0950 7D                 3205 	ld	a,l
   0951 54                 3206 	ld	d,h
   0952 F8 1D              3207 	lda	hl,29(sp)
                           3208 ;	genPointerGet
                           3209 ;	AOP_STK for _set_blocks_sloc5_1_0
                           3210 ;	AOP_STK for _set_blocks_sloc6_1_0
   0954 22                 3211 	ld	(hl+),a
   0955 72                 3212 	ld	(hl),d
   0956 5F                 3213 	ld	e,a
   0957 1A                 3214 	ld	a,(de)
   0958 F8 1B              3215 	lda	hl,27(sp)
   095A 77                 3216 	ld	(hl),a
   095B 13                 3217 	inc	de
   095C 1A                 3218 	ld	a,(de)
   095D 23                 3219 	inc	hl
                           3220 ;	genIfx
                           3221 ;	AOP_STK for _set_blocks_sloc6_1_0
   095E 32                 3222 	ld      (hl-),a
   095F 2A                 3223 	ld	a,(hl+)
   0960 B6                 3224 	or	a,(hl)
   0961 CA 22 0B           3225 	jp	z,00105$
                           3226 ;	bustout.c 197
                           3227 ;	genLeftShift
                           3228 ;	AOP_STK for _set_blocks_j_1_1
                           3229 ;	AOP_STK for _set_blocks_offset_y_1_1
   0964 F8 3B              3230 	lda	hl,59(sp)
   0966 7E                 3231 	ld	a,(hl)
   0967 F8 2D              3232 	lda	hl,45(sp)
   0969 77                 3233 	ld	(hl),a
   096A F8 3C              3234 	lda	hl,60(sp)
   096C 7E                 3235 	ld	a,(hl)
   096D F8 2E              3236 	lda	hl,46(sp)
   096F 77                 3237 	ld	(hl),a
   0970 3E 05              3238 	ld	a,#0x04+1
   0972 18 07              3239 	jr	00127$
   0974                    3240 00126$:
   0974 F8 2D              3241 	lda	hl,45(sp)
   0976 CB 26              3242 	sla	(hl)
   0978 23                 3243 	inc	hl
   0979 CB 16              3244 	rl	(hl)
   097B                    3245 00127$:
   097B 3D                 3246 	dec	a
   097C 20 F6              3247 	jr	nz,00126$
                           3248 ;	genAssign
                           3249 ;	AOP_STK for _set_blocks_offset_y_1_1
                           3250 ;	(registers are the same)
                           3251 ;	bustout.c 198
                           3252 ;	genAssign
                           3253 ;	AOP_STK for _set_blocks_sp_1_1
                           3254 ;	AOP_STK for _set_blocks_sloc11_1_0
   097E F8 2B              3255 	lda	hl,43(sp)
   0980 2A                 3256 	ld	a,(hl+)
   0981 5E                 3257 	ld	e,(hl)
   0982 F8 12              3258 	lda	hl,18(sp)
   0984 22                 3259 	ld	(hl+),a
   0985 73                 3260 	ld	(hl),e
                           3261 ;	genPlus
                           3262 ;	AOP_STK for _set_blocks_sp_1_1
                           3263 ;	AOP_STK for _set_blocks_sloc8_1_0
                           3264 ;	genPlusIncr
                           3265 ;	Can't optimise plus by inc, falling back to the normal way
   0986 F8 2B              3266 	lda	hl,43(sp)
   0988 5E                 3267 	ld	e,(hl)
   0989 23                 3268 	inc	hl
   098A 56                 3269 	ld	d,(hl)
   098B 21 01 00           3270 	ld	hl,#0x0001
   098E 19                 3271 	add	hl,de
   098F 7D                 3272 	ld	a,l
   0990 54                 3273 	ld	d,h
   0991 F8 18              3274 	lda	hl,24(sp)
   0993 22                 3275 	ld	(hl+),a
   0994 72                 3276 	ld	(hl),d
                           3277 ;	genAssign
                           3278 ;	AOP_STK for _set_blocks_sloc8_1_0
                           3279 ;	AOP_STK for _set_blocks_sp_1_1
   0995 2B                 3280 	dec	hl
   0996 2A                 3281 	ld	a,(hl+)
   0997 5E                 3282 	ld	e,(hl)
   0998 F8 2B              3283 	lda	hl,43(sp)
   099A 22                 3284 	ld	(hl+),a
   099B 73                 3285 	ld	(hl),e
                           3286 ;	genAssign
                           3287 ;	AOP_STK for _set_blocks_sloc11_1_0
                           3288 ;	AOP_STK for _set_blocks_a_1_1
   099C F8 12              3289 	lda	hl,18(sp)
   099E 2A                 3290 	ld	a,(hl+)
   099F 5E                 3291 	ld	e,(hl)
   09A0 F8 39              3292 	lda	hl,57(sp)
   09A2 22                 3293 	ld	(hl+),a
   09A3 73                 3294 	ld	(hl),e
                           3295 ;	bustout.c 199
                           3296 ;	genAssign
                           3297 ;	AOP_STK for _set_blocks_sp_1_1
                           3298 ;	AOP_STK for _set_blocks_sloc9_1_0
   09A4 F8 2B              3299 	lda	hl,43(sp)
   09A6 2A                 3300 	ld	a,(hl+)
   09A7 5E                 3301 	ld	e,(hl)
   09A8 F8 16              3302 	lda	hl,22(sp)
   09AA 22                 3303 	ld	(hl+),a
   09AB 73                 3304 	ld	(hl),e
                           3305 ;	genPlus
                           3306 ;	AOP_STK for _set_blocks_sp_1_1
                           3307 ;	AOP_STK for _set_blocks_sloc10_1_0
                           3308 ;	genPlusIncr
                           3309 ;	Can't optimise plus by inc, falling back to the normal way
   09AC F8 2B              3310 	lda	hl,43(sp)
   09AE 5E                 3311 	ld	e,(hl)
   09AF 23                 3312 	inc	hl
   09B0 56                 3313 	ld	d,(hl)
   09B1 21 01 00           3314 	ld	hl,#0x0001
   09B4 19                 3315 	add	hl,de
   09B5 7D                 3316 	ld	a,l
   09B6 54                 3317 	ld	d,h
   09B7 F8 14              3318 	lda	hl,20(sp)
   09B9 22                 3319 	ld	(hl+),a
   09BA 72                 3320 	ld	(hl),d
                           3321 ;	genAssign
                           3322 ;	AOP_STK for _set_blocks_sloc10_1_0
                           3323 ;	AOP_STK for _set_blocks_sp_1_1
   09BB 2B                 3324 	dec	hl
   09BC 2A                 3325 	ld	a,(hl+)
   09BD 5E                 3326 	ld	e,(hl)
   09BE F8 2B              3327 	lda	hl,43(sp)
   09C0 22                 3328 	ld	(hl+),a
   09C1 73                 3329 	ld	(hl),e
                           3330 ;	genAssign
                           3331 ;	AOP_STK for _set_blocks_sloc9_1_0
                           3332 ;	AOP_STK for _set_blocks_b_1_1
   09C2 F8 16              3333 	lda	hl,22(sp)
   09C4 2A                 3334 	ld	a,(hl+)
   09C5 5E                 3335 	ld	e,(hl)
   09C6 F8 37              3336 	lda	hl,55(sp)
   09C8 22                 3337 	ld	(hl+),a
   09C9 73                 3338 	ld	(hl),e
                           3339 ;	bustout.c 200
                           3340 ;	genPlus
                           3341 ;	AOP_STK for _set_blocks_offset_y_1_1
                           3342 ;	AOP_STK for _set_blocks_a_x_1_1
                           3343 ;	genPlusIncr
                           3344 ;	Can't optimise plus by inc, falling back to the normal way
   09CA F8 2D              3345 	lda	hl,45(sp)
   09CC 5E                 3346 	ld	e,(hl)
   09CD 23                 3347 	inc	hl
   09CE 56                 3348 	ld	d,(hl)
   09CF 21 28 00           3349 	ld	hl,#0x0028
   09D2 19                 3350 	add	hl,de
   09D3 7D                 3351 	ld	a,l
   09D4 54                 3352 	ld	d,h
   09D5 F8 35              3353 	lda	hl,53(sp)
   09D7 22                 3354 	ld	(hl+),a
   09D8 72                 3355 	ld	(hl),d
                           3356 ;	genAssign
                           3357 ;	AOP_STK for _set_blocks_a_x_1_1
                           3358 ;	(registers are the same)
                           3359 ;	bustout.c 201
                           3360 ;	genPlus
                           3361 ;	AOP_STK for _set_blocks_offset_x_1_1
                           3362 ;	AOP_STK for _set_blocks_a_y_1_1
                           3363 ;	genPlusIncr
                           3364 ;	Can't optimise plus by inc, falling back to the normal way
   09D9 F8 2F              3365 	lda	hl,47(sp)
   09DB 5E                 3366 	ld	e,(hl)
   09DC 23                 3367 	inc	hl
   09DD 56                 3368 	ld	d,(hl)
   09DE 21 30 00           3369 	ld	hl,#0x0030
   09E1 19                 3370 	add	hl,de
   09E2 7D                 3371 	ld	a,l
   09E3 54                 3372 	ld	d,h
   09E4 F8 31              3373 	lda	hl,49(sp)
   09E6 22                 3374 	ld	(hl+),a
   09E7 72                 3375 	ld	(hl),d
                           3376 ;	genAssign
                           3377 ;	AOP_STK for _set_blocks_a_y_1_1
                           3378 ;	(registers are the same)
                           3379 ;	bustout.c 202
                           3380 ;	genPlus
                           3381 ;	AOP_STK for _set_blocks_offset_y_1_1
                           3382 ;	AOP_STK for _set_blocks_b_x_1_1
                           3383 ;	genPlusIncr
                           3384 ;	Can't optimise plus by inc, falling back to the normal way
   09E8 F8 2D              3385 	lda	hl,45(sp)
   09EA 5E                 3386 	ld	e,(hl)
   09EB 23                 3387 	inc	hl
   09EC 56                 3388 	ld	d,(hl)
   09ED 21 30 00           3389 	ld	hl,#0x0030
   09F0 19                 3390 	add	hl,de
   09F1 7D                 3391 	ld	a,l
   09F2 54                 3392 	ld	d,h
   09F3 F8 33              3393 	lda	hl,51(sp)
   09F5 22                 3394 	ld	(hl+),a
   09F6 72                 3395 	ld	(hl),d
                           3396 ;	genAssign
                           3397 ;	AOP_STK for _set_blocks_b_x_1_1
                           3398 ;	(registers are the same)
                           3399 ;	bustout.c 205
                           3400 ;	genMinus
                           3401 ;	AOP_STK for _set_blocks_a_1_1
                           3402 ;	AOP_STK for _set_blocks_init_sp_1_1
   09F7 F8 39              3403 	lda	hl,57(sp)
   09F9 5E                 3404 	ld	e,(hl)
   09FA 23                 3405 	inc	hl
   09FB 56                 3406 	ld	d,(hl)
   09FC F8 29              3407 	lda	hl,41(sp)
   09FE 2A                 3408 	ld	a,(hl+)
   09FF 66                 3409 	ld	h,(hl)
   0A00 6F                 3410 	ld	l,a
   0A01 7B                 3411 	ld	a,e
   0A02 95                 3412 	sub	a,l
   0A03 5F                 3413 	ld	e,a
   0A04 7A                 3414 	ld	a,d
   0A05 9C                 3415 	sbc	a,h
   0A06 47                 3416 	ld	b,a
   0A07 4B                 3417 	ld	c,e
                           3418 ;	genMult
                           3419 ;	AOP_STK for _set_blocks_sloc12_1_0
   0A08 59                 3420 	ld	e,c
   0A09 50                 3421 	ld	d,b
   0A0A 6B                 3422 	ld	l,e
   0A0B 62                 3423 	ld	h,d
   0A0C 29                 3424 	add	hl,hl
   0A0D 19                 3425 	add	hl,de
   0A0E 29                 3426 	add	hl,hl
   0A0F 7D                 3427 	ld	a,l
   0A10 54                 3428 	ld	d,h
   0A11 F8 10              3429 	lda	hl,16(sp)
   0A13 22                 3430 	ld	(hl+),a
   0A14 72                 3431 	ld	(hl),d
                           3432 ;	genPlus
                           3433 ;	AOP_STK for _set_blocks_sloc12_1_0
                           3434 ;	AOP_STK for _set_blocks_sloc13_1_0
                           3435 ;	Can't optimise plus by inc, falling back to the normal way
   0A15 11 6D 0F           3436 	ld	de,#_block_sprites
   0A18 2B                 3437 	dec	hl
   0A19 2A                 3438 	ld	a,(hl+)
   0A1A 66                 3439 	ld	h,(hl)
   0A1B 6F                 3440 	ld	l,a
   0A1C 19                 3441 	add	hl,de
   0A1D 7D                 3442 	ld	a,l
   0A1E 54                 3443 	ld	d,h
   0A1F F8 0E              3444 	lda	hl,14(sp)
   0A21 22                 3445 	ld	(hl+),a
   0A22 72                 3446 	ld	(hl),d
                           3447 ;	genAssign (pointer)
                           3448 ;	AOP_STK for _set_blocks_sloc13_1_0
                           3449 ;	AOP_STK for _set_blocks_a_1_1
   0A23 2B                 3450 	dec	hl
   0A24 5E                 3451 	ld	e,(hl)
   0A25 23                 3452 	inc	hl
   0A26 56                 3453 	ld	d,(hl)
   0A27 F8 39              3454 	lda	hl,57(sp)
   0A29 7E                 3455 	ld	a,(hl)
   0A2A 12                 3456 	ld	(de),a
   0A2B 13                 3457 	inc	de
   0A2C 23                 3458 	inc	hl
   0A2D 7E                 3459 	ld	a,(hl)
   0A2E 12                 3460 	ld	(de),a
                           3461 ;	bustout.c 206
                           3462 ;	genPlus
                           3463 ;	AOP_STK for _set_blocks_sloc13_1_0
                           3464 ;	genPlusIncr
   0A2F F8 0E              3465 	lda	hl,14(sp)
   0A31 2A                 3466 	ld	a,(hl+)
   0A32 66                 3467 	ld	h,(hl)
   0A33 6F                 3468 	ld	l,a
   0A34 23                 3469 	inc	hl
   0A35 23                 3470 	inc	hl
                           3471 ;	genAssign (pointer)
                           3472 ;	AOP_STK for _set_blocks_a_x_1_1
   0A36 5D                 3473 	ld	e,l
   0A37 54                 3474 	ld	d,h
   0A38 F8 35              3475 	lda	hl,53(sp)
   0A3A 7E                 3476 	ld	a,(hl)
   0A3B 12                 3477 	ld	(de),a
   0A3C 13                 3478 	inc	de
   0A3D 23                 3479 	inc	hl
   0A3E 7E                 3480 	ld	a,(hl)
   0A3F 12                 3481 	ld	(de),a
                           3482 ;	bustout.c 207
                           3483 ;	genPlus
                           3484 ;	AOP_STK for _set_blocks_sloc13_1_0
                           3485 ;	genPlusIncr
                           3486 ;	Can't optimise plus by inc, falling back to the normal way
   0A40 F8 0E              3487 	lda	hl,14(sp)
   0A42 5E                 3488 	ld	e,(hl)
   0A43 23                 3489 	inc	hl
   0A44 56                 3490 	ld	d,(hl)
   0A45 21 04 00           3491 	ld	hl,#0x0004
   0A48 19                 3492 	add	hl,de
   0A49 7D                 3493 	ld	a,l
   0A4A 54                 3494 	ld	d,h
   0A4B 6F                 3495 	ld	l,a
   0A4C 62                 3496 	ld	h,d
                           3497 ;	genAssign (pointer)
                           3498 ;	AOP_STK for _set_blocks_a_y_1_1
   0A4D 5D                 3499 	ld	e,l
   0A4E 54                 3500 	ld	d,h
   0A4F F8 31              3501 	lda	hl,49(sp)
   0A51 7E                 3502 	ld	a,(hl)
   0A52 12                 3503 	ld	(de),a
   0A53 13                 3504 	inc	de
   0A54 23                 3505 	inc	hl
   0A55 7E                 3506 	ld	a,(hl)
   0A56 12                 3507 	ld	(de),a
                           3508 ;	bustout.c 209
                           3509 ;	genMinus
                           3510 ;	AOP_STK for _set_blocks_b_1_1
                           3511 ;	AOP_STK for _set_blocks_init_sp_1_1
                           3512 ;	AOP_STK for _set_blocks_sloc14_1_0
   0A57 F8 37              3513 	lda	hl,55(sp)
   0A59 5E                 3514 	ld	e,(hl)
   0A5A 23                 3515 	inc	hl
   0A5B 56                 3516 	ld	d,(hl)
   0A5C F8 29              3517 	lda	hl,41(sp)
   0A5E 2A                 3518 	ld	a,(hl+)
   0A5F 66                 3519 	ld	h,(hl)
   0A60 6F                 3520 	ld	l,a
   0A61 7B                 3521 	ld	a,e
   0A62 95                 3522 	sub	a,l
   0A63 5F                 3523 	ld	e,a
   0A64 7A                 3524 	ld	a,d
   0A65 9C                 3525 	sbc	a,h
   0A66 F8 0D              3526 	lda	hl,13(sp)
   0A68 32                 3527 	ld      (hl-),a
   0A69 73                 3528 	ld	(hl),e
                           3529 ;	genMult
                           3530 ;	AOP_STK for _set_blocks_sloc14_1_0
                           3531 ;	AOP_STK for _set_blocks_sloc15_1_0
   0A6A 5E                 3532 	ld	e,(hl)
   0A6B 23                 3533 	inc	hl
   0A6C 56                 3534 	ld	d,(hl)
   0A6D 6B                 3535 	ld	l,e
   0A6E 62                 3536 	ld	h,d
   0A6F 29                 3537 	add	hl,hl
   0A70 19                 3538 	add	hl,de
   0A71 29                 3539 	add	hl,hl
   0A72 7D                 3540 	ld	a,l
   0A73 54                 3541 	ld	d,h
   0A74 F8 0A              3542 	lda	hl,10(sp)
   0A76 22                 3543 	ld	(hl+),a
   0A77 72                 3544 	ld	(hl),d
                           3545 ;	genPlus
                           3546 ;	AOP_STK for _set_blocks_sloc15_1_0
                           3547 ;	AOP_STK for _set_blocks_sloc16_1_0
                           3548 ;	Can't optimise plus by inc, falling back to the normal way
   0A78 11 6D 0F           3549 	ld	de,#_block_sprites
   0A7B 2B                 3550 	dec	hl
   0A7C 2A                 3551 	ld	a,(hl+)
   0A7D 66                 3552 	ld	h,(hl)
   0A7E 6F                 3553 	ld	l,a
   0A7F 19                 3554 	add	hl,de
   0A80 7D                 3555 	ld	a,l
   0A81 54                 3556 	ld	d,h
   0A82 F8 08              3557 	lda	hl,8(sp)
   0A84 22                 3558 	ld	(hl+),a
   0A85 72                 3559 	ld	(hl),d
                           3560 ;	genAssign (pointer)
                           3561 ;	AOP_STK for _set_blocks_sloc16_1_0
                           3562 ;	AOP_STK for _set_blocks_b_1_1
   0A86 2B                 3563 	dec	hl
   0A87 5E                 3564 	ld	e,(hl)
   0A88 23                 3565 	inc	hl
   0A89 56                 3566 	ld	d,(hl)
   0A8A F8 37              3567 	lda	hl,55(sp)
   0A8C 7E                 3568 	ld	a,(hl)
   0A8D 12                 3569 	ld	(de),a
   0A8E 13                 3570 	inc	de
   0A8F 23                 3571 	inc	hl
   0A90 7E                 3572 	ld	a,(hl)
   0A91 12                 3573 	ld	(de),a
                           3574 ;	bustout.c 210
                           3575 ;	genPlus
                           3576 ;	AOP_STK for _set_blocks_sloc16_1_0
                           3577 ;	genPlusIncr
   0A92 F8 08              3578 	lda	hl,8(sp)
   0A94 2A                 3579 	ld	a,(hl+)
   0A95 66                 3580 	ld	h,(hl)
   0A96 6F                 3581 	ld	l,a
   0A97 23                 3582 	inc	hl
   0A98 23                 3583 	inc	hl
                           3584 ;	genAssign (pointer)
                           3585 ;	AOP_STK for _set_blocks_b_x_1_1
   0A99 5D                 3586 	ld	e,l
   0A9A 54                 3587 	ld	d,h
   0A9B F8 33              3588 	lda	hl,51(sp)
   0A9D 7E                 3589 	ld	a,(hl)
   0A9E 12                 3590 	ld	(de),a
   0A9F 13                 3591 	inc	de
   0AA0 23                 3592 	inc	hl
   0AA1 7E                 3593 	ld	a,(hl)
   0AA2 12                 3594 	ld	(de),a
                           3595 ;	bustout.c 211
                           3596 ;	genPlus
                           3597 ;	AOP_STK for _set_blocks_sloc16_1_0
                           3598 ;	genPlusIncr
                           3599 ;	Can't optimise plus by inc, falling back to the normal way
   0AA3 F8 08              3600 	lda	hl,8(sp)
   0AA5 5E                 3601 	ld	e,(hl)
   0AA6 23                 3602 	inc	hl
   0AA7 56                 3603 	ld	d,(hl)
   0AA8 21 04 00           3604 	ld	hl,#0x0004
   0AAB 19                 3605 	add	hl,de
   0AAC 7D                 3606 	ld	a,l
   0AAD 54                 3607 	ld	d,h
   0AAE 6F                 3608 	ld	l,a
   0AAF 62                 3609 	ld	h,d
                           3610 ;	genAssign (pointer)
                           3611 ;	AOP_STK for _set_blocks_a_y_1_1
   0AB0 5D                 3612 	ld	e,l
   0AB1 54                 3613 	ld	d,h
   0AB2 F8 31              3614 	lda	hl,49(sp)
   0AB4 7E                 3615 	ld	a,(hl)
   0AB5 12                 3616 	ld	(de),a
   0AB6 13                 3617 	inc	de
   0AB7 23                 3618 	inc	hl
   0AB8 7E                 3619 	ld	a,(hl)
   0AB9 12                 3620 	ld	(de),a
                           3621 ;	bustout.c 213
                           3622 ;	genCast
                           3623 ;	AOP_STK for _set_blocks_a_1_1
                           3624 ;	AOP_STK for _set_blocks_sloc17_1_0
   0ABA F8 39              3625 	lda	hl,57(sp)
   0ABC 7E                 3626 	ld	a,(hl)
   0ABD F8 07              3627 	lda	hl,7(sp)
   0ABF 77                 3628 	ld	(hl),a
                           3629 ;	genIpush
                           3630 ; _saveRegsForCall: sendSetSize: 0 deInUse: 0 bcInUse: 1 deSending: 0
   0AC0 C5                 3631 	push	bc
   0AC1 3E 20              3632 	ld	a,#0x20
   0AC3 F5                 3633 	push	af
   0AC4 33                 3634 	inc	sp
                           3635 ;	genIpush
                           3636 ;	AOP_STK for _set_blocks_sloc17_1_0
   0AC5 7E                 3637 	ld	a,(hl)
   0AC6 F5                 3638 	push	af
   0AC7 33                 3639 	inc	sp
                           3640 ;	genCall
   0AC8 CD 00 00           3641 	call	_set_sprite_tile
   0ACB E8 02              3642 	lda	sp,2(sp)
   0ACD C1                 3643 	pop	bc
                           3644 ;	bustout.c 214
                           3645 ;	genCast
                           3646 ;	AOP_STK for _set_blocks_b_1_1
                           3647 ;	AOP_STK for _set_blocks_sloc18_1_0
   0ACE F8 37              3648 	lda	hl,55(sp)
   0AD0 7E                 3649 	ld	a,(hl)
   0AD1 F8 06              3650 	lda	hl,6(sp)
   0AD3 77                 3651 	ld	(hl),a
                           3652 ;	genIpush
                           3653 ; _saveRegsForCall: sendSetSize: 0 deInUse: 0 bcInUse: 1 deSending: 0
   0AD4 C5                 3654 	push	bc
   0AD5 3E 22              3655 	ld	a,#0x22
   0AD7 F5                 3656 	push	af
   0AD8 33                 3657 	inc	sp
                           3658 ;	genIpush
                           3659 ;	AOP_STK for _set_blocks_sloc18_1_0
   0AD9 7E                 3660 	ld	a,(hl)
   0ADA F5                 3661 	push	af
   0ADB 33                 3662 	inc	sp
                           3663 ;	genCall
   0ADC CD 00 00           3664 	call	_set_sprite_tile
   0ADF E8 02              3665 	lda	sp,2(sp)
   0AE1 C1                 3666 	pop	bc
                           3667 ;	bustout.c 215
                           3668 ;	genCast
                           3669 ;	AOP_STK for _set_blocks_a_y_1_1
                           3670 ;	AOP_STK for _set_blocks_sloc19_1_0
   0AE2 F8 31              3671 	lda	hl,49(sp)
   0AE4 7E                 3672 	ld	a,(hl)
   0AE5 F8 05              3673 	lda	hl,5(sp)
   0AE7 77                 3674 	ld	(hl),a
                           3675 ;	genCast
                           3676 ;	AOP_STK for _set_blocks_a_x_1_1
                           3677 ;	AOP_STK for _set_blocks_sloc20_1_0
   0AE8 F8 35              3678 	lda	hl,53(sp)
   0AEA 7E                 3679 	ld	a,(hl)
   0AEB F8 04              3680 	lda	hl,4(sp)
   0AED 77                 3681 	ld	(hl),a
                           3682 ;	genIpush
                           3683 ; _saveRegsForCall: sendSetSize: 0 deInUse: 0 bcInUse: 1 deSending: 0
   0AEE C5                 3684 	push	bc
                           3685 ;	AOP_STK for _set_blocks_sloc19_1_0
   0AEF 23                 3686 	inc	hl
   0AF0 7E                 3687 	ld	a,(hl)
   0AF1 F5                 3688 	push	af
   0AF2 33                 3689 	inc	sp
                           3690 ;	genIpush
                           3691 ;	AOP_STK for _set_blocks_sloc20_1_0
   0AF3 2B                 3692 	dec	hl
   0AF4 7E                 3693 	ld	a,(hl)
   0AF5 F5                 3694 	push	af
   0AF6 33                 3695 	inc	sp
                           3696 ;	genIpush
                           3697 ;	AOP_STK for _set_blocks_sloc17_1_0
   0AF7 F8 0B              3698 	lda	hl,11(sp)
   0AF9 7E                 3699 	ld	a,(hl)
   0AFA F5                 3700 	push	af
   0AFB 33                 3701 	inc	sp
                           3702 ;	genCall
   0AFC CD 00 00           3703 	call	_move_sprite
   0AFF E8 03              3704 	lda	sp,3(sp)
   0B01 C1                 3705 	pop	bc
                           3706 ;	bustout.c 216
                           3707 ;	genCast
                           3708 ;	AOP_STK for _set_blocks_a_y_1_1
                           3709 ;	AOP_STK for _set_blocks_sloc21_1_0
   0B02 F8 31              3710 	lda	hl,49(sp)
   0B04 7E                 3711 	ld	a,(hl)
   0B05 F8 03              3712 	lda	hl,3(sp)
   0B07 77                 3713 	ld	(hl),a
                           3714 ;	genCast
                           3715 ;	AOP_STK for _set_blocks_b_x_1_1
                           3716 ;	AOP_STK for _set_blocks_sloc22_1_0
   0B08 F8 33              3717 	lda	hl,51(sp)
   0B0A 7E                 3718 	ld	a,(hl)
   0B0B F8 02              3719 	lda	hl,2(sp)
   0B0D 77                 3720 	ld	(hl),a
                           3721 ;	genIpush
                           3722 ; _saveRegsForCall: sendSetSize: 0 deInUse: 0 bcInUse: 1 deSending: 0
   0B0E C5                 3723 	push	bc
                           3724 ;	AOP_STK for _set_blocks_sloc21_1_0
   0B0F 23                 3725 	inc	hl
   0B10 7E                 3726 	ld	a,(hl)
   0B11 F5                 3727 	push	af
   0B12 33                 3728 	inc	sp
                           3729 ;	genIpush
                           3730 ;	AOP_STK for _set_blocks_sloc22_1_0
   0B13 2B                 3731 	dec	hl
   0B14 7E                 3732 	ld	a,(hl)
   0B15 F5                 3733 	push	af
   0B16 33                 3734 	inc	sp
                           3735 ;	genIpush
                           3736 ;	AOP_STK for _set_blocks_sloc18_1_0
   0B17 F8 0A              3737 	lda	hl,10(sp)
   0B19 7E                 3738 	ld	a,(hl)
   0B1A F5                 3739 	push	af
   0B1B 33                 3740 	inc	sp
                           3741 ;	genCall
   0B1C CD 00 00           3742 	call	_move_sprite
   0B1F E8 03              3743 	lda	sp,3(sp)
   0B21 C1                 3744 	pop	bc
                           3745 ;	genLabel
   0B22                    3746 00105$:
                           3747 ;	bustout.c 195
                           3748 ;	genPlus
                           3749 ;	AOP_STK for _set_blocks_j_1_1
                           3750 ;	AOP_STK for _set_blocks_sloc23_1_0
                           3751 ;	genPlusIncr
                           3752 ;	Can't optimise plus by inc, falling back to the normal way
   0B22 F8 3B              3753 	lda	hl,59(sp)
   0B24 5E                 3754 	ld	e,(hl)
   0B25 23                 3755 	inc	hl
   0B26 56                 3756 	ld	d,(hl)
   0B27 21 01 00           3757 	ld	hl,#0x0001
   0B2A 19                 3758 	add	hl,de
   0B2B 7D                 3759 	ld	a,l
   0B2C 54                 3760 	ld	d,h
   0B2D F8 00              3761 	lda	hl,0(sp)
   0B2F 22                 3762 	ld	(hl+),a
   0B30 72                 3763 	ld	(hl),d
                           3764 ;	genAssign
                           3765 ;	AOP_STK for _set_blocks_sloc23_1_0
                           3766 ;	AOP_STK for _set_blocks_j_1_1
   0B31 2B                 3767 	dec	hl
   0B32 2A                 3768 	ld	a,(hl+)
   0B33 5E                 3769 	ld	e,(hl)
   0B34 F8 3B              3770 	lda	hl,59(sp)
   0B36 22                 3771 	ld	(hl+),a
   0B37 73                 3772 	ld	(hl),e
                           3773 ;	genGoto
   0B38 C3 D9 08           3774 	jp	00103$
                           3775 ;	genLabel
   0B3B                    3776 00109$:
                           3777 ;	bustout.c 193
                           3778 ;	genPlus
                           3779 ;	AOP_STK for _set_blocks_i_1_1
                           3780 ;	genPlusIncr
   0B3B F8 3D              3781 	lda	hl,61(sp)
   0B3D 34                 3782 	inc	(hl)
   0B3E 20 02              3783 	jr	nz,00128$
   0B40 23                 3784 	inc	hl
   0B41 34                 3785 	inc	(hl)
   0B42                    3786 00128$:
                           3787 ;	genGoto
   0B42 C3 A9 08           3788 	jp	00107$
                           3789 ;	genLabel
   0B45                    3790 00111$:
                           3791 ;	genEndFunction
   0B45 E8 3F              3792 	lda	sp,63(sp)
   0B47 C9                 3793 	ret
   0B48                    3794 ___set_blocks_end:
                           3795 ;	bustout.c 222
                           3796 ;	genLabel
                           3797 ;	genFunction
                           3798 ;	---------------------------------
                           3799 ; Function end_splash
                           3800 ; ---------------------------------
   0B48                    3801 ___end_splash_start:
   0B48                    3802 _end_splash:
                           3803 	
                           3804 ;	bustout.c 223
                           3805 ;	genCall
                           3806 ; _saveRegsForCall: sendSetSize: 0 deInUse: 0 bcInUse: 0 deSending: 0
   0B48 CD 7F 05           3807 	call	_set_paddle
                           3808 ;	bustout.c 224
                           3809 ;	genIpush
                           3810 ; _saveRegsForCall: sendSetSize: 0 deInUse: 0 bcInUse: 0 deSending: 0
   0B4B 21 01 00           3811 	ld	hl,#0x0001
   0B4E E5                 3812 	push	hl
                           3813 ;	genCall
   0B4F CD 0B 06           3814 	call	_set_ball
   0B52 E8 02              3815 	lda	sp,2(sp)
                           3816 ;	bustout.c 225
                           3817 ;	genCall
                           3818 ; _saveRegsForCall: sendSetSize: 0 deInUse: 0 bcInUse: 0 deSending: 0
   0B54 CD 9E 06           3819 	call	_set_lives
                           3820 ;	bustout.c 226
                           3821 ;	genCall
                           3822 ; _saveRegsForCall: sendSetSize: 0 deInUse: 0 bcInUse: 0 deSending: 0
   0B57 CD 69 08           3823 	call	_set_blocks
                           3824 ;	bustout.c 227
                           3825 ;	genAssign
                           3826 ;	AOP_HL for _splash_over
   0B5A 21 55 0F           3827 	ld	hl,#_splash_over
   0B5D 36 01              3828 	ld	(hl),#0x01
   0B5F 23                 3829 	inc	hl
   0B60 36 00              3830 	ld	(hl),#0x00
                           3831 ;	genLabel
   0B62                    3832 00101$:
                           3833 ;	genEndFunction
                           3834 	
   0B62 C9                 3835 	ret
   0B63                    3836 ___end_splash_end:
                           3837 ;	bustout.c 230
                           3838 ;	genLabel
                           3839 ;	genFunction
                           3840 ;	---------------------------------
                           3841 ; Function input
                           3842 ; ---------------------------------
   0B63                    3843 ___input_start:
   0B63                    3844 _input:
   0B63 E8 FE              3845 	lda	sp,-2(sp)
                           3846 ;	bustout.c 233
                           3847 ;	genAnd
                           3848 ;	AOP_HL for _key
   0B65 21 50 0F           3849 	ld	hl,#_key
   0B68 7E                 3850 	ld	a,(hl)
   0B69 E6 0F              3851 	and	a,#0x0F
   0B6B 20 03              3852 	jr	nz,00128$
   0B6D C3 2E 0C           3853 	jp	00112$
   0B70                    3854 00128$:
                           3855 ;	bustout.c 234
                           3856 ;	genAnd
                           3857 ;	AOP_HL for _key
   0B70 21 50 0F           3858 	ld	hl,#_key
   0B73 7E                 3859 	ld	a,(hl)
   0B74 E6 02              3860 	and	a,#0x02
   0B76 20 03              3861 	jr	nz,00129$
   0B78 C3 B2 0B           3862 	jp	00102$
   0B7B                    3863 00129$:
                           3864 ;	genCmpGt
                           3865 ;	AOP_HL for _paddle_x
   0B7B 3E 00              3866 	ld	a,#0x00
   0B7D 21 5B 0F           3867 	ld	hl,#_paddle_x
   0B80 96                 3868 	sub	a,(hl)
   0B81 D2 B2 0B           3869 	jp	nc,00102$
                           3870 ;	bustout.c 235
                           3871 ;	genAssign
                           3872 ;	AOP_HL for _paddle_speed
   0B84 21 3A 05           3873 	ld	hl,#_paddle_speed
   0B87 4E                 3874 	ld	c,(hl)
   0B88 23                 3875 	inc	hl
   0B89 46                 3876 	ld	b,(hl)
                           3877 ;	genMult
   0B8A 59                 3878 	ld	e,c
   0B8B 50                 3879 	ld	d,b
   0B8C 6B                 3880 	ld	l,e
   0B8D 62                 3881 	ld	h,d
   0B8E 29                 3882 	add	hl,hl
   0B8F 19                 3883 	add	hl,de
   0B90 29                 3884 	add	hl,hl
   0B91 19                 3885 	add	hl,de
   0B92 29                 3886 	add	hl,hl
   0B93 19                 3887 	add	hl,de
   0B94 29                 3888 	add	hl,hl
   0B95 19                 3889 	add	hl,de
   0B96 29                 3890 	add	hl,hl
   0B97 19                 3891 	add	hl,de
   0B98 29                 3892 	add	hl,hl
   0B99 19                 3893 	add	hl,de
   0B9A 29                 3894 	add	hl,hl
   0B9B 19                 3895 	add	hl,de
   0B9C 29                 3896 	add	hl,hl
   0B9D 19                 3897 	add	hl,de
   0B9E 29                 3898 	add	hl,hl
   0B9F 19                 3899 	add	hl,de
   0BA0 29                 3900 	add	hl,hl
   0BA1 19                 3901 	add	hl,de
   0BA2 29                 3902 	add	hl,hl
   0BA3 19                 3903 	add	hl,de
   0BA4 29                 3904 	add	hl,hl
   0BA5 19                 3905 	add	hl,de
   0BA6 29                 3906 	add	hl,hl
   0BA7 19                 3907 	add	hl,de
   0BA8 29                 3908 	add	hl,hl
   0BA9 19                 3909 	add	hl,de
   0BAA 29                 3910 	add	hl,hl
   0BAB 19                 3911 	add	hl,de
   0BAC 4D                 3912 	ld	c,l
   0BAD 44                 3913 	ld	b,h
                           3914 ;	genCast
                           3915 ;	AOP_HL for _paddle_vel_x
   0BAE 21 5D 0F           3916 	ld	hl,#_paddle_vel_x
   0BB1 71                 3917 	ld	(hl),c
                           3918 ;	genLabel
   0BB2                    3919 00102$:
                           3920 ;	bustout.c 237
                           3921 ;	genAnd
                           3922 ;	AOP_HL for _key
   0BB2 21 50 0F           3923 	ld	hl,#_key
   0BB5 7E                 3924 	ld	a,(hl)
   0BB6 E6 01              3925 	and	a,#0x01
   0BB8 20 03              3926 	jr	nz,00130$
   0BBA C3 E0 0B           3927 	jp	00105$
   0BBD                    3928 00130$:
                           3929 ;	genCast
                           3930 ;	AOP_HL for _paddle_x
                           3931 ;	AOP_STK for _input_sloc0_1_0
   0BBD 21 5B 0F           3932 	ld	hl,#_paddle_x
   0BC0 7E                 3933 	ld	a,(hl)
   0BC1 F8 00              3934 	lda	hl,0(sp)
   0BC3 22                 3935 	ld	(hl+),a
   0BC4 36 00              3936 	ld	(hl),#0x00
                           3937 ;	genAssign
                           3938 ;	AOP_HL for _SCREEN_WIDTH
   0BC6 21 48 0F           3939 	ld	hl,#_SCREEN_WIDTH
   0BC9 4E                 3940 	ld	c,(hl)
   0BCA 23                 3941 	inc	hl
   0BCB 46                 3942 	ld	b,(hl)
                           3943 ;	genCmpLt
                           3944 ;	AOP_STK for _input_sloc0_1_0
   0BCC F8 00              3945 	lda	hl,0(sp)
   0BCE 7E                 3946 	ld	a,(hl)
   0BCF 91                 3947 	sub	a,c
   0BD0 23                 3948 	inc	hl
   0BD1 7E                 3949 	ld	a,(hl)
   0BD2 98                 3950 	sbc	a,b
   0BD3 D2 E0 0B           3951 	jp	nc,00105$
                           3952 ;	bustout.c 238
                           3953 ;	genAssign
                           3954 ;	AOP_HL for _paddle_speed
   0BD6 21 3A 05           3955 	ld	hl,#_paddle_speed
   0BD9 4E                 3956 	ld	c,(hl)
   0BDA 23                 3957 	inc	hl
   0BDB 46                 3958 	ld	b,(hl)
                           3959 ;	genCast
                           3960 ;	AOP_HL for _paddle_vel_x
   0BDC 21 5D 0F           3961 	ld	hl,#_paddle_vel_x
   0BDF 71                 3962 	ld	(hl),c
                           3963 ;	genLabel
   0BE0                    3964 00105$:
                           3965 ;	bustout.c 240
                           3966 ;	genAnd
                           3967 ;	AOP_HL for _key
   0BE0 21 50 0F           3968 	ld	hl,#_key
   0BE3 7E                 3969 	ld	a,(hl)
   0BE4 E6 04              3970 	and	a,#0x04
   0BE6 20 03              3971 	jr	nz,00131$
   0BE8 C3 19 0C           3972 	jp	00108$
   0BEB                    3973 00131$:
                           3974 ;	bustout.c 241
                           3975 ;	genAssign
                           3976 ;	AOP_HL for _paddle_speed
   0BEB 21 3A 05           3977 	ld	hl,#_paddle_speed
   0BEE 4E                 3978 	ld	c,(hl)
   0BEF 23                 3979 	inc	hl
   0BF0 46                 3980 	ld	b,(hl)
                           3981 ;	genMult
   0BF1 59                 3982 	ld	e,c
   0BF2 50                 3983 	ld	d,b
   0BF3 6B                 3984 	ld	l,e
   0BF4 62                 3985 	ld	h,d
   0BF5 29                 3986 	add	hl,hl
   0BF6 19                 3987 	add	hl,de
   0BF7 29                 3988 	add	hl,hl
   0BF8 19                 3989 	add	hl,de
   0BF9 29                 3990 	add	hl,hl
   0BFA 19                 3991 	add	hl,de
   0BFB 29                 3992 	add	hl,hl
   0BFC 19                 3993 	add	hl,de
   0BFD 29                 3994 	add	hl,hl
   0BFE 19                 3995 	add	hl,de
   0BFF 29                 3996 	add	hl,hl
   0C00 19                 3997 	add	hl,de
   0C01 29                 3998 	add	hl,hl
   0C02 19                 3999 	add	hl,de
   0C03 29                 4000 	add	hl,hl
   0C04 19                 4001 	add	hl,de
   0C05 29                 4002 	add	hl,hl
   0C06 19                 4003 	add	hl,de
   0C07 29                 4004 	add	hl,hl
   0C08 19                 4005 	add	hl,de
   0C09 29                 4006 	add	hl,hl
   0C0A 19                 4007 	add	hl,de
   0C0B 29                 4008 	add	hl,hl
   0C0C 19                 4009 	add	hl,de
   0C0D 29                 4010 	add	hl,hl
   0C0E 19                 4011 	add	hl,de
   0C0F 29                 4012 	add	hl,hl
   0C10 19                 4013 	add	hl,de
   0C11 29                 4014 	add	hl,hl
   0C12 19                 4015 	add	hl,de
   0C13 4D                 4016 	ld	c,l
   0C14 44                 4017 	ld	b,h
                           4018 ;	genCast
                           4019 ;	AOP_HL for _paddle_vel_y
   0C15 21 5E 0F           4020 	ld	hl,#_paddle_vel_y
   0C18 71                 4021 	ld	(hl),c
                           4022 ;	genLabel
   0C19                    4023 00108$:
                           4024 ;	bustout.c 243
                           4025 ;	genAnd
                           4026 ;	AOP_HL for _key
   0C19 21 50 0F           4027 	ld	hl,#_key
   0C1C 7E                 4028 	ld	a,(hl)
   0C1D E6 08              4029 	and	a,#0x08
   0C1F 20 03              4030 	jr	nz,00132$
   0C21 C3 2E 0C           4031 	jp	00112$
   0C24                    4032 00132$:
                           4033 ;	bustout.c 244
                           4034 ;	genAssign
                           4035 ;	AOP_HL for _paddle_speed
   0C24 21 3A 05           4036 	ld	hl,#_paddle_speed
   0C27 4E                 4037 	ld	c,(hl)
   0C28 23                 4038 	inc	hl
   0C29 46                 4039 	ld	b,(hl)
                           4040 ;	genCast
                           4041 ;	AOP_HL for _paddle_vel_y
   0C2A 21 5E 0F           4042 	ld	hl,#_paddle_vel_y
   0C2D 71                 4043 	ld	(hl),c
                           4044 ;	genLabel
   0C2E                    4045 00112$:
                           4046 ;	bustout.c 248
                           4047 ;	genAnd
                           4048 ;	AOP_HL for _key
   0C2E 21 50 0F           4049 	ld	hl,#_key
   0C31 7E                 4050 	ld	a,(hl)
   0C32 E6 10              4051 	and	a,#0x10
   0C34 20 03              4052 	jr	nz,00133$
   0C36 C3 3C 0C           4053 	jp	00114$
   0C39                    4054 00133$:
                           4055 ;	bustout.c 249
                           4056 ;	genCall
                           4057 ; _saveRegsForCall: sendSetSize: 0 deInUse: 0 bcInUse: 0 deSending: 0
   0C39 CD EF 12           4058 	call	_state_life_start
                           4059 ;	genLabel
   0C3C                    4060 00114$:
                           4061 ;	bustout.c 252
                           4062 ;	genAnd
                           4063 ;	AOP_HL for _key
   0C3C 21 50 0F           4064 	ld	hl,#_key
   0C3F 7E                 4065 	ld	a,(hl)
   0C40 E6 80              4066 	and	a,#0x80
   0C42 20 03              4067 	jr	nz,00134$
   0C44 C3 4A 0C           4068 	jp	00117$
   0C47                    4069 00134$:
                           4070 ;	bustout.c 253
                           4071 ;	genCall
                           4072 ; _saveRegsForCall: sendSetSize: 0 deInUse: 0 bcInUse: 0 deSending: 0
   0C47 CD 48 0B           4073 	call	_end_splash
                           4074 ;	genLabel
   0C4A                    4075 00117$:
                           4076 ;	genEndFunction
   0C4A E8 02              4077 	lda	sp,2(sp)
   0C4C C9                 4078 	ret
   0C4D                    4079 ___input_end:
                           4080 ;	bustout.c 257
                           4081 ;	genLabel
                           4082 ;	genFunction
                           4083 ;	---------------------------------
                           4084 ; Function physics
                           4085 ; ---------------------------------
   0C4D                    4086 ___physics_start:
   0C4D                    4087 _physics:
   0C4D E8 FA              4088 	lda	sp,-6(sp)
                           4089 ;	bustout.c 260
                           4090 ;	genAnd
                           4091 ;	AOP_HL for _key
   0C4F 21 50 0F           4092 	ld	hl,#_key
   0C52 7E                 4093 	ld	a,(hl)
   0C53 E6 03              4094 	and	a,#0x03
   0C55 20 03              4095 	jr	nz,00115$
   0C57 C3 66 0C           4096 	jp	00102$
   0C5A                    4097 00115$:
                           4098 ;	bustout.c 261
                           4099 ;	genPlus
                           4100 ;	AOP_HL for _paddle_x
                           4101 ;	AOP_HL for _paddle_vel_x
                           4102 ;	Can't optimise plus by inc, falling back to the normal way
   0C5A 21 5B 0F           4103 	ld	hl,#_paddle_x
   0C5D 7E                 4104 	ld	a,(hl)
   0C5E 21 5D 0F           4105 	ld	hl,#_paddle_vel_x
   0C61 86                 4106 	add	a,(hl)
   0C62 21 5B 0F           4107 	ld	hl,#_paddle_x
   0C65 77                 4108 	ld	(hl),a
                           4109 ;	genLabel
   0C66                    4110 00102$:
                           4111 ;	bustout.c 263
                           4112 ;	genIfx
                           4113 ;	AOP_HL for _vertical_paddle_movement
   0C66 21 63 0F           4114 	ld	hl,#_vertical_paddle_movement
   0C69 2A                 4115 	ld	a,(hl+)
   0C6A B6                 4116 	or	a,(hl)
   0C6B CA 85 0C           4117 	jp	z,00104$
                           4118 ;	genAnd
                           4119 ;	AOP_HL for _key
   0C6E 21 50 0F           4120 	ld	hl,#_key
   0C71 7E                 4121 	ld	a,(hl)
   0C72 E6 0C              4122 	and	a,#0x0C
   0C74 20 03              4123 	jr	nz,00116$
   0C76 C3 85 0C           4124 	jp	00104$
   0C79                    4125 00116$:
                           4126 ;	bustout.c 264
                           4127 ;	genPlus
                           4128 ;	AOP_HL for _paddle_y
                           4129 ;	AOP_HL for _paddle_vel_y
                           4130 ;	Can't optimise plus by inc, falling back to the normal way
   0C79 21 5C 0F           4131 	ld	hl,#_paddle_y
   0C7C 7E                 4132 	ld	a,(hl)
   0C7D 21 5E 0F           4133 	ld	hl,#_paddle_vel_y
   0C80 86                 4134 	add	a,(hl)
   0C81 21 5C 0F           4135 	ld	hl,#_paddle_y
   0C84 77                 4136 	ld	(hl),a
                           4137 ;	genLabel
   0C85                    4138 00104$:
                           4139 ;	bustout.c 267
                           4140 ;	genIfx
                           4141 ;	AOP_HL for _game_started
   0C85 21 53 0F           4142 	ld	hl,#_game_started
   0C88 2A                 4143 	ld	a,(hl+)
   0C89 B6                 4144 	or	a,(hl)
   0C8A CA 04 0D           4145 	jp	z,00107$
                           4146 ;	bustout.c 269
                           4147 ;	genAssign
                           4148 ;	AOP_HL for _ball_speed
   0C8D 21 3E 05           4149 	ld	hl,#_ball_speed
   0C90 4E                 4150 	ld	c,(hl)
   0C91 23                 4151 	inc	hl
   0C92 46                 4152 	ld	b,(hl)
                           4153 ;	genCast
                           4154 ;	AOP_HL for _ball_vel_x
                           4155 ;	AOP_STK for _physics_sloc0_1_0
   0C93 21 61 0F           4156 	ld	hl,#_ball_vel_x
   0C96 7E                 4157 	ld	a,(hl)
   0C97 F8 04              4158 	lda	hl,4(sp)
   0C99 22                 4159 	ld	(hl+),a
   0C9A 36 00              4160 	ld	(hl),#0x00
                           4161 ;	genAssign
                           4162 ;	AOP_STK for _physics_sloc1_1_0
   0C9C F8 02              4163 	lda	hl,2(sp)
   0C9E 71                 4164 	ld	(hl),c
   0C9F 23                 4165 	inc	hl
   0CA0 70                 4166 	ld	(hl),b
                           4167 ;	genIpush
                           4168 ; _saveRegsForCall: sendSetSize: 0 deInUse: 0 bcInUse: 1 deSending: 0
   0CA1 C5                 4169 	push	bc
                           4170 ;	AOP_STK for _physics_sloc1_1_0
   0CA2 2B                 4171 	dec	hl
   0CA3 2A                 4172 	ld	a,(hl+)
   0CA4 66                 4173 	ld	h,(hl)
   0CA5 6F                 4174 	ld	l,a
   0CA6 E5                 4175 	push	hl
                           4176 ;	genIpush
                           4177 ;	AOP_STK for _physics_sloc0_1_0
   0CA7 F8 08              4178 	lda	hl,8(sp)
   0CA9 2A                 4179 	ld	a,(hl+)
   0CAA 66                 4180 	ld	h,(hl)
   0CAB 6F                 4181 	ld	l,a
   0CAC E5                 4182 	push	hl
                           4183 ;	genCall
   0CAD CD 00 00           4184 	call	__muluint_rrx_s
                           4185 ;	AOP_STK for _physics_sloc1_1_0
   0CB0 F8 09              4186 	lda	hl,9(sp)
   0CB2 72                 4187 	ld	(hl),d
   0CB3 2B                 4188 	dec	hl
   0CB4 73                 4189 	ld	(hl),e
   0CB5 E8 04              4190 	lda	sp,4(sp)
   0CB7 C1                 4191 	pop	bc
                           4192 ;	genCast
                           4193 ;	AOP_HL for _ball_x
                           4194 ;	AOP_STK for _physics_sloc0_1_0
   0CB8 21 5F 0F           4195 	ld	hl,#_ball_x
   0CBB 7E                 4196 	ld	a,(hl)
   0CBC F8 04              4197 	lda	hl,4(sp)
   0CBE 22                 4198 	ld	(hl+),a
   0CBF 36 00              4199 	ld	(hl),#0x00
                           4200 ;	genPlus
                           4201 ;	AOP_STK for _physics_sloc0_1_0
                           4202 ;	AOP_STK for _physics_sloc1_1_0
                           4203 ;	AOP_STK for _physics_sloc2_1_0
                           4204 ;	Can't optimise plus by inc, falling back to the normal way
   0CC1 2B                 4205 	dec	hl
   0CC2 5E                 4206 	ld	e,(hl)
   0CC3 23                 4207 	inc	hl
   0CC4 56                 4208 	ld	d,(hl)
   0CC5 F8 02              4209 	lda	hl,2(sp)
   0CC7 2A                 4210 	ld	a,(hl+)
   0CC8 66                 4211 	ld	h,(hl)
   0CC9 6F                 4212 	ld	l,a
   0CCA 19                 4213 	add	hl,de
   0CCB 7D                 4214 	ld	a,l
   0CCC 54                 4215 	ld	d,h
   0CCD F8 00              4216 	lda	hl,0(sp)
   0CCF 22                 4217 	ld	(hl+),a
   0CD0 72                 4218 	ld	(hl),d
                           4219 ;	genCast
                           4220 ;	AOP_STK for _physics_sloc2_1_0
                           4221 ;	AOP_HL for _ball_x
   0CD1 2B                 4222 	dec	hl
   0CD2 7E                 4223 	ld	a,(hl)
   0CD3 21 5F 0F           4224 	ld	hl,#_ball_x
   0CD6 77                 4225 	ld	(hl),a
                           4226 ;	bustout.c 270
                           4227 ;	genCast
                           4228 ;	AOP_HL for _ball_vel_y
                           4229 ;	AOP_STK for _physics_sloc2_1_0
   0CD7 21 62 0F           4230 	ld	hl,#_ball_vel_y
   0CDA 7E                 4231 	ld	a,(hl)
   0CDB F8 00              4232 	lda	hl,0(sp)
   0CDD 22                 4233 	ld	(hl+),a
   0CDE 36 00              4234 	ld	(hl),#0x00
                           4235 ;	genAssign
                           4236 ;	(registers are the same)
                           4237 ;	genIpush
                           4238 ; _saveRegsForCall: sendSetSize: 0 deInUse: 0 bcInUse: 0 deSending: 0
   0CE0 C5                 4239 	push	bc
                           4240 ;	genIpush
                           4241 ;	AOP_STK for _physics_sloc2_1_0
   0CE1 2B                 4242 	dec	hl
   0CE2 2A                 4243 	ld	a,(hl+)
   0CE3 66                 4244 	ld	h,(hl)
   0CE4 6F                 4245 	ld	l,a
   0CE5 E5                 4246 	push	hl
                           4247 ;	genCall
   0CE6 CD 00 00           4248 	call	__muluint_rrx_s
   0CE9 42                 4249 	ld	b,d
   0CEA 4B                 4250 	ld	c,e
   0CEB E8 04              4251 	lda	sp,4(sp)
                           4252 ;	genCast
                           4253 ;	AOP_HL for _ball_y
                           4254 ;	AOP_STK for _physics_sloc2_1_0
   0CED 21 60 0F           4255 	ld	hl,#_ball_y
   0CF0 7E                 4256 	ld	a,(hl)
   0CF1 F8 00              4257 	lda	hl,0(sp)
   0CF3 22                 4258 	ld	(hl+),a
   0CF4 36 00              4259 	ld	(hl),#0x00
                           4260 ;	genPlus
                           4261 ;	AOP_STK for _physics_sloc2_1_0
                           4262 ;	Can't optimise plus by inc, falling back to the normal way
   0CF6 2B                 4263 	dec	hl
   0CF7 2A                 4264 	ld	a,(hl+)
   0CF8 66                 4265 	ld	h,(hl)
   0CF9 6F                 4266 	ld	l,a
   0CFA 09                 4267 	add	hl,bc
   0CFB 4D                 4268 	ld	c,l
   0CFC 44                 4269 	ld	b,h
                           4270 ;	genCast
                           4271 ;	AOP_HL for _ball_y
   0CFD 21 60 0F           4272 	ld	hl,#_ball_y
   0D00 71                 4273 	ld	(hl),c
                           4274 ;	genGoto
   0D01 C3 49 0D           4275 	jp	00109$
                           4276 ;	genLabel
   0D04                    4277 00107$:
                           4278 ;	bustout.c 273
                           4279 ;	genRightShift
                           4280 ;	AOP_HL for _BALL_SIZE
   0D04 21 4E 0F           4281 	ld	hl,#_BALL_SIZE
   0D07 4E                 4282 	ld	c,(hl)
   0D08 23                 4283 	inc	hl
   0D09 46                 4284 	ld	b,(hl)
   0D0A CB 28              4285 	sra	b
   0D0C CB 19              4286 	rr	c
                           4287 ;	genCast
                           4288 ;	AOP_HL for _paddle_x
                           4289 ;	AOP_STK for _physics_sloc2_1_0
   0D0E 21 5B 0F           4290 	ld	hl,#_paddle_x
   0D11 7E                 4291 	ld	a,(hl)
   0D12 F8 00              4292 	lda	hl,0(sp)
   0D14 22                 4293 	ld	(hl+),a
   0D15 36 00              4294 	ld	(hl),#0x00
                           4295 ;	genAssign
                           4296 ;	AOP_STK for _physics_sloc1_1_0
   0D17 23                 4297 	inc	hl
   0D18 71                 4298 	ld	(hl),c
   0D19 23                 4299 	inc	hl
   0D1A 70                 4300 	ld	(hl),b
                           4301 ;	genPlus
                           4302 ;	AOP_STK for _physics_sloc2_1_0
                           4303 ;	AOP_STK for _physics_sloc1_1_0
                           4304 ;	AOP_STK for _physics_sloc0_1_0
                           4305 ;	Can't optimise plus by inc, falling back to the normal way
   0D1B F8 00              4306 	lda	hl,0(sp)
   0D1D 5E                 4307 	ld	e,(hl)
   0D1E 23                 4308 	inc	hl
   0D1F 56                 4309 	ld	d,(hl)
   0D20 23                 4310 	inc	hl
   0D21 2A                 4311 	ld	a,(hl+)
   0D22 66                 4312 	ld	h,(hl)
   0D23 6F                 4313 	ld	l,a
   0D24 19                 4314 	add	hl,de
   0D25 7D                 4315 	ld	a,l
   0D26 54                 4316 	ld	d,h
   0D27 F8 04              4317 	lda	hl,4(sp)
   0D29 22                 4318 	ld	(hl+),a
   0D2A 72                 4319 	ld	(hl),d
                           4320 ;	genCast
                           4321 ;	AOP_STK for _physics_sloc0_1_0
                           4322 ;	AOP_HL for _ball_x
   0D2B 2B                 4323 	dec	hl
   0D2C 7E                 4324 	ld	a,(hl)
   0D2D 21 5F 0F           4325 	ld	hl,#_ball_x
   0D30 77                 4326 	ld	(hl),a
                           4327 ;	bustout.c 274
                           4328 ;	genCast
                           4329 ;	AOP_HL for _paddle_y
                           4330 ;	AOP_STK for _physics_sloc2_1_0
   0D31 21 5C 0F           4331 	ld	hl,#_paddle_y
   0D34 7E                 4332 	ld	a,(hl)
   0D35 F8 00              4333 	lda	hl,0(sp)
   0D37 22                 4334 	ld	(hl+),a
   0D38 36 00              4335 	ld	(hl),#0x00
                           4336 ;	genAssign
                           4337 ;	(registers are the same)
                           4338 ;	genMinus
                           4339 ;	AOP_STK for _physics_sloc2_1_0
   0D3A 2B                 4340 	dec	hl
   0D3B 5E                 4341 	ld	e,(hl)
   0D3C 23                 4342 	inc	hl
   0D3D 56                 4343 	ld	d,(hl)
                           4344 ; Removed redundent load
                           4345 ; Removed redundent load
   0D3E 7B                 4346 	ld	a,e
   0D3F 91                 4347 	sub	a,c
   0D40 5F                 4348 	ld	e,a
   0D41 7A                 4349 	ld	a,d
   0D42 98                 4350 	sbc	a,b
   0D43 47                 4351 	ld	b,a
   0D44 4B                 4352 	ld	c,e
                           4353 ;	genCast
                           4354 ;	AOP_HL for _ball_y
   0D45 21 60 0F           4355 	ld	hl,#_ball_y
   0D48 71                 4356 	ld	(hl),c
                           4357 ;	genLabel
   0D49                    4358 00109$:
                           4359 ;	genEndFunction
   0D49 E8 06              4360 	lda	sp,6(sp)
   0D4B C9                 4361 	ret
   0D4C                    4362 ___physics_end:
                           4363 ;	bustout.c 278
                           4364 ;	genLabel
                           4365 ;	genFunction
                           4366 ;	---------------------------------
                           4367 ; Function collide
                           4368 ; ---------------------------------
   0D4C                    4369 ___collide_start:
   0D4C                    4370 _collide:
   0D4C E8 E8              4371 	lda	sp,-24(sp)
                           4372 ;	bustout.c 281
                           4373 ;	genAssign
                           4374 ;	AOP_STK for _collide_collided_1_1
   0D4E F8 14              4375 	lda	hl,20(sp)
   0D50 36 00              4376 	ld	(hl),#0x00
   0D52 23                 4377 	inc	hl
   0D53 36 00              4378 	ld	(hl),#0x00
                           4379 ;	bustout.c 284
                           4380 ;	genAssign
                           4381 ;	AOP_STK for _collide_i_1_1
   0D55 23                 4382 	inc	hl
   0D56 36 00              4383 	ld	(hl),#0x00
   0D58 23                 4384 	inc	hl
   0D59 36 00              4385 	ld	(hl),#0x00
                           4386 ;	genLabel
   0D5B                    4387 00155$:
                           4388 ;	genCmpLt
                           4389 ;	AOP_STK for _collide_i_1_1
   0D5B F8 17              4390 	lda	hl,23(sp)
   0D5D 7E                 4391 	ld	a,(hl)
   0D5E EE 80              4392 	xor	a,#0x80
   0D60 5F                 4393 	ld	e,a
   0D61 16 80              4394 	ld	d,#0x80
   0D63 2B                 4395 	dec	hl
   0D64 7E                 4396 	ld	a,(hl)
   0D65 D6 18              4397 	sub	a,#0x18
   0D67 7B                 4398 	ld	a,e
   0D68 9A                 4399 	sbc	a,d
   0D69 D2 EB 0F           4400 	jp	nc,00158$
                           4401 ;	bustout.c 285
                           4402 ;	genMult
                           4403 ;	AOP_STK for _collide_i_1_1
                           4404 ;	AOP_STK for _collide_sloc0_1_0
   0D6C 5E                 4405 	ld	e,(hl)
   0D6D 23                 4406 	inc	hl
   0D6E 56                 4407 	ld	d,(hl)
   0D6F 6B                 4408 	ld	l,e
   0D70 62                 4409 	ld	h,d
   0D71 29                 4410 	add	hl,hl
   0D72 19                 4411 	add	hl,de
   0D73 29                 4412 	add	hl,hl
   0D74 7D                 4413 	ld	a,l
   0D75 54                 4414 	ld	d,h
   0D76 F8 04              4415 	lda	hl,4(sp)
   0D78 22                 4416 	ld	(hl+),a
   0D79 72                 4417 	ld	(hl),d
                           4418 ;	genPlus
                           4419 ;	AOP_STK for _collide_sloc0_1_0
                           4420 ;	AOP_STK for _collide_sloc1_1_0
                           4421 ;	Can't optimise plus by inc, falling back to the normal way
   0D7A 11 6D 0F           4422 	ld	de,#_block_sprites
   0D7D 2B                 4423 	dec	hl
   0D7E 2A                 4424 	ld	a,(hl+)
   0D7F 66                 4425 	ld	h,(hl)
   0D80 6F                 4426 	ld	l,a
   0D81 19                 4427 	add	hl,de
   0D82 7D                 4428 	ld	a,l
   0D83 54                 4429 	ld	d,h
   0D84 F8 02              4430 	lda	hl,2(sp)
                           4431 ;	genPointerGet
                           4432 ;	AOP_STK for _collide_sloc1_1_0
                           4433 ;	AOP_STK for _collide_block_i_2_2
   0D86 22                 4434 	ld	(hl+),a
   0D87 72                 4435 	ld	(hl),d
   0D88 5F                 4436 	ld	e,a
   0D89 1A                 4437 	ld	a,(de)
   0D8A F8 12              4438 	lda	hl,18(sp)
   0D8C 77                 4439 	ld	(hl),a
   0D8D 13                 4440 	inc	de
   0D8E 1A                 4441 	ld	a,(de)
   0D8F 23                 4442 	inc	hl
   0D90 77                 4443 	ld	(hl),a
                           4444 ;	genAssign
                           4445 ;	AOP_STK for _collide_block_i_2_2
                           4446 ;	(registers are the same)
                           4447 ;	bustout.c 286
                           4448 ;	genPlus
                           4449 ;	AOP_STK for _collide_sloc1_1_0
                           4450 ;	genPlusIncr
   0D91 F8 02              4451 	lda	hl,2(sp)
   0D93 4E                 4452 	ld	c,(hl)
   0D94 23                 4453 	inc	hl
   0D95 46                 4454 	ld	b,(hl)
   0D96 03                 4455 	inc	bc
   0D97 03                 4456 	inc	bc
                           4457 ;	genPointerGet
   0D98 59                 4458 	ld	e,c
   0D99 50                 4459 	ld	d,b
   0D9A 1A                 4460 	ld	a,(de)
   0D9B 4F                 4461 	ld	c,a
   0D9C 13                 4462 	inc	de
   0D9D 1A                 4463 	ld	a,(de)
   0D9E 47                 4464 	ld	b,a
                           4465 ;	genAssign
                           4466 ;	AOP_STK for _collide_block_x_2_2
   0D9F F8 10              4467 	lda	hl,16(sp)
   0DA1 71                 4468 	ld	(hl),c
   0DA2 23                 4469 	inc	hl
   0DA3 70                 4470 	ld	(hl),b
                           4471 ;	bustout.c 287
                           4472 ;	genPlus
                           4473 ;	AOP_STK for _collide_sloc1_1_0
                           4474 ;	genPlusIncr
                           4475 ;	Can't optimise plus by inc, falling back to the normal way
   0DA4 F8 02              4476 	lda	hl,2(sp)
   0DA6 5E                 4477 	ld	e,(hl)
   0DA7 23                 4478 	inc	hl
   0DA8 56                 4479 	ld	d,(hl)
   0DA9 21 04 00           4480 	ld	hl,#0x0004
   0DAC 19                 4481 	add	hl,de
   0DAD 4D                 4482 	ld	c,l
   0DAE 44                 4483 	ld	b,h
                           4484 ;	genPointerGet
   0DAF 59                 4485 	ld	e,c
   0DB0 50                 4486 	ld	d,b
   0DB1 1A                 4487 	ld	a,(de)
   0DB2 4F                 4488 	ld	c,a
   0DB3 13                 4489 	inc	de
   0DB4 1A                 4490 	ld	a,(de)
   0DB5 47                 4491 	ld	b,a
                           4492 ;	genAssign
                           4493 ;	AOP_STK for _collide_block_y_2_2
   0DB6 F8 0E              4494 	lda	hl,14(sp)
   0DB8 71                 4495 	ld	(hl),c
   0DB9 23                 4496 	inc	hl
   0DBA 70                 4497 	ld	(hl),b
                           4498 ;	bustout.c 288
                           4499 ;	genAssign
                           4500 ;	AOP_STK for _collide_hit_top_2_2
   0DBB F8 0C              4501 	lda	hl,12(sp)
   0DBD 36 00              4502 	ld	(hl),#0x00
   0DBF 23                 4503 	inc	hl
   0DC0 36 00              4504 	ld	(hl),#0x00
                           4505 ;	bustout.c 289
                           4506 ;	genAssign
                           4507 ;	AOP_STK for _collide_hit_bottom_2_2
   0DC2 F8 0A              4508 	lda	hl,10(sp)
   0DC4 36 00              4509 	ld	(hl),#0x00
   0DC6 23                 4510 	inc	hl
   0DC7 36 00              4511 	ld	(hl),#0x00
                           4512 ;	bustout.c 290
                           4513 ;	genAssign
                           4514 ;	AOP_STK for _collide_hit_left_2_2
   0DC9 F8 08              4515 	lda	hl,8(sp)
   0DCB 36 00              4516 	ld	(hl),#0x00
   0DCD 23                 4517 	inc	hl
   0DCE 36 00              4518 	ld	(hl),#0x00
                           4519 ;	bustout.c 291
                           4520 ;	genAssign
                           4521 ;	AOP_STK for _collide_hit_right_2_2
   0DD0 F8 06              4522 	lda	hl,6(sp)
   0DD2 36 00              4523 	ld	(hl),#0x00
   0DD4 23                 4524 	inc	hl
   0DD5 36 00              4525 	ld	(hl),#0x00
                           4526 ;	bustout.c 294
                           4527 ;	genIfx
                           4528 ;	AOP_STK for _collide_collided_1_1
   0DD7 F8 14              4529 	lda	hl,20(sp)
   0DD9 2A                 4530 	ld	a,(hl+)
   0DDA B6                 4531 	or	a,(hl)
   0DDB C2 E1 0F           4532 	jp	nz,00157$
                           4533 ;	bustout.c 297
                           4534 ;	genPlus
                           4535 ;	AOP_STK for _collide_block_x_2_2
                           4536 ;	AOP_STK for _collide_block_y_2_2
                           4537 ;	AOP_STK for _collide_sloc1_1_0
                           4538 ;	Can't optimise plus by inc, falling back to the normal way
   0DDE F8 10              4539 	lda	hl,16(sp)
   0DE0 5E                 4540 	ld	e,(hl)
   0DE1 23                 4541 	inc	hl
   0DE2 56                 4542 	ld	d,(hl)
   0DE3 F8 0E              4543 	lda	hl,14(sp)
   0DE5 2A                 4544 	ld	a,(hl+)
   0DE6 66                 4545 	ld	h,(hl)
   0DE7 6F                 4546 	ld	l,a
   0DE8 19                 4547 	add	hl,de
   0DE9 7D                 4548 	ld	a,l
   0DEA 54                 4549 	ld	d,h
   0DEB F8 02              4550 	lda	hl,2(sp)
   0DED 22                 4551 	ld	(hl+),a
   0DEE 72                 4552 	ld	(hl),d
                           4553 ;	genCmpEq
                           4554 ;	AOP_STK for _collide_sloc1_1_0
                           4555 ; genCmpEq: left 2, right 2, result 0
   0DEF 2B                 4556 	dec	hl
   0DF0 2A                 4557 	ld	a,(hl+)
   0DF1 B6                 4558 	or	a,(hl)
   0DF2 CA E1 0F           4559 	jp	z,00157$
   0DF5                    4560 00189$:
                           4561 ;	bustout.c 298
                           4562 ;	genPlus
                           4563 ;	AOP_STK for _collide_block_x_2_2
                           4564 ;	genPlusIncr
                           4565 ;	Can't optimise plus by inc, falling back to the normal way
   0DF5 F8 10              4566 	lda	hl,16(sp)
   0DF7 5E                 4567 	ld	e,(hl)
   0DF8 23                 4568 	inc	hl
   0DF9 56                 4569 	ld	d,(hl)
   0DFA 21 08 00           4570 	ld	hl,#0x0008
   0DFD 19                 4571 	add	hl,de
   0DFE 4D                 4572 	ld	c,l
   0DFF 44                 4573 	ld	b,h
                           4574 ;	genCast
                           4575 ;	AOP_HL for _ball_x
                           4576 ;	AOP_STK for _collide_sloc1_1_0
   0E00 21 5F 0F           4577 	ld	hl,#_ball_x
   0E03 7E                 4578 	ld	a,(hl)
   0E04 F8 02              4579 	lda	hl,2(sp)
   0E06 22                 4580 	ld	(hl+),a
   0E07 36 00              4581 	ld	(hl),#0x00
                           4582 ;	genCmpGt
                           4583 ;	AOP_STK for _collide_sloc1_1_0
   0E09 79                 4584 	ld	a,c
   0E0A 2B                 4585 	dec	hl
   0E0B 96                 4586 	sub	a,(hl)
   0E0C 78                 4587 	ld	a,b
   0E0D 23                 4588 	inc	hl
   0E0E 9E                 4589 	sbc	a,(hl)
   0E0F DA E1 0F           4590 	jp	c,00157$
                           4591 ;	genMinus
                           4592 ;	AOP_STK for _collide_block_x_2_2
   0E12 F8 10              4593 	lda	hl,16(sp)
   0E14 5E                 4594 	ld	e,(hl)
   0E15 23                 4595 	inc	hl
   0E16 56                 4596 	ld	d,(hl)
   0E17 21 08 00           4597 	ld	hl,#0x0008
   0E1A 7B                 4598 	ld	a,e
   0E1B 95                 4599 	sub	a,l
   0E1C 5F                 4600 	ld	e,a
   0E1D 7A                 4601 	ld	a,d
   0E1E 9C                 4602 	sbc	a,h
   0E1F 47                 4603 	ld	b,a
   0E20 4B                 4604 	ld	c,e
                           4605 ;	genCmpLt
                           4606 ;	AOP_STK for _collide_sloc1_1_0
   0E21 F8 02              4607 	lda	hl,2(sp)
   0E23 7E                 4608 	ld	a,(hl)
   0E24 91                 4609 	sub	a,c
   0E25 23                 4610 	inc	hl
   0E26 7E                 4611 	ld	a,(hl)
   0E27 98                 4612 	sbc	a,b
   0E28 DA E1 0F           4613 	jp	c,00157$
                           4614 ;	bustout.c 299
                           4615 ;	genPlus
                           4616 ;	AOP_STK for _collide_block_y_2_2
                           4617 ;	genPlusIncr
                           4618 ;	Can't optimise plus by inc, falling back to the normal way
   0E2B F8 0E              4619 	lda	hl,14(sp)
   0E2D 5E                 4620 	ld	e,(hl)
   0E2E 23                 4621 	inc	hl
   0E2F 56                 4622 	ld	d,(hl)
   0E30 21 08 00           4623 	ld	hl,#0x0008
   0E33 19                 4624 	add	hl,de
   0E34 4D                 4625 	ld	c,l
   0E35 44                 4626 	ld	b,h
                           4627 ;	genCast
                           4628 ;	AOP_HL for _ball_y
                           4629 ;	AOP_STK for _collide_sloc2_1_0
   0E36 21 60 0F           4630 	ld	hl,#_ball_y
   0E39 7E                 4631 	ld	a,(hl)
   0E3A F8 00              4632 	lda	hl,0(sp)
   0E3C 22                 4633 	ld	(hl+),a
   0E3D 36 00              4634 	ld	(hl),#0x00
                           4635 ;	genCmpGt
                           4636 ;	AOP_STK for _collide_sloc2_1_0
   0E3F 79                 4637 	ld	a,c
   0E40 2B                 4638 	dec	hl
   0E41 96                 4639 	sub	a,(hl)
   0E42 78                 4640 	ld	a,b
   0E43 23                 4641 	inc	hl
   0E44 9E                 4642 	sbc	a,(hl)
   0E45 DA E1 0F           4643 	jp	c,00157$
                           4644 ;	bustout.c 300
                           4645 ;	genMinus
                           4646 ;	AOP_STK for _collide_block_y_2_2
   0E48 F8 0E              4647 	lda	hl,14(sp)
   0E4A 5E                 4648 	ld	e,(hl)
   0E4B 23                 4649 	inc	hl
   0E4C 56                 4650 	ld	d,(hl)
   0E4D 21 10 00           4651 	ld	hl,#0x0010
   0E50 7B                 4652 	ld	a,e
   0E51 95                 4653 	sub	a,l
   0E52 5F                 4654 	ld	e,a
   0E53 7A                 4655 	ld	a,d
   0E54 9C                 4656 	sbc	a,h
   0E55 47                 4657 	ld	b,a
   0E56 4B                 4658 	ld	c,e
                           4659 ;	genCmpLt
                           4660 ;	AOP_STK for _collide_sloc2_1_0
   0E57 F8 00              4661 	lda	hl,0(sp)
   0E59 7E                 4662 	ld	a,(hl)
   0E5A 91                 4663 	sub	a,c
   0E5B 23                 4664 	inc	hl
   0E5C 7E                 4665 	ld	a,(hl)
   0E5D 98                 4666 	sbc	a,b
   0E5E DA E1 0F           4667 	jp	c,00157$
                           4668 ;	bustout.c 301
                           4669 ;	genAssign
                           4670 ;	AOP_STK for _collide_collided_1_1
   0E61 F8 14              4671 	lda	hl,20(sp)
   0E63 36 01              4672 	ld	(hl),#0x01
   0E65 23                 4673 	inc	hl
   0E66 36 00              4674 	ld	(hl),#0x00
                           4675 ;	bustout.c 302
                           4676 ;	genPlus
                           4677 ;	AOP_HL for _game_score
                           4678 ;	genPlusIncr
                           4679 ;	Can't optimise plus by inc, falling back to the normal way
   0E68 21 65 0F           4680 	ld	hl,#_game_score
   0E6B 7E                 4681 	ld	a,(hl)
   0E6C C6 50              4682 	add	a,#0x50
   0E6E 22                 4683 	ld	(hl+),a
   0E6F 7E                 4684 	ld	a,(hl)
   0E70 CE 00              4685 	adc	a,#0x00
   0E72 77                 4686 	ld	(hl),a
                           4687 ;	bustout.c 305
                           4688 ;	genCast
                           4689 ;	AOP_STK for _collide_block_i_2_2
   0E73 F8 12              4690 	lda	hl,18(sp)
   0E75 4E                 4691 	ld	c,(hl)
                           4692 ;	genIpush
                           4693 ; _saveRegsForCall: sendSetSize: 0 deInUse: 0 bcInUse: 0 deSending: 0
   0E76 21 00 00           4694 	ld	hl,#0x0000
   0E79 E5                 4695 	push	hl
                           4696 ;	genIpush
   0E7A 79                 4697 	ld	a,c
   0E7B F5                 4698 	push	af
   0E7C 33                 4699 	inc	sp
                           4700 ;	genCall
   0E7D CD 00 00           4701 	call	_move_sprite
   0E80 E8 03              4702 	lda	sp,3(sp)
                           4703 ;	bustout.c 306
                           4704 ;	genPlus
                           4705 ;	AOP_STK for _collide_sloc0_1_0
                           4706 ;	Can't optimise plus by inc, falling back to the normal way
   0E82 11 6D 0F           4707 	ld	de,#_block_sprites
   0E85 F8 04              4708 	lda	hl,4(sp)
   0E87 2A                 4709 	ld	a,(hl+)
   0E88 66                 4710 	ld	h,(hl)
   0E89 6F                 4711 	ld	l,a
   0E8A 19                 4712 	add	hl,de
   0E8B 4D                 4713 	ld	c,l
   0E8C 44                 4714 	ld	b,h
                           4715 ;	genPlus
                           4716 ;	genPlusIncr
   0E8D 69                 4717 	ld	l,c
   0E8E 60                 4718 	ld	h,b
   0E8F 23                 4719 	inc	hl
   0E90 23                 4720 	inc	hl
                           4721 ;	genAssign (pointer)
   0E91 5D                 4722 	ld	e,l
   0E92 54                 4723 	ld	d,h
   0E93 3E 00              4724 	ld	a,#0x00
   0E95 12                 4725 	ld	(de),a
   0E96 13                 4726 	inc	de
   0E97 3E 00              4727 	ld	a,#0x00
   0E99 12                 4728 	ld	(de),a
                           4729 ;	bustout.c 307
                           4730 ;	genPlus
                           4731 ;	genPlusIncr
   0E9A 21 04 00           4732 	ld	hl,#0x0004
   0E9D 09                 4733 	add	hl,bc
                           4734 ;	genAssign (pointer)
   0E9E 5D                 4735 	ld	e,l
   0E9F 54                 4736 	ld	d,h
   0EA0 3E 00              4737 	ld	a,#0x00
   0EA2 12                 4738 	ld	(de),a
   0EA3 13                 4739 	inc	de
   0EA4 3E 00              4740 	ld	a,#0x00
   0EA6 12                 4741 	ld	(de),a
                           4742 ;	bustout.c 308
                           4743 ;	genIpush
                           4744 ; _saveRegsForCall: sendSetSize: 0 deInUse: 0 bcInUse: 0 deSending: 0
   0EA7 21 02 00           4745 	ld	hl,#0x0002
   0EAA E5                 4746 	push	hl
                           4747 ;	genIpush
                           4748 ;	AOP_STK for _collide_i_1_1
   0EAB F8 18              4749 	lda	hl,24(sp)
   0EAD 2A                 4750 	ld	a,(hl+)
   0EAE 66                 4751 	ld	h,(hl)
   0EAF 6F                 4752 	ld	l,a
   0EB0 E5                 4753 	push	hl
                           4754 ;	genCall
   0EB1 CD 00 00           4755 	call	__modsint_rrx_s
   0EB4 42                 4756 	ld	b,d
   0EB5 4B                 4757 	ld	c,e
   0EB6 E8 04              4758 	lda	sp,4(sp)
                           4759 ;	genCmpEq
                           4760 ; genCmpEq: left 2, right 2, result 0
   0EB8 79                 4761 	ld	a,c
   0EB9 B0                 4762 	or	a,b
   0EBA C2 06 0F           4763 	jp	nz,00102$
   0EBD 18 03              4764 	jr	00191$
   0EBF                    4765 00190$:
   0EBF C3 06 0F           4766 	jp	00102$
   0EC2                    4767 00191$:
                           4768 ;	bustout.c 310
                           4769 ;	genPlus
                           4770 ;	AOP_STK for _collide_block_i_2_2
                           4771 ;	genPlusIncr
   0EC2 F8 12              4772 	lda	hl,18(sp)
   0EC4 4E                 4773 	ld	c,(hl)
   0EC5 23                 4774 	inc	hl
   0EC6 46                 4775 	ld	b,(hl)
   0EC7 03                 4776 	inc	bc
                           4777 ;	genCast
                           4778 ; Removed redundent load
                           4779 ;	genIpush
                           4780 ; _saveRegsForCall: sendSetSize: 0 deInUse: 0 bcInUse: 0 deSending: 0
   0EC8 21 00 00           4781 	ld	hl,#0x0000
   0ECB E5                 4782 	push	hl
                           4783 ;	genIpush
   0ECC 79                 4784 	ld	a,c
   0ECD F5                 4785 	push	af
   0ECE 33                 4786 	inc	sp
                           4787 ;	genCall
   0ECF CD 00 00           4788 	call	_move_sprite
   0ED2 E8 03              4789 	lda	sp,3(sp)
                           4790 ;	bustout.c 311
                           4791 ;	genPlus
                           4792 ;	AOP_STK for _collide_i_1_1
                           4793 ;	genPlusIncr
   0ED4 F8 16              4794 	lda	hl,22(sp)
   0ED6 4E                 4795 	ld	c,(hl)
   0ED7 23                 4796 	inc	hl
   0ED8 46                 4797 	ld	b,(hl)
   0ED9 03                 4798 	inc	bc
                           4799 ;	genMult
   0EDA 59                 4800 	ld	e,c
   0EDB 50                 4801 	ld	d,b
   0EDC 6B                 4802 	ld	l,e
   0EDD 62                 4803 	ld	h,d
   0EDE 29                 4804 	add	hl,hl
   0EDF 19                 4805 	add	hl,de
   0EE0 29                 4806 	add	hl,hl
   0EE1 4D                 4807 	ld	c,l
   0EE2 44                 4808 	ld	b,h
                           4809 ;	genPlus
                           4810 ;	Can't optimise plus by inc, falling back to the normal way
   0EE3 21 6D 0F           4811 	ld	hl,#_block_sprites
   0EE6 09                 4812 	add	hl,bc
   0EE7 4D                 4813 	ld	c,l
   0EE8 44                 4814 	ld	b,h
                           4815 ;	genPlus
                           4816 ;	genPlusIncr
   0EE9 69                 4817 	ld	l,c
   0EEA 60                 4818 	ld	h,b
   0EEB 23                 4819 	inc	hl
   0EEC 23                 4820 	inc	hl
                           4821 ;	genAssign (pointer)
   0EED 5D                 4822 	ld	e,l
   0EEE 54                 4823 	ld	d,h
   0EEF 3E 00              4824 	ld	a,#0x00
   0EF1 12                 4825 	ld	(de),a
   0EF2 13                 4826 	inc	de
   0EF3 3E 00              4827 	ld	a,#0x00
   0EF5 12                 4828 	ld	(de),a
                           4829 ;	bustout.c 312
                           4830 ;	genPlus
                           4831 ;	genPlusIncr
   0EF6 21 04 00           4832 	ld	hl,#0x0004
   0EF9 09                 4833 	add	hl,bc
                           4834 ;	genAssign (pointer)
   0EFA 5D                 4835 	ld	e,l
   0EFB 54                 4836 	ld	d,h
   0EFC 3E 00              4837 	ld	a,#0x00
   0EFE 12                 4838 	ld	(de),a
   0EFF 13                 4839 	inc	de
   0F00 3E 00              4840 	ld	a,#0x00
   0F02 12                 4841 	ld	(de),a
                           4842 ;	genGoto
   0F03 C3 47 0F           4843 	jp	00103$
                           4844 ;	genLabel
   0F06                    4845 00102$:
                           4846 ;	bustout.c 315
                           4847 ;	genMinus
                           4848 ;	AOP_STK for _collide_block_i_2_2
   0F06 F8 12              4849 	lda	hl,18(sp)
   0F08 4E                 4850 	ld	c,(hl)
   0F09 23                 4851 	inc	hl
   0F0A 46                 4852 	ld	b,(hl)
   0F0B 0B                 4853 	dec	bc
                           4854 ;	genCast
                           4855 ; Removed redundent load
                           4856 ;	genIpush
                           4857 ; _saveRegsForCall: sendSetSize: 0 deInUse: 0 bcInUse: 0 deSending: 0
   0F0C 21 00 00           4858 	ld	hl,#0x0000
   0F0F E5                 4859 	push	hl
                           4860 ;	genIpush
   0F10 79                 4861 	ld	a,c
   0F11 F5                 4862 	push	af
   0F12 33                 4863 	inc	sp
                           4864 ;	genCall
   0F13 CD 00 00           4865 	call	_move_sprite
   0F16 E8 03              4866 	lda	sp,3(sp)
                           4867 ;	bustout.c 316
                           4868 ;	genMinus
                           4869 ;	AOP_STK for _collide_i_1_1
   0F18 F8 16              4870 	lda	hl,22(sp)
   0F1A 4E                 4871 	ld	c,(hl)
   0F1B 23                 4872 	inc	hl
   0F1C 46                 4873 	ld	b,(hl)
   0F1D 0B                 4874 	dec	bc
                           4875 ;	genMult
   0F1E 59                 4876 	ld	e,c
   0F1F 50                 4877 	ld	d,b
   0F20 6B                 4878 	ld	l,e
   0F21 62                 4879 	ld	h,d
   0F22 29                 4880 	add	hl,hl
   0F23 19                 4881 	add	hl,de
   0F24 29                 4882 	add	hl,hl
   0F25 4D                 4883 	ld	c,l
   0F26 44                 4884 	ld	b,h
                           4885 ;	genPlus
                           4886 ;	Can't optimise plus by inc, falling back to the normal way
   0F27 21 6D 0F           4887 	ld	hl,#_block_sprites
   0F2A 09                 4888 	add	hl,bc
   0F2B 4D                 4889 	ld	c,l
   0F2C 44                 4890 	ld	b,h
                           4891 ;	genPlus
                           4892 ;	genPlusIncr
   0F2D 69                 4893 	ld	l,c
   0F2E 60                 4894 	ld	h,b
   0F2F 23                 4895 	inc	hl
   0F30 23                 4896 	inc	hl
                           4897 ;	genAssign (pointer)
   0F31 5D                 4898 	ld	e,l
   0F32 54                 4899 	ld	d,h
   0F33 3E 00              4900 	ld	a,#0x00
   0F35 12                 4901 	ld	(de),a
   0F36 13                 4902 	inc	de
   0F37 3E 00              4903 	ld	a,#0x00
   0F39 12                 4904 	ld	(de),a
                           4905 ;	bustout.c 317
                           4906 ;	genPlus
                           4907 ;	genPlusIncr
   0F3A 21 04 00           4908 	ld	hl,#0x0004
   0F3D 09                 4909 	add	hl,bc
                           4910 ;	genAssign (pointer)
   0F3E 5D                 4911 	ld	e,l
   0F3F 54                 4912 	ld	d,h
   0F40 3E 00              4913 	ld	a,#0x00
   0F42 12                 4914 	ld	(de),a
   0F43 13                 4915 	inc	de
   0F44 3E 00              4916 	ld	a,#0x00
   0F46 12                 4917 	ld	(de),a
                           4918 ;	genLabel
   0F47                    4919 00103$:
                           4920 ;	bustout.c 320
                           4921 ;	genAssign
                           4922 ;	AOP_STK for _collide_block_y_2_2
   0F47 F8 0E              4923 	lda	hl,14(sp)
   0F49 4E                 4924 	ld	c,(hl)
   0F4A 23                 4925 	inc	hl
   0F4B 46                 4926 	ld	b,(hl)
                           4927 ;	genCmpLt
                           4928 ;	AOP_STK for _collide_sloc2_1_0
   0F4C F8 00              4929 	lda	hl,0(sp)
   0F4E 7E                 4930 	ld	a,(hl)
   0F4F 91                 4931 	sub	a,c
   0F50 23                 4932 	inc	hl
   0F51 7E                 4933 	ld	a,(hl)
   0F52 98                 4934 	sbc	a,b
   0F53 D2 60 0F           4935 	jp	nc,00113$
                           4936 ;	bustout.c 321
                           4937 ;	genAssign
                           4938 ;	AOP_STK for _collide_hit_top_2_2
   0F56 F8 0C              4939 	lda	hl,12(sp)
   0F58 36 01              4940 	ld	(hl),#0x01
   0F5A 23                 4941 	inc	hl
   0F5B 36 00              4942 	ld	(hl),#0x00
                           4943 ;	genGoto
   0F5D C3 A8 0F           4944 	jp	00114$
                           4945 ;	genLabel
   0F60                    4946 00113$:
                           4947 ;	bustout.c 322
                           4948 ;	genAssign
                           4949 ;	AOP_STK for _collide_block_y_2_2
   0F60 F8 0E              4950 	lda	hl,14(sp)
   0F62 4E                 4951 	ld	c,(hl)
   0F63 23                 4952 	inc	hl
   0F64 46                 4953 	ld	b,(hl)
                           4954 ;	genCmpGt
                           4955 ;	AOP_STK for _collide_sloc2_1_0
   0F65 79                 4956 	ld	a,c
   0F66 F8 00              4957 	lda	hl,0(sp)
   0F68 96                 4958 	sub	a,(hl)
   0F69 78                 4959 	ld	a,b
   0F6A 23                 4960 	inc	hl
   0F6B 9E                 4961 	sbc	a,(hl)
   0F6C D2 79 0F           4962 	jp	nc,00110$
                           4963 ;	bustout.c 323
                           4964 ;	genAssign
                           4965 ;	AOP_STK for _collide_hit_bottom_2_2
   0F6F F8 0A              4966 	lda	hl,10(sp)
   0F71 36 01              4967 	ld	(hl),#0x01
   0F73 23                 4968 	inc	hl
   0F74 36 00              4969 	ld	(hl),#0x00
                           4970 ;	genGoto
   0F76 C3 A8 0F           4971 	jp	00114$
                           4972 ;	genLabel
   0F79                    4973 00110$:
                           4974 ;	bustout.c 324
                           4975 ;	genAssign
                           4976 ;	AOP_STK for _collide_block_x_2_2
   0F79 F8 10              4977 	lda	hl,16(sp)
   0F7B 4E                 4978 	ld	c,(hl)
   0F7C 23                 4979 	inc	hl
   0F7D 46                 4980 	ld	b,(hl)
                           4981 ;	genCmpLt
                           4982 ;	AOP_STK for _collide_sloc1_1_0
   0F7E F8 02              4983 	lda	hl,2(sp)
   0F80 7E                 4984 	ld	a,(hl)
   0F81 91                 4985 	sub	a,c
   0F82 23                 4986 	inc	hl
   0F83 7E                 4987 	ld	a,(hl)
   0F84 98                 4988 	sbc	a,b
   0F85 D2 92 0F           4989 	jp	nc,00107$
                           4990 ;	bustout.c 325
                           4991 ;	genAssign
                           4992 ;	AOP_STK for _collide_hit_left_2_2
   0F88 F8 08              4993 	lda	hl,8(sp)
   0F8A 36 01              4994 	ld	(hl),#0x01
   0F8C 23                 4995 	inc	hl
   0F8D 36 00              4996 	ld	(hl),#0x00
                           4997 ;	genGoto
   0F8F C3 A8 0F           4998 	jp	00114$
                           4999 ;	genLabel
   0F92                    5000 00107$:
                           5001 ;	bustout.c 326
                           5002 ;	genAssign
                           5003 ;	AOP_STK for _collide_block_x_2_2
   0F92 F8 10              5004 	lda	hl,16(sp)
   0F94 4E                 5005 	ld	c,(hl)
   0F95 23                 5006 	inc	hl
   0F96 46                 5007 	ld	b,(hl)
                           5008 ;	genCmpGt
                           5009 ;	AOP_STK for _collide_sloc1_1_0
   0F97 79                 5010 	ld	a,c
   0F98 F8 02              5011 	lda	hl,2(sp)
   0F9A 96                 5012 	sub	a,(hl)
   0F9B 78                 5013 	ld	a,b
   0F9C 23                 5014 	inc	hl
   0F9D 9E                 5015 	sbc	a,(hl)
   0F9E D2 A8 0F           5016 	jp	nc,00114$
                           5017 ;	bustout.c 327
                           5018 ;	genAssign
                           5019 ;	AOP_STK for _collide_hit_right_2_2
   0FA1 F8 06              5020 	lda	hl,6(sp)
   0FA3 36 01              5021 	ld	(hl),#0x01
   0FA5 23                 5022 	inc	hl
   0FA6 36 00              5023 	ld	(hl),#0x00
                           5024 ;	genLabel
   0FA8                    5025 00114$:
                           5026 ;	bustout.c 330
                           5027 ;	genIfx
                           5028 ;	AOP_STK for _collide_hit_top_2_2
   0FA8 F8 0C              5029 	lda	hl,12(sp)
   0FAA 2A                 5030 	ld	a,(hl+)
   0FAB B6                 5031 	or	a,(hl)
   0FAC CA B7 0F           5032 	jp	z,00124$
                           5033 ;	bustout.c 331
                           5034 ;	genAssign
                           5035 ;	AOP_HL for _ball_vel_y
   0FAF 21 62 0F           5036 	ld	hl,#_ball_vel_y
   0FB2 36 FF              5037 	ld	(hl),#0xFF
                           5038 ;	genGoto
   0FB4 C3 E1 0F           5039 	jp	00157$
                           5040 ;	genLabel
   0FB7                    5041 00124$:
                           5042 ;	bustout.c 332
                           5043 ;	genIfx
                           5044 ;	AOP_STK for _collide_hit_bottom_2_2
   0FB7 F8 0A              5045 	lda	hl,10(sp)
   0FB9 2A                 5046 	ld	a,(hl+)
   0FBA B6                 5047 	or	a,(hl)
   0FBB CA C6 0F           5048 	jp	z,00121$
                           5049 ;	bustout.c 333
                           5050 ;	genAssign
                           5051 ;	AOP_HL for _ball_vel_y
   0FBE 21 62 0F           5052 	ld	hl,#_ball_vel_y
   0FC1 36 01              5053 	ld	(hl),#0x01
                           5054 ;	genGoto
   0FC3 C3 E1 0F           5055 	jp	00157$
                           5056 ;	genLabel
   0FC6                    5057 00121$:
                           5058 ;	bustout.c 334
                           5059 ;	genIfx
                           5060 ;	AOP_STK for _collide_hit_left_2_2
   0FC6 F8 08              5061 	lda	hl,8(sp)
   0FC8 2A                 5062 	ld	a,(hl+)
   0FC9 B6                 5063 	or	a,(hl)
   0FCA CA D5 0F           5064 	jp	z,00118$
                           5065 ;	bustout.c 335
                           5066 ;	genAssign
                           5067 ;	AOP_HL for _ball_vel_x
   0FCD 21 61 0F           5068 	ld	hl,#_ball_vel_x
   0FD0 36 FF              5069 	ld	(hl),#0xFF
                           5070 ;	genGoto
   0FD2 C3 E1 0F           5071 	jp	00157$
                           5072 ;	genLabel
   0FD5                    5073 00118$:
                           5074 ;	bustout.c 336
                           5075 ;	genIfx
                           5076 ;	AOP_STK for _collide_hit_right_2_2
   0FD5 F8 06              5077 	lda	hl,6(sp)
   0FD7 2A                 5078 	ld	a,(hl+)
   0FD8 B6                 5079 	or	a,(hl)
   0FD9 CA E1 0F           5080 	jp	z,00157$
                           5081 ;	bustout.c 337
                           5082 ;	genAssign
                           5083 ;	AOP_HL for _ball_vel_x
   0FDC 21 61 0F           5084 	ld	hl,#_ball_vel_x
   0FDF 36 01              5085 	ld	(hl),#0x01
                           5086 ;	genLabel
   0FE1                    5087 00157$:
                           5088 ;	bustout.c 284
                           5089 ;	genPlus
                           5090 ;	AOP_STK for _collide_i_1_1
                           5091 ;	genPlusIncr
   0FE1 F8 16              5092 	lda	hl,22(sp)
   0FE3 34                 5093 	inc	(hl)
   0FE4 20 02              5094 	jr	nz,00192$
   0FE6 23                 5095 	inc	hl
   0FE7 34                 5096 	inc	(hl)
   0FE8                    5097 00192$:
                           5098 ;	genGoto
   0FE8 C3 5B 0D           5099 	jp	00155$
                           5100 ;	genLabel
   0FEB                    5101 00158$:
                           5102 ;	bustout.c 343
                           5103 ;	genCast
                           5104 ;	AOP_HL for _paddle_x
                           5105 ;	AOP_STK for _collide_sloc2_1_0
   0FEB 21 5B 0F           5106 	ld	hl,#_paddle_x
   0FEE 7E                 5107 	ld	a,(hl)
   0FEF F8 00              5108 	lda	hl,0(sp)
   0FF1 22                 5109 	ld	(hl+),a
   0FF2 36 00              5110 	ld	(hl),#0x00
                           5111 ;	genAssign
                           5112 ;	AOP_HL for _SCREEN_WIDTH
   0FF4 21 48 0F           5113 	ld	hl,#_SCREEN_WIDTH
   0FF7 4E                 5114 	ld	c,(hl)
   0FF8 23                 5115 	inc	hl
   0FF9 46                 5116 	ld	b,(hl)
                           5117 ;	genCmpLt
                           5118 ;	AOP_STK for _collide_sloc2_1_0
   0FFA F8 00              5119 	lda	hl,0(sp)
   0FFC 7E                 5120 	ld	a,(hl)
   0FFD 91                 5121 	sub	a,c
   0FFE 23                 5122 	inc	hl
   0FFF 7E                 5123 	ld	a,(hl)
   1000 98                 5124 	sbc	a,b
   1001 DA 09 10           5125 	jp	c,00134$
                           5126 ;	bustout.c 344
                           5127 ;	genAssign
                           5128 ;	AOP_HL for _paddle_vel_x
   1004 21 5D 0F           5129 	ld	hl,#_paddle_vel_x
   1007 36 00              5130 	ld	(hl),#0x00
                           5131 ;	genLabel
   1009                    5132 00134$:
                           5133 ;	bustout.c 346
                           5134 ;	genCmpGt
                           5135 ;	AOP_HL for _paddle_x
   1009 3E 00              5136 	ld	a,#0x00
   100B 21 5B 0F           5137 	ld	hl,#_paddle_x
   100E 96                 5138 	sub	a,(hl)
   100F DA 17 10           5139 	jp	c,00136$
                           5140 ;	bustout.c 347
                           5141 ;	genAssign
                           5142 ;	AOP_HL for _paddle_vel_x
   1012 21 5D 0F           5143 	ld	hl,#_paddle_vel_x
   1015 36 00              5144 	ld	(hl),#0x00
                           5145 ;	genLabel
   1017                    5146 00136$:
                           5147 ;	bustout.c 351
                           5148 ;	genPlus
                           5149 ;	AOP_HL for _ball_y
                           5150 ;	genPlusIncr
   1017 21 60 0F           5151 	ld	hl,#_ball_y
   101A 4E                 5152 	ld	c,(hl)
   101B 0C                 5153 	inc	c
   101C 0C                 5154 	inc	c
                           5155 ;	genCmpLt
                           5156 ;	AOP_HL for _paddle_y
   101D 79                 5157 	ld	a,c
   101E 21 5C 0F           5158 	ld	hl,#_paddle_y
   1021 96                 5159 	sub	a,(hl)
   1022 DA 59 10           5160 	jp	c,00143$
                           5161 ;	genMinus
                           5162 ;	AOP_HL for _ball_y
   1025 21 60 0F           5163 	ld	hl,#_ball_y
   1028 7E                 5164 	ld	a,(hl)
   1029 C6 FE              5165 	add	a,#0xFE
   102B 4F                 5166 	ld	c,a
                           5167 ;	genCmpGt
                           5168 ;	AOP_HL for _paddle_y
   102C 21 5C 0F           5169 	ld	hl,#_paddle_y
   102F 7E                 5170 	ld	a,(hl)
   1030 91                 5171 	sub	a,c
   1031 DA 59 10           5172 	jp	c,00143$
                           5173 ;	bustout.c 353
                           5174 ;	genMinus
                           5175 ;	AOP_HL for _ball_x
   1034 21 5F 0F           5176 	ld	hl,#_ball_x
   1037 7E                 5177 	ld	a,(hl)
   1038 C6 EE              5178 	add	a,#0xEE
                           5179 ;	genCmpGt
                           5180 ;	AOP_HL for _paddle_x
   103A 4F                 5181 	ld	c,a
   103B 21 5B 0F           5182 	ld	hl,#_paddle_x
   103E 96                 5183 	sub	a,(hl)
   103F D2 77 10           5184 	jp	nc,00144$
                           5185 ;	bustout.c 355
                           5186 ;	genPlus
                           5187 ;	AOP_HL for _ball_x
                           5188 ;	genPlusIncr
                           5189 ;	Can't optimise plus by inc, falling back to the normal way
   1042 21 5F 0F           5190 	ld	hl,#_ball_x
   1045 7E                 5191 	ld	a,(hl)
   1046 C6 0A              5192 	add	a,#0x0A
   1048 4F                 5193 	ld	c,a
                           5194 ;	genCmpLt
                           5195 ;	AOP_HL for _paddle_x
   1049 21 5B 0F           5196 	ld	hl,#_paddle_x
   104C 7E                 5197 	ld	a,(hl)
   104D 91                 5198 	sub	a,c
   104E D2 77 10           5199 	jp	nc,00144$
                           5200 ;	bustout.c 356
                           5201 ;	genAssign
                           5202 ;	AOP_HL for _ball_vel_y
   1051 21 62 0F           5203 	ld	hl,#_ball_vel_y
   1054 36 FF              5204 	ld	(hl),#0xFF
                           5205 ;	genGoto
   1056 C3 77 10           5206 	jp	00144$
                           5207 ;	genLabel
   1059                    5208 00143$:
                           5209 ;	bustout.c 359
                           5210 ;	genCast
                           5211 ;	AOP_HL for _ball_y
                           5212 ;	AOP_STK for _collide_sloc2_1_0
   1059 21 60 0F           5213 	ld	hl,#_ball_y
   105C 7E                 5214 	ld	a,(hl)
   105D F8 00              5215 	lda	hl,0(sp)
   105F 22                 5216 	ld	(hl+),a
   1060 36 00              5217 	ld	(hl),#0x00
                           5218 ;	genAssign
                           5219 ;	AOP_HL for _BALL_SIZE
   1062 21 4E 0F           5220 	ld	hl,#_BALL_SIZE
   1065 4E                 5221 	ld	c,(hl)
   1066 23                 5222 	inc	hl
   1067 46                 5223 	ld	b,(hl)
                           5224 ;	genCmpGt
                           5225 ;	AOP_STK for _collide_sloc2_1_0
   1068 79                 5226 	ld	a,c
   1069 F8 00              5227 	lda	hl,0(sp)
   106B 96                 5228 	sub	a,(hl)
   106C 78                 5229 	ld	a,b
   106D 23                 5230 	inc	hl
   106E 9E                 5231 	sbc	a,(hl)
   106F DA 77 10           5232 	jp	c,00144$
                           5233 ;	bustout.c 360
                           5234 ;	genAssign
                           5235 ;	AOP_HL for _ball_vel_y
   1072 21 62 0F           5236 	ld	hl,#_ball_vel_y
   1075 36 01              5237 	ld	(hl),#0x01
                           5238 ;	genLabel
   1077                    5239 00144$:
                           5240 ;	bustout.c 363
                           5241 ;	genPlus
                           5242 ;	AOP_HL for _SCREEN_HEIGHT
                           5243 ;	AOP_HL for _BALL_SIZE
                           5244 ;	Can't optimise plus by inc, falling back to the normal way
   1077 21 4A 0F           5245 	ld	hl,#_SCREEN_HEIGHT
   107A 7E                 5246 	ld	a,(hl)
   107B 21 4E 0F           5247 	ld	hl,#_BALL_SIZE
   107E 86                 5248 	add	a,(hl)
   107F 4F                 5249 	ld	c,a
   1080 21 4B 0F           5250 	ld	hl,#_SCREEN_HEIGHT + 1
   1083 7E                 5251 	ld	a,(hl)
   1084 21 4F 0F           5252 	ld	hl,#_BALL_SIZE + 1
   1087 8E                 5253 	adc	a,(hl)
   1088 47                 5254 	ld	b,a
                           5255 ;	genCast
                           5256 ;	AOP_HL for _ball_y
                           5257 ;	AOP_STK for _collide_sloc2_1_0
   1089 21 60 0F           5258 	ld	hl,#_ball_y
   108C 7E                 5259 	ld	a,(hl)
   108D F8 00              5260 	lda	hl,0(sp)
   108F 22                 5261 	ld	(hl+),a
   1090 36 00              5262 	ld	(hl),#0x00
                           5263 ;	genCmpLt
                           5264 ;	AOP_STK for _collide_sloc2_1_0
   1092 2B                 5265 	dec	hl
   1093 7E                 5266 	ld	a,(hl)
   1094 91                 5267 	sub	a,c
   1095 23                 5268 	inc	hl
   1096 7E                 5269 	ld	a,(hl)
   1097 98                 5270 	sbc	a,b
   1098 DA B3 10           5271 	jp	c,00149$
                           5272 ;	bustout.c 364
                           5273 ;	genCall
                           5274 ; _saveRegsForCall: sendSetSize: 0 deInUse: 0 bcInUse: 0 deSending: 0
   109B CD 5C 13           5275 	call	_state_life_end
                           5276 ;	bustout.c 365
                           5277 ;	genCmpGt
                           5278 ;	AOP_HL for _lives
   109E 1E 80              5279 	ld	e,#0x80
   10A0 21 52 0F           5280 	ld	hl,#_lives + 1
   10A3 7E                 5281 	ld	a,(hl)
   10A4 EE 80              5282 	xor	a,#0x80
   10A6 57                 5283 	ld	d,a
   10A7 3E 00              5284 	ld	a,#0x00
   10A9 2B                 5285 	dec	hl
   10AA 96                 5286 	sub	a,(hl)
   10AB 7B                 5287 	ld	a,e
   10AC 9A                 5288 	sbc	a,d
   10AD DA B3 10           5289 	jp	c,00149$
                           5290 ;	bustout.c 366
                           5291 ;	genCall
                           5292 ; _saveRegsForCall: sendSetSize: 0 deInUse: 0 bcInUse: 0 deSending: 0
   10B0 CD 89 13           5293 	call	_state_game_over
                           5294 ;	genLabel
   10B3                    5295 00149$:
                           5296 ;	bustout.c 370
                           5297 ;	genCast
                           5298 ;	AOP_HL for _ball_x
   10B3 21 5F 0F           5299 	ld	hl,#_ball_x
   10B6 4E                 5300 	ld	c,(hl)
   10B7 06 00              5301 	ld	b,#0x00
                           5302 ;	genAssign
                           5303 ;	(operands are equal 3)
                           5304 ;	genCmpLt
                           5305 ;	AOP_HL for _SCREEN_WIDTH
   10B9 79                 5306 	ld	a,c
   10BA 21 48 0F           5307 	ld	hl,#_SCREEN_WIDTH
   10BD 96                 5308 	sub	a,(hl)
   10BE 78                 5309 	ld	a,b
   10BF 23                 5310 	inc	hl
   10C0 9E                 5311 	sbc	a,(hl)
   10C1 DA CC 10           5312 	jp	c,00153$
                           5313 ;	bustout.c 371
                           5314 ;	genAssign
                           5315 ;	AOP_HL for _ball_vel_x
   10C4 21 61 0F           5316 	ld	hl,#_ball_vel_x
   10C7 36 FF              5317 	ld	(hl),#0xFF
                           5318 ;	genGoto
   10C9 C3 EC 10           5319 	jp	00159$
                           5320 ;	genLabel
   10CC                    5321 00153$:
                           5322 ;	bustout.c 373
                           5323 ;	genRightShift
                           5324 ;	AOP_HL for _SPRITE_SIZE
                           5325 ;	AOP_STK for _collide_sloc2_1_0
   10CC 21 4C 0F           5326 	ld	hl,#_SPRITE_SIZE
   10CF 7E                 5327 	ld	a,(hl)
   10D0 F8 00              5328 	lda	hl,0(sp)
   10D2 77                 5329 	ld	(hl),a
   10D3 21 4D 0F           5330 	ld	hl,#_SPRITE_SIZE + 1
   10D6 7E                 5331 	ld	a,(hl)
   10D7 F8 01              5332 	lda	hl,1(sp)
   10D9 77                 5333 	ld	(hl),a
   10DA CB 3E              5334 	srl	(hl)
   10DC 2B                 5335 	dec	hl
   10DD CB 1E              5336 	rr	(hl)
                           5337 ;	genCmpGt
                           5338 ;	AOP_STK for _collide_sloc2_1_0
   10DF 7E                 5339 	ld	a,(hl)
   10E0 91                 5340 	sub	a,c
   10E1 23                 5341 	inc	hl
   10E2 7E                 5342 	ld	a,(hl)
   10E3 98                 5343 	sbc	a,b
   10E4 DA EC 10           5344 	jp	c,00159$
                           5345 ;	bustout.c 374
                           5346 ;	genAssign
                           5347 ;	AOP_HL for _ball_vel_x
   10E7 21 61 0F           5348 	ld	hl,#_ball_vel_x
   10EA 36 01              5349 	ld	(hl),#0x01
                           5350 ;	genLabel
   10EC                    5351 00159$:
                           5352 ;	genEndFunction
   10EC E8 18              5353 	lda	sp,24(sp)
   10EE C9                 5354 	ret
   10EF                    5355 ___collide_end:
                           5356 ;	bustout.c 378
                           5357 ;	genLabel
                           5358 ;	genFunction
                           5359 ;	---------------------------------
                           5360 ; Function move
                           5361 ; ---------------------------------
   10EF                    5362 ___move_start:
   10EF                    5363 _move:
                           5364 	
                           5365 ;	bustout.c 381
                           5366 ;	genIpush
                           5367 ; _saveRegsForCall: sendSetSize: 0 deInUse: 0 bcInUse: 0 deSending: 0
                           5368 ;	AOP_HL for _paddle_y
   10EF 21 5C 0F           5369 	ld	hl,#_paddle_y
   10F2 7E                 5370 	ld	a,(hl)
   10F3 F5                 5371 	push	af
   10F4 33                 5372 	inc	sp
                           5373 ;	genIpush
                           5374 ;	AOP_HL for _paddle_x
   10F5 21 5B 0F           5375 	ld	hl,#_paddle_x
   10F8 7E                 5376 	ld	a,(hl)
   10F9 F5                 5377 	push	af
   10FA 33                 5378 	inc	sp
                           5379 ;	genIpush
   10FB 3E 00              5380 	ld	a,#0x00
   10FD F5                 5381 	push	af
   10FE 33                 5382 	inc	sp
                           5383 ;	genCall
   10FF CD 00 00           5384 	call	_move_sprite
   1102 E8 03              5385 	lda	sp,3(sp)
                           5386 ;	bustout.c 382
                           5387 ;	genPlus
                           5388 ;	AOP_HL for _paddle_x
                           5389 ;	genPlusIncr
                           5390 ;	Can't optimise plus by inc, falling back to the normal way
   1104 21 5B 0F           5391 	ld	hl,#_paddle_x
   1107 7E                 5392 	ld	a,(hl)
   1108 C6 08              5393 	add	a,#0x08
   110A 4F                 5394 	ld	c,a
                           5395 ;	genIpush
                           5396 ; _saveRegsForCall: sendSetSize: 0 deInUse: 0 bcInUse: 0 deSending: 0
                           5397 ;	AOP_HL for _paddle_y
   110B 21 5C 0F           5398 	ld	hl,#_paddle_y
   110E 7E                 5399 	ld	a,(hl)
   110F F5                 5400 	push	af
   1110 33                 5401 	inc	sp
                           5402 ;	genIpush
   1111 79                 5403 	ld	a,c
   1112 F5                 5404 	push	af
   1113 33                 5405 	inc	sp
                           5406 ;	genIpush
   1114 3E 01              5407 	ld	a,#0x01
   1116 F5                 5408 	push	af
   1117 33                 5409 	inc	sp
                           5410 ;	genCall
   1118 CD 00 00           5411 	call	_move_sprite
   111B E8 03              5412 	lda	sp,3(sp)
                           5413 ;	bustout.c 384
                           5414 ;	genIpush
                           5415 ; _saveRegsForCall: sendSetSize: 0 deInUse: 0 bcInUse: 0 deSending: 0
                           5416 ;	AOP_HL for _ball_y
   111D 21 60 0F           5417 	ld	hl,#_ball_y
   1120 7E                 5418 	ld	a,(hl)
   1121 F5                 5419 	push	af
   1122 33                 5420 	inc	sp
                           5421 ;	genIpush
                           5422 ;	AOP_HL for _ball_x
   1123 21 5F 0F           5423 	ld	hl,#_ball_x
   1126 7E                 5424 	ld	a,(hl)
   1127 F5                 5425 	push	af
   1128 33                 5426 	inc	sp
                           5427 ;	genIpush
   1129 3E 02              5428 	ld	a,#0x02
   112B F5                 5429 	push	af
   112C 33                 5430 	inc	sp
                           5431 ;	genCall
   112D CD 00 00           5432 	call	_move_sprite
   1130 E8 03              5433 	lda	sp,3(sp)
                           5434 ;	genLabel
   1132                    5435 00101$:
                           5436 ;	genEndFunction
                           5437 	
   1132 C9                 5438 	ret
   1133                    5439 ___move_end:
                           5440 ;	bustout.c 387
                           5441 ;	genLabel
                           5442 ;	genFunction
                           5443 ;	---------------------------------
                           5444 ; Function score
                           5445 ; ---------------------------------
   1133                    5446 ___score_start:
   1133                    5447 _score:
   1133 E8 F6              5448 	lda	sp,-10(sp)
                           5449 ;	bustout.c 389
                           5450 ;	genAssign
                           5451 ;	AOP_STK for _score_blocks_remaining_1_1
   1135 F8 06              5452 	lda	hl,6(sp)
   1137 36 00              5453 	ld	(hl),#0x00
   1139 23                 5454 	inc	hl
   113A 36 00              5455 	ld	(hl),#0x00
                           5456 ;	bustout.c 402
                           5457 ;	genAssign
                           5458 ;	AOP_STK for _score_i_1_1
   113C 23                 5459 	inc	hl
   113D 36 18              5460 	ld	(hl),#0x18
   113F 23                 5461 	inc	hl
   1140 36 00              5462 	ld	(hl),#0x00
                           5463 ;	genLabel
   1142                    5464 00109$:
                           5465 ;	bustout.c 391
                           5466 ;	genMinus
                           5467 ;	AOP_STK for _score_i_1_1
                           5468 ;	AOP_STK for _score_sloc0_1_0
   1142 F8 08              5469 	lda	hl,8(sp)
   1144 5E                 5470 	ld	e,(hl)
   1145 23                 5471 	inc	hl
   1146 56                 5472 	ld	d,(hl)
   1147 21 01 00           5473 	ld	hl,#0x0001
   114A 7B                 5474 	ld	a,e
   114B 95                 5475 	sub	a,l
   114C 5F                 5476 	ld	e,a
   114D 7A                 5477 	ld	a,d
   114E 9C                 5478 	sbc	a,h
   114F F8 03              5479 	lda	hl,3(sp)
   1151 32                 5480 	ld      (hl-),a
   1152 73                 5481 	ld	(hl),e
                           5482 ;	genMult
                           5483 ;	AOP_STK for _score_sloc0_1_0
   1153 5E                 5484 	ld	e,(hl)
   1154 23                 5485 	inc	hl
   1155 56                 5486 	ld	d,(hl)
   1156 6B                 5487 	ld	l,e
   1157 62                 5488 	ld	h,d
   1158 29                 5489 	add	hl,hl
   1159 19                 5490 	add	hl,de
   115A 29                 5491 	add	hl,hl
   115B 4D                 5492 	ld	c,l
   115C 44                 5493 	ld	b,h
                           5494 ;	genPlus
                           5495 ;	Can't optimise plus by inc, falling back to the normal way
   115D 21 6D 0F           5496 	ld	hl,#_block_sprites
   1160 09                 5497 	add	hl,bc
   1161 4D                 5498 	ld	c,l
   1162 44                 5499 	ld	b,h
                           5500 ;	bustout.c 392
                           5501 ;	genPlus
                           5502 ;	AOP_STK for _score_sloc1_1_0
                           5503 ;	genPlusIncr
                           5504 ;	Can't optimise plus by inc, falling back to the normal way
   1163 21 02 00           5505 	ld	hl,#0x0002
   1166 09                 5506 	add	hl,bc
   1167 7D                 5507 	ld	a,l
   1168 54                 5508 	ld	d,h
   1169 F8 00              5509 	lda	hl,0(sp)
                           5510 ;	genPointerGet
                           5511 ;	AOP_STK for _score_sloc1_1_0
                           5512 ;	AOP_STK for _score_block_x_2_2
   116B 22                 5513 	ld	(hl+),a
   116C 72                 5514 	ld	(hl),d
   116D 5F                 5515 	ld	e,a
   116E 1A                 5516 	ld	a,(de)
   116F F8 04              5517 	lda	hl,4(sp)
   1171 77                 5518 	ld	(hl),a
   1172 13                 5519 	inc	de
   1173 1A                 5520 	ld	a,(de)
   1174 23                 5521 	inc	hl
   1175 77                 5522 	ld	(hl),a
                           5523 ;	genAssign
                           5524 ;	AOP_STK for _score_block_x_2_2
                           5525 ;	(registers are the same)
                           5526 ;	bustout.c 393
                           5527 ;	genPlus
                           5528 ;	genPlusIncr
   1176 03                 5529 	inc	bc
   1177 03                 5530 	inc	bc
   1178 03                 5531 	inc	bc
   1179 03                 5532 	inc	bc
                           5533 ;	genPointerGet
   117A 59                 5534 	ld	e,c
   117B 50                 5535 	ld	d,b
   117C 1A                 5536 	ld	a,(de)
   117D 4F                 5537 	ld	c,a
   117E 13                 5538 	inc	de
   117F 1A                 5539 	ld	a,(de)
   1180 47                 5540 	ld	b,a
                           5541 ;	genAssign
                           5542 ;	(registers are the same)
                           5543 ;	bustout.c 395
                           5544 ;	genPlus
                           5545 ;	AOP_STK for _score_block_x_2_2
                           5546 ;	Can't optimise plus by inc, falling back to the normal way
   1181 2B                 5547 	dec	hl
   1182 2A                 5548 	ld	a,(hl+)
   1183 66                 5549 	ld	h,(hl)
   1184 6F                 5550 	ld	l,a
   1185 09                 5551 	add	hl,bc
   1186 4D                 5552 	ld	c,l
   1187 44                 5553 	ld	b,h
                           5554 ;	genCmpEq
                           5555 ; genCmpEq: left 2, right 2, result 0
   1188 79                 5556 	ld	a,c
   1189 B0                 5557 	or	a,b
   118A CA 94 11           5558 	jp	z,00102$
   118D                    5559 00117$:
                           5560 ;	bustout.c 396
                           5561 ;	genPlus
                           5562 ;	AOP_STK for _score_blocks_remaining_1_1
                           5563 ;	genPlusIncr
   118D F8 06              5564 	lda	hl,6(sp)
   118F 34                 5565 	inc	(hl)
   1190 20 02              5566 	jr	nz,00118$
   1192 23                 5567 	inc	hl
   1193 34                 5568 	inc	(hl)
   1194                    5569 00118$:
                           5570 ;	genLabel
   1194                    5571 00102$:
                           5572 ;	genAssign
                           5573 ;	AOP_STK for _score_sloc0_1_0
   1194 F8 02              5574 	lda	hl,2(sp)
   1196 4E                 5575 	ld	c,(hl)
   1197 23                 5576 	inc	hl
   1198 46                 5577 	ld	b,(hl)
                           5578 ;	genAssign
                           5579 ;	AOP_STK for _score_i_1_1
   1199 F8 08              5580 	lda	hl,8(sp)
   119B 71                 5581 	ld	(hl),c
   119C 23                 5582 	inc	hl
   119D 70                 5583 	ld	(hl),b
                           5584 ;	genIfx
                           5585 ;	AOP_STK for _score_i_1_1
   119E 2B                 5586 	dec	hl
   119F 2A                 5587 	ld	a,(hl+)
   11A0 B6                 5588 	or	a,(hl)
   11A1 C2 42 11           5589 	jp	nz,00109$
                           5590 ;	bustout.c 399
                           5591 ;	genCmpEq
                           5592 ;	AOP_STK for _score_blocks_remaining_1_1
                           5593 ; genCmpEq: left 2, right 2, result 0
   11A4 F8 06              5594 	lda	hl,6(sp)
   11A6 2A                 5595 	ld	a,(hl+)
   11A7 B6                 5596 	or	a,(hl)
   11A8 C2 B3 11           5597 	jp	nz,00104$
   11AB 18 03              5598 	jr	00120$
   11AD                    5599 00119$:
   11AD C3 B3 11           5600 	jp	00104$
   11B0                    5601 00120$:
                           5602 ;	bustout.c 400
                           5603 ;	genCall
                           5604 ; _saveRegsForCall: sendSetSize: 0 deInUse: 0 bcInUse: 0 deSending: 0
   11B0 CD 17 13           5605 	call	_state_blocks_gone
                           5606 ;	genLabel
   11B3                    5607 00104$:
                           5608 ;	bustout.c 402
                           5609 ;	genIfx
                           5610 ;	AOP_HL for _game_over
   11B3 21 57 0F           5611 	ld	hl,#_game_over
   11B6 2A                 5612 	ld	a,(hl+)
   11B7 B6                 5613 	or	a,(hl)
   11B8 CA DA 11           5614 	jp	z,00110$
                           5615 ;	bustout.c 403
                           5616 ;	genCall
                           5617 ; _saveRegsForCall: sendSetSize: 0 deInUse: 0 bcInUse: 0 deSending: 0
   11BB CD 7F 05           5618 	call	_set_paddle
                           5619 ;	bustout.c 404
                           5620 ;	genIpush
                           5621 ; _saveRegsForCall: sendSetSize: 0 deInUse: 0 bcInUse: 0 deSending: 0
   11BE 21 01 00           5622 	ld	hl,#0x0001
   11C1 E5                 5623 	push	hl
                           5624 ;	genCall
   11C2 CD 0B 06           5625 	call	_set_ball
   11C5 E8 02              5626 	lda	sp,2(sp)
                           5627 ;	bustout.c 405
                           5628 ;	genCall
                           5629 ; _saveRegsForCall: sendSetSize: 0 deInUse: 0 bcInUse: 0 deSending: 0
   11C7 CD 69 08           5630 	call	_set_blocks
                           5631 ;	bustout.c 406
                           5632 ;	genAssign
                           5633 ;	AOP_HL for _game_started
   11CA 21 53 0F           5634 	ld	hl,#_game_started
   11CD 36 00              5635 	ld	(hl),#0x00
   11CF 23                 5636 	inc	hl
   11D0 36 00              5637 	ld	(hl),#0x00
                           5638 ;	bustout.c 407
                           5639 ;	genAssign
                           5640 ;	AOP_HL for _game_over
   11D2 21 57 0F           5641 	ld	hl,#_game_over
   11D5 36 00              5642 	ld	(hl),#0x00
   11D7 23                 5643 	inc	hl
   11D8 36 00              5644 	ld	(hl),#0x00
                           5645 ;	genLabel
   11DA                    5646 00110$:
                           5647 ;	genEndFunction
   11DA E8 0A              5648 	lda	sp,10(sp)
   11DC C9                 5649 	ret
   11DD                    5650 ___score_end:
                           5651 ;	bustout.c 411
                           5652 ;	genLabel
                           5653 ;	genFunction
                           5654 ;	---------------------------------
                           5655 ; Function render_score
                           5656 ; ---------------------------------
   11DD                    5657 ___render_score_start:
   11DD                    5658 _render_score:
   11DD E8 FC              5659 	lda	sp,-4(sp)
                           5660 ;	bustout.c 413
                           5661 ;	genAssign
                           5662 ;	AOP_HL for _framerate
   11DF 21 34 05           5663 	ld	hl,#_framerate
   11E2 4E                 5664 	ld	c,(hl)
   11E3 23                 5665 	inc	hl
   11E4 46                 5666 	ld	b,(hl)
                           5667 ;	genRightShift
   11E5 CB 28              5668 	sra	b
   11E7 CB 19              5669 	rr	c
                           5670 ;	genIpush
                           5671 ; _saveRegsForCall: sendSetSize: 0 deInUse: 0 bcInUse: 0 deSending: 0
   11E9 C5                 5672 	push	bc
                           5673 ;	genIpush
                           5674 ;	AOP_HL for _frames
   11EA 21 67 0F           5675 	ld	hl,#_frames
   11ED 2A                 5676 	ld	a,(hl+)
   11EE 66                 5677 	ld	h,(hl)
   11EF 6F                 5678 	ld	l,a
   11F0 E5                 5679 	push	hl
                           5680 ;	genCall
   11F1 CD 00 00           5681 	call	__modsint_rrx_s
   11F4 42                 5682 	ld	b,d
   11F5 4B                 5683 	ld	c,e
   11F6 E8 04              5684 	lda	sp,4(sp)
                           5685 ;	genCmpEq
                           5686 ; genCmpEq: left 2, right 2, result 0
   11F8 79                 5687 	ld	a,c
   11F9 B0                 5688 	or	a,b
   11FA C2 DB 12           5689 	jp	nz,00102$
   11FD 18 03              5690 	jr	00109$
   11FF                    5691 00108$:
   11FF C3 DB 12           5692 	jp	00102$
   1202                    5693 00109$:
                           5694 ;	bustout.c 414
                           5695 ;	genIpush
                           5696 ; _saveRegsForCall: sendSetSize: 0 deInUse: 0 bcInUse: 0 deSending: 0
   1202 21 E8 03           5697 	ld	hl,#0x03E8
   1205 E5                 5698 	push	hl
                           5699 ;	genIpush
                           5700 ;	AOP_HL for _game_score
   1206 21 65 0F           5701 	ld	hl,#_game_score
   1209 2A                 5702 	ld	a,(hl+)
   120A 66                 5703 	ld	h,(hl)
   120B 6F                 5704 	ld	l,a
   120C E5                 5705 	push	hl
                           5706 ;	genCall
   120D CD 00 00           5707 	call	__divsint_rrx_s
   1210 42                 5708 	ld	b,d
   1211 4B                 5709 	ld	c,e
   1212 E8 04              5710 	lda	sp,4(sp)
                           5711 ;	genIpush
                           5712 ; _saveRegsForCall: sendSetSize: 0 deInUse: 0 bcInUse: 0 deSending: 0
   1214 21 0A 00           5713 	ld	hl,#0x000A
   1217 E5                 5714 	push	hl
                           5715 ;	genIpush
   1218 C5                 5716 	push	bc
                           5717 ;	genCall
   1219 CD 00 00           5718 	call	__modsint_rrx_s
   121C 42                 5719 	ld	b,d
   121D 4B                 5720 	ld	c,e
   121E E8 04              5721 	lda	sp,4(sp)
                           5722 ;	genPlus
                           5723 ;	Can't optimise plus by inc, falling back to the normal way
   1220 21 39 03           5724 	ld	hl,#_numbers
   1223 09                 5725 	add	hl,bc
   1224 4D                 5726 	ld	c,l
   1225 44                 5727 	ld	b,h
                           5728 ;	genPointerGet
   1226 0A                 5729 	ld	a,(bc)
                           5730 ;	genAssign (pointer)
   1227 11 FD 0F           5731 	ld	de,#_score_array
   122A 12                 5732 	ld	(de),a
                           5733 ;	bustout.c 415
                           5734 ;	genPlus
                           5735 ;	genPlusIncr
   122B 01 FE 0F           5736 	ld	bc,#_score_array + 1
                           5737 ;	genIpush
                           5738 ; _saveRegsForCall: sendSetSize: 0 deInUse: 0 bcInUse: 1 deSending: 0
   122E C5                 5739 	push	bc
   122F 21 64 00           5740 	ld	hl,#0x0064
   1232 E5                 5741 	push	hl
                           5742 ;	genIpush
                           5743 ;	AOP_HL for _game_score
   1233 21 65 0F           5744 	ld	hl,#_game_score
   1236 2A                 5745 	ld	a,(hl+)
   1237 66                 5746 	ld	h,(hl)
   1238 6F                 5747 	ld	l,a
   1239 E5                 5748 	push	hl
                           5749 ;	genCall
   123A CD 00 00           5750 	call	__divsint_rrx_s
                           5751 ;	AOP_STK for _render_score_sloc0_1_0
   123D F8 09              5752 	lda	hl,9(sp)
   123F 72                 5753 	ld	(hl),d
   1240 2B                 5754 	dec	hl
   1241 73                 5755 	ld	(hl),e
   1242 E8 04              5756 	lda	sp,4(sp)
   1244 C1                 5757 	pop	bc
                           5758 ;	genIpush
                           5759 ; _saveRegsForCall: sendSetSize: 0 deInUse: 0 bcInUse: 1 deSending: 0
   1245 C5                 5760 	push	bc
   1246 21 0A 00           5761 	ld	hl,#0x000A
   1249 E5                 5762 	push	hl
                           5763 ;	genIpush
                           5764 ;	AOP_STK for _render_score_sloc0_1_0
   124A F8 06              5765 	lda	hl,6(sp)
   124C 2A                 5766 	ld	a,(hl+)
   124D 66                 5767 	ld	h,(hl)
   124E 6F                 5768 	ld	l,a
   124F E5                 5769 	push	hl
                           5770 ;	genCall
   1250 CD 00 00           5771 	call	__modsint_rrx_s
                           5772 ;	AOP_STK for _render_score_sloc0_1_0
   1253 F8 09              5773 	lda	hl,9(sp)
   1255 72                 5774 	ld	(hl),d
   1256 2B                 5775 	dec	hl
   1257 73                 5776 	ld	(hl),e
   1258 E8 04              5777 	lda	sp,4(sp)
   125A C1                 5778 	pop	bc
                           5779 ;	genPlus
                           5780 ;	AOP_STK for _render_score_sloc0_1_0
                           5781 ;	AOP_STK for _render_score_sloc1_1_0
                           5782 ;	Can't optimise plus by inc, falling back to the normal way
   125B 11 39 03           5783 	ld	de,#_numbers
   125E F8 02              5784 	lda	hl,2(sp)
   1260 2A                 5785 	ld	a,(hl+)
   1261 66                 5786 	ld	h,(hl)
   1262 6F                 5787 	ld	l,a
   1263 19                 5788 	add	hl,de
   1264 7D                 5789 	ld	a,l
   1265 54                 5790 	ld	d,h
   1266 F8 00              5791 	lda	hl,0(sp)
                           5792 ;	genPointerGet
                           5793 ;	AOP_STK for _render_score_sloc1_1_0
   1268 22                 5794 	ld	(hl+),a
   1269 72                 5795 	ld	(hl),d
   126A 5F                 5796 	ld	e,a
   126B 1A                 5797 	ld	a,(de)
                           5798 ;	genAssign (pointer)
   126C 02                 5799 	ld	(bc),a
                           5800 ;	bustout.c 416
                           5801 ;	genPlus
                           5802 ;	genPlusIncr
   126D 01 FF 0F           5803 	ld	bc,#_score_array + 2
                           5804 ;	genIpush
                           5805 ; _saveRegsForCall: sendSetSize: 0 deInUse: 0 bcInUse: 1 deSending: 0
   1270 C5                 5806 	push	bc
   1271 21 0A 00           5807 	ld	hl,#0x000A
   1274 E5                 5808 	push	hl
                           5809 ;	genIpush
                           5810 ;	AOP_HL for _game_score
   1275 21 65 0F           5811 	ld	hl,#_game_score
   1278 2A                 5812 	ld	a,(hl+)
   1279 66                 5813 	ld	h,(hl)
   127A 6F                 5814 	ld	l,a
   127B E5                 5815 	push	hl
                           5816 ;	genCall
   127C CD 00 00           5817 	call	__divsint_rrx_s
                           5818 ;	AOP_STK for _render_score_sloc1_1_0
   127F F8 07              5819 	lda	hl,7(sp)
   1281 72                 5820 	ld	(hl),d
   1282 2B                 5821 	dec	hl
   1283 73                 5822 	ld	(hl),e
   1284 E8 04              5823 	lda	sp,4(sp)
   1286 C1                 5824 	pop	bc
                           5825 ;	genIpush
                           5826 ; _saveRegsForCall: sendSetSize: 0 deInUse: 0 bcInUse: 1 deSending: 0
   1287 C5                 5827 	push	bc
   1288 21 0A 00           5828 	ld	hl,#0x000A
   128B E5                 5829 	push	hl
                           5830 ;	genIpush
                           5831 ;	AOP_STK for _render_score_sloc1_1_0
   128C F8 04              5832 	lda	hl,4(sp)
   128E 2A                 5833 	ld	a,(hl+)
   128F 66                 5834 	ld	h,(hl)
   1290 6F                 5835 	ld	l,a
   1291 E5                 5836 	push	hl
                           5837 ;	genCall
   1292 CD 00 00           5838 	call	__modsint_rrx_s
                           5839 ;	AOP_STK for _render_score_sloc1_1_0
   1295 F8 07              5840 	lda	hl,7(sp)
   1297 72                 5841 	ld	(hl),d
   1298 2B                 5842 	dec	hl
   1299 73                 5843 	ld	(hl),e
   129A E8 04              5844 	lda	sp,4(sp)
   129C C1                 5845 	pop	bc
                           5846 ;	genPlus
                           5847 ;	AOP_STK for _render_score_sloc1_1_0
                           5848 ;	AOP_STK for _render_score_sloc0_1_0
                           5849 ;	Can't optimise plus by inc, falling back to the normal way
   129D 11 39 03           5850 	ld	de,#_numbers
   12A0 F8 00              5851 	lda	hl,0(sp)
   12A2 2A                 5852 	ld	a,(hl+)
   12A3 66                 5853 	ld	h,(hl)
   12A4 6F                 5854 	ld	l,a
   12A5 19                 5855 	add	hl,de
   12A6 7D                 5856 	ld	a,l
   12A7 54                 5857 	ld	d,h
   12A8 F8 02              5858 	lda	hl,2(sp)
                           5859 ;	genPointerGet
                           5860 ;	AOP_STK for _render_score_sloc0_1_0
   12AA 22                 5861 	ld	(hl+),a
   12AB 72                 5862 	ld	(hl),d
   12AC 5F                 5863 	ld	e,a
   12AD 1A                 5864 	ld	a,(de)
                           5865 ;	genAssign (pointer)
   12AE 02                 5866 	ld	(bc),a
                           5867 ;	bustout.c 417
                           5868 ;	genPlus
                           5869 ;	genPlusIncr
   12AF 01 00 10           5870 	ld	bc,#_score_array + 3
                           5871 ;	genIpush
                           5872 ; _saveRegsForCall: sendSetSize: 0 deInUse: 0 bcInUse: 1 deSending: 0
   12B2 C5                 5873 	push	bc
   12B3 21 0A 00           5874 	ld	hl,#0x000A
   12B6 E5                 5875 	push	hl
                           5876 ;	genIpush
                           5877 ;	AOP_HL for _game_score
   12B7 21 65 0F           5878 	ld	hl,#_game_score
   12BA 2A                 5879 	ld	a,(hl+)
   12BB 66                 5880 	ld	h,(hl)
   12BC 6F                 5881 	ld	l,a
   12BD E5                 5882 	push	hl
                           5883 ;	genCall
   12BE CD 00 00           5884 	call	__modsint_rrx_s
                           5885 ;	AOP_STK for _render_score_sloc1_1_0
   12C1 F8 07              5886 	lda	hl,7(sp)
   12C3 72                 5887 	ld	(hl),d
   12C4 2B                 5888 	dec	hl
   12C5 73                 5889 	ld	(hl),e
   12C6 E8 04              5890 	lda	sp,4(sp)
   12C8 C1                 5891 	pop	bc
                           5892 ;	genPlus
                           5893 ;	AOP_STK for _render_score_sloc1_1_0
                           5894 ;	AOP_STK for _render_score_sloc0_1_0
                           5895 ;	Can't optimise plus by inc, falling back to the normal way
   12C9 11 39 03           5896 	ld	de,#_numbers
   12CC F8 00              5897 	lda	hl,0(sp)
   12CE 2A                 5898 	ld	a,(hl+)
   12CF 66                 5899 	ld	h,(hl)
   12D0 6F                 5900 	ld	l,a
   12D1 19                 5901 	add	hl,de
   12D2 7D                 5902 	ld	a,l
   12D3 54                 5903 	ld	d,h
   12D4 F8 02              5904 	lda	hl,2(sp)
                           5905 ;	genPointerGet
                           5906 ;	AOP_STK for _render_score_sloc0_1_0
   12D6 22                 5907 	ld	(hl+),a
   12D7 72                 5908 	ld	(hl),d
   12D8 5F                 5909 	ld	e,a
   12D9 1A                 5910 	ld	a,(de)
                           5911 ;	genAssign (pointer)
   12DA 02                 5912 	ld	(bc),a
                           5913 ;	genLabel
   12DB                    5914 00102$:
                           5915 ;	bustout.c 426
                           5916 ;	bustout.c 422
                           5917 ;	genIpush
                           5918 ; _saveRegsForCall: sendSetSize: 0 deInUse: 0 bcInUse: 0 deSending: 0
   12DB 21 FD 0F           5919 	ld	hl,#_score_array
   12DE E5                 5920 	push	hl
                           5921 ;	genIpush
   12DF 21 04 01           5922 	ld	hl,#0x0104
   12E2 E5                 5923 	push	hl
                           5924 ;	genIpush
   12E3 21 10 00           5925 	ld	hl,#0x0010
   12E6 E5                 5926 	push	hl
                           5927 ;	genCall
   12E7 CD 00 00           5928 	call	_set_bkg_tiles
   12EA E8 06              5929 	lda	sp,6(sp)
                           5930 ;	genLabel
   12EC                    5931 00103$:
                           5932 ;	genEndFunction
   12EC E8 04              5933 	lda	sp,4(sp)
   12EE C9                 5934 	ret
   12EF                    5935 ___render_score_end:
                           5936 ;	bustout.c 430
                           5937 ;	genLabel
                           5938 ;	genFunction
                           5939 ;	---------------------------------
                           5940 ; Function state_life_start
                           5941 ; ---------------------------------
   12EF                    5942 ___state_life_start_start:
   12EF                    5943 _state_life_start:
                           5944 	
                           5945 ;	bustout.c 431
                           5946 ;	genAssign
                           5947 ;	AOP_HL for _game_started
   12EF 21 53 0F           5948 	ld	hl,#_game_started
   12F2 36 01              5949 	ld	(hl),#0x01
   12F4 23                 5950 	inc	hl
   12F5 36 00              5951 	ld	(hl),#0x00
                           5952 ;	bustout.c 432
                           5953 ;	genCmpGt
                           5954 ;	AOP_HL for _lives
   12F7 1E 80              5955 	ld	e,#0x80
   12F9 21 52 0F           5956 	ld	hl,#_lives + 1
   12FC 7E                 5957 	ld	a,(hl)
   12FD EE 80              5958 	xor	a,#0x80
   12FF 57                 5959 	ld	d,a
   1300 3E 00              5960 	ld	a,#0x00
   1302 2B                 5961 	dec	hl
   1303 96                 5962 	sub	a,(hl)
   1304 7B                 5963 	ld	a,e
   1305 9A                 5964 	sbc	a,d
   1306 DA 16 13           5965 	jp	c,00103$
                           5966 ;	bustout.c 433
                           5967 ;	genAssign
                           5968 ;	AOP_HL for _INITIAL_LIVES
                           5969 ;	AOP_HL for _lives
   1309 21 32 05           5970 	ld	hl,#_INITIAL_LIVES
   130C 2A                 5971 	ld	a,(hl+)
   130D 5E                 5972 	ld	e,(hl)
   130E 21 51 0F           5973 	ld	hl,#_lives
   1311 22                 5974 	ld	(hl+),a
   1312 73                 5975 	ld	(hl),e
                           5976 ;	bustout.c 434
                           5977 ;	genCall
                           5978 ; _saveRegsForCall: sendSetSize: 0 deInUse: 0 bcInUse: 0 deSending: 0
   1313 CD 9E 06           5979 	call	_set_lives
                           5980 ;	genLabel
   1316                    5981 00103$:
                           5982 ;	genEndFunction
                           5983 	
   1316 C9                 5984 	ret
   1317                    5985 ___state_life_start_end:
                           5986 ;	bustout.c 438
                           5987 ;	genLabel
                           5988 ;	genFunction
                           5989 ;	---------------------------------
                           5990 ; Function state_blocks_gone
                           5991 ; ---------------------------------
   1317                    5992 ___state_blocks_gone_start:
   1317                    5993 _state_blocks_gone:
                           5994 	
                           5995 ;	bustout.c 439
                           5996 ;	genPlus
                           5997 ;	AOP_HL for _current_level
                           5998 ;	genPlusIncr
   1317 21 59 0F           5999 	ld	hl,#_current_level
   131A 34                 6000 	inc	(hl)
   131B 20 02              6001 	jr	nz,00106$
   131D 23                 6002 	inc	hl
   131E 34                 6003 	inc	(hl)
   131F                    6004 00106$:
                           6005 ;	bustout.c 440
                           6006 ;	genPlus
                           6007 ;	AOP_HL for _current_level
                           6008 ;	genPlusIncr
   131F 21 59 0F           6009 	ld	hl,#_current_level
   1322 4E                 6010 	ld	c,(hl)
   1323 23                 6011 	inc	hl
   1324 46                 6012 	ld	b,(hl)
   1325 03                 6013 	inc	bc
                           6014 ;	genCmpGt
   1326 1E 80              6015 	ld	e,#0x80
   1328 78                 6016 	ld	a,b
   1329 EE 80              6017 	xor	a,#0x80
   132B 57                 6018 	ld	d,a
   132C 3E 03              6019 	ld	a,#0x03
   132E 91                 6020 	sub	a,c
   132F 7B                 6021 	ld	a,e
   1330 9A                 6022 	sbc	a,d
   1331 D2 3A 13           6023 	jp	nc,00102$
                           6024 ;	bustout.c 441
                           6025 ;	genAssign
                           6026 ;	AOP_HL for _current_level
   1334 2B                 6027 	dec	hl
   1335 36 00              6028 	ld	(hl),#0x00
   1337 23                 6029 	inc	hl
   1338 36 00              6030 	ld	(hl),#0x00
                           6031 ;	genLabel
   133A                    6032 00102$:
                           6033 ;	bustout.c 443
                           6034 ;	genAssign
                           6035 ;	AOP_HL for _game_started
   133A 21 53 0F           6036 	ld	hl,#_game_started
   133D 36 00              6037 	ld	(hl),#0x00
   133F 23                 6038 	inc	hl
   1340 36 00              6039 	ld	(hl),#0x00
                           6040 ;	bustout.c 444
                           6041 ;	genAssign
                           6042 ;	AOP_HL for _ball_vel_x
   1342 21 61 0F           6043 	ld	hl,#_ball_vel_x
   1345 36 00              6044 	ld	(hl),#0x00
                           6045 ;	bustout.c 445
                           6046 ;	genAssign
                           6047 ;	AOP_HL for _ball_vel_y
   1347 21 62 0F           6048 	ld	hl,#_ball_vel_y
   134A 36 00              6049 	ld	(hl),#0x00
                           6050 ;	bustout.c 447
                           6051 ;	genCall
                           6052 ; _saveRegsForCall: sendSetSize: 0 deInUse: 0 bcInUse: 0 deSending: 0
   134C CD 7F 05           6053 	call	_set_paddle
                           6054 ;	bustout.c 448
                           6055 ;	genIpush
                           6056 ; _saveRegsForCall: sendSetSize: 0 deInUse: 0 bcInUse: 0 deSending: 0
   134F 21 01 00           6057 	ld	hl,#0x0001
   1352 E5                 6058 	push	hl
                           6059 ;	genCall
   1353 CD 0B 06           6060 	call	_set_ball
   1356 E8 02              6061 	lda	sp,2(sp)
                           6062 ;	bustout.c 449
                           6063 ;	genCall
                           6064 ; _saveRegsForCall: sendSetSize: 0 deInUse: 0 bcInUse: 0 deSending: 0
   1358 CD 69 08           6065 	call	_set_blocks
                           6066 ;	genLabel
   135B                    6067 00103$:
                           6068 ;	genEndFunction
                           6069 	
   135B C9                 6070 	ret
   135C                    6071 ___state_blocks_gone_end:
                           6072 ;	bustout.c 452
                           6073 ;	genLabel
                           6074 ;	genFunction
                           6075 ;	---------------------------------
                           6076 ; Function state_life_end
                           6077 ; ---------------------------------
   135C                    6078 ___state_life_end_start:
   135C                    6079 _state_life_end:
                           6080 	
                           6081 ;	bustout.c 453
                           6082 ;	genAssign
                           6083 ;	AOP_HL for _ball_vel_x
   135C 21 61 0F           6084 	ld	hl,#_ball_vel_x
   135F 36 00              6085 	ld	(hl),#0x00
                           6086 ;	bustout.c 454
                           6087 ;	genAssign
                           6088 ;	AOP_HL for _ball_vel_y
   1361 21 62 0F           6089 	ld	hl,#_ball_vel_y
   1364 36 00              6090 	ld	(hl),#0x00
                           6091 ;	bustout.c 455
                           6092 ;	genMinus
                           6093 ;	AOP_HL for _lives
   1366 21 51 0F           6094 	ld	hl,#_lives
   1369 5E                 6095 	ld	e,(hl)
   136A 23                 6096 	inc	hl
   136B 56                 6097 	ld	d,(hl)
   136C 1B                 6098 	dec	de
   136D 2B                 6099 	dec	hl
   136E 73                 6100 	ld	(hl),e
   136F 23                 6101 	inc	hl
   1370 72                 6102 	ld	(hl),d
                           6103 ;	bustout.c 456
                           6104 ;	genCall
                           6105 ; _saveRegsForCall: sendSetSize: 0 deInUse: 0 bcInUse: 0 deSending: 0
   1371 CD 7F 05           6106 	call	_set_paddle
                           6107 ;	bustout.c 457
                           6108 ;	genIpush
                           6109 ; _saveRegsForCall: sendSetSize: 0 deInUse: 0 bcInUse: 0 deSending: 0
   1374 21 01 00           6110 	ld	hl,#0x0001
   1377 E5                 6111 	push	hl
                           6112 ;	genCall
   1378 CD 0B 06           6113 	call	_set_ball
   137B E8 02              6114 	lda	sp,2(sp)
                           6115 ;	bustout.c 458
                           6116 ;	genCall
                           6117 ; _saveRegsForCall: sendSetSize: 0 deInUse: 0 bcInUse: 0 deSending: 0
   137D CD 9E 06           6118 	call	_set_lives
                           6119 ;	bustout.c 459
                           6120 ;	genAssign
                           6121 ;	AOP_HL for _game_started
   1380 21 53 0F           6122 	ld	hl,#_game_started
   1383 36 00              6123 	ld	(hl),#0x00
   1385 23                 6124 	inc	hl
   1386 36 00              6125 	ld	(hl),#0x00
                           6126 ;	genLabel
   1388                    6127 00101$:
                           6128 ;	genEndFunction
                           6129 	
   1388 C9                 6130 	ret
   1389                    6131 ___state_life_end_end:
                           6132 ;	bustout.c 462
                           6133 ;	genLabel
                           6134 ;	genFunction
                           6135 ;	---------------------------------
                           6136 ; Function state_game_over
                           6137 ; ---------------------------------
   1389                    6138 ___state_game_over_start:
   1389                    6139 _state_game_over:
                           6140 	
                           6141 ;	bustout.c 464
                           6142 ;	genAssign
                           6143 ;	AOP_HL for _game_over
   1389 21 57 0F           6144 	ld	hl,#_game_over
   138C 36 01              6145 	ld	(hl),#0x01
   138E 23                 6146 	inc	hl
   138F 36 00              6147 	ld	(hl),#0x00
                           6148 ;	bustout.c 465
                           6149 ;	genAssign
                           6150 ;	AOP_HL for _ball_vel_x
   1391 21 61 0F           6151 	ld	hl,#_ball_vel_x
   1394 36 00              6152 	ld	(hl),#0x00
                           6153 ;	bustout.c 466
                           6154 ;	genAssign
                           6155 ;	AOP_HL for _ball_vel_y
   1396 21 62 0F           6156 	ld	hl,#_ball_vel_y
   1399 36 00              6157 	ld	(hl),#0x00
                           6158 ;	bustout.c 468
                           6159 ;	genCall
                           6160 ; _saveRegsForCall: sendSetSize: 0 deInUse: 0 bcInUse: 0 deSending: 0
   139B CD 83 04           6161 	call	_render_background
                           6162 ;	bustout.c 469
                           6163 ;	genCall
                           6164 ; _saveRegsForCall: sendSetSize: 0 deInUse: 0 bcInUse: 0 deSending: 0
   139E CD 42 05           6165 	call	_render_sad_cody
                           6166 ;	genLabel
   13A1                    6167 00101$:
                           6168 ;	genEndFunction
                           6169 	
   13A1 C9                 6170 	ret
   13A2                    6171 ___state_game_over_end:
                           6172 ;	bustout.c 472
                           6173 ;	genLabel
                           6174 ;	genFunction
                           6175 ;	---------------------------------
                           6176 ; Function run
                           6177 ; ---------------------------------
   13A2                    6178 ___run_start:
   13A2                    6179 _run:
   13A2 E8 FD              6180 	lda	sp,-3(sp)
                           6181 ;	bustout.c 475
                           6182 ;	genLabel
   13A4                    6183 00106$:
                           6184 ;	bustout.c 477
                           6185 ;	genPlus
                           6186 ;	AOP_HL for _frames
                           6187 ;	genPlusIncr
   13A4 21 67 0F           6188 	ld	hl,#_frames
   13A7 34                 6189 	inc	(hl)
   13A8 20 02              6190 	jr	nz,00113$
   13AA 23                 6191 	inc	hl
   13AB 34                 6192 	inc	(hl)
   13AC                    6193 00113$:
                           6194 ;	bustout.c 478
                           6195 ;	genAssign
                           6196 ;	AOP_HL for _framerate
   13AC 21 34 05           6197 	ld	hl,#_framerate
   13AF 4E                 6198 	ld	c,(hl)
   13B0 23                 6199 	inc	hl
   13B1 46                 6200 	ld	b,(hl)
                           6201 ;	genCmpEq
                           6202 ;	AOP_HL for _frames
                           6203 ; genCmpEq: left 2, right 2, result 0
   13B2 21 67 0F           6204 	ld	hl,#_frames
   13B5 7E                 6205 	ld	a,(hl)
   13B6 B9                 6206 	cp	c
   13B7 C2 C2 13           6207 	jp	nz,00114$
   13BA 23                 6208 	inc	hl
   13BB 7E                 6209 	ld	a,(hl)
   13BC B8                 6210 	cp	b
   13BD C2 D5 13           6211 	jp	nz,00102$
   13C0 18 03              6212 	jr	00115$
   13C2                    6213 00114$:
   13C2 C3 D5 13           6214 	jp	00102$
   13C5                    6215 00115$:
                           6216 ;	bustout.c 479
                           6217 ;	genAssign
                           6218 ;	AOP_HL for _frames
   13C5 21 67 0F           6219 	ld	hl,#_frames
   13C8 36 00              6220 	ld	(hl),#0x00
   13CA 23                 6221 	inc	hl
   13CB 36 00              6222 	ld	(hl),#0x00
                           6223 ;	bustout.c 480
                           6224 ;	genPlus
                           6225 ;	AOP_HL for _seconds
                           6226 ;	genPlusIncr
   13CD 21 69 0F           6227 	ld	hl,#_seconds
   13D0 34                 6228 	inc	(hl)
   13D1 20 02              6229 	jr	nz,00116$
   13D3 23                 6230 	inc	hl
   13D4 34                 6231 	inc	(hl)
   13D5                    6232 00116$:
                           6233 ;	genLabel
   13D5                    6234 00102$:
                           6235 ;	bustout.c 483
                           6236 ;	genCall
                           6237 ; _saveRegsForCall: sendSetSize: 0 deInUse: 0 bcInUse: 0 deSending: 0
   13D5 CD 00 00           6238 	call	_wait_vbl_done
                           6239 ;	bustout.c 485
                           6240 ;	genCall
                           6241 ; _saveRegsForCall: sendSetSize: 0 deInUse: 0 bcInUse: 0 deSending: 0
   13D8 CD 00 00           6242 	call	_joypad
                           6243 ;	AOP_HL for _key
   13DB 21 50 0F           6244 	ld	hl,#_key
   13DE 73                 6245 	ld	(hl),e
                           6246 ;	bustout.c 487
                           6247 ;	genCall
                           6248 ; _saveRegsForCall: sendSetSize: 0 deInUse: 0 bcInUse: 0 deSending: 0
   13DF CD 63 0B           6249 	call	_input
                           6250 ;	bustout.c 488
                           6251 ;	genIfx
                           6252 ;	AOP_HL for _splash_over
   13E2 21 55 0F           6253 	ld	hl,#_splash_over
   13E5 2A                 6254 	ld	a,(hl+)
   13E6 B6                 6255 	or	a,(hl)
   13E7 CA F9 13           6256 	jp	z,00104$
                           6257 ;	bustout.c 489
                           6258 ;	genCall
                           6259 ; _saveRegsForCall: sendSetSize: 0 deInUse: 0 bcInUse: 0 deSending: 0
   13EA CD 4D 0C           6260 	call	_physics
                           6261 ;	bustout.c 490
                           6262 ;	genCall
                           6263 ; _saveRegsForCall: sendSetSize: 0 deInUse: 0 bcInUse: 0 deSending: 0
   13ED CD 4C 0D           6264 	call	_collide
                           6265 ;	bustout.c 491
                           6266 ;	genCall
                           6267 ; _saveRegsForCall: sendSetSize: 0 deInUse: 0 bcInUse: 0 deSending: 0
   13F0 CD EF 10           6268 	call	_move
                           6269 ;	bustout.c 492
                           6270 ;	genCall
                           6271 ; _saveRegsForCall: sendSetSize: 0 deInUse: 0 bcInUse: 0 deSending: 0
   13F3 CD 33 11           6272 	call	_score
                           6273 ;	bustout.c 493
                           6274 ;	genCall
                           6275 ; _saveRegsForCall: sendSetSize: 0 deInUse: 0 bcInUse: 0 deSending: 0
   13F6 CD DD 11           6276 	call	_render_score
                           6277 ;	genLabel
   13F9                    6278 00104$:
                           6279 ;	bustout.c 496
                           6280 ;	genAssign
   13F9 01 40 FF           6281 	ld	bc,#0xFF40
                           6282 ;	genAssign
                           6283 ;	AOP_STK for _run_sloc0_1_0
   13FC F8 01              6284 	lda	hl,1(sp)
   13FE 36 40              6285 	ld	(hl),#0x40
   1400 23                 6286 	inc	hl
   1401 36 FF              6287 	ld	(hl),#0xFF
                           6288 ;	genPointerGet
                           6289 ;	AOP_STK for _run_sloc0_1_0
                           6290 ;	AOP_STK for _run_sloc1_1_0
   1403 2B                 6291 	dec	hl
   1404 5E                 6292 	ld	e,(hl)
   1405 23                 6293 	inc	hl
   1406 56                 6294 	ld	d,(hl)
   1407 1A                 6295 	ld	a,(de)
   1408 2B                 6296 	dec	hl
   1409 2B                 6297 	dec	hl
                           6298 ;	genOr
                           6299 ;	AOP_STK for _run_sloc1_1_0
   140A 77                 6300 	ld      (hl),a
                           6301 ; Removed redundent load
   140B F6 01              6302 	or	a,#0x01
                           6303 ;	genAssign (pointer)
   140D 02                 6304 	ld	(bc),a
                           6305 ;	bustout.c 497
                           6306 ;	genAssign
   140E 01 40 FF           6307 	ld	bc,#0xFF40
                           6308 ;	genAssign
                           6309 ;	AOP_STK for _run_sloc0_1_0
   1411 23                 6310 	inc	hl
   1412 36 40              6311 	ld	(hl),#0x40
   1414 23                 6312 	inc	hl
   1415 36 FF              6313 	ld	(hl),#0xFF
                           6314 ;	genPointerGet
                           6315 ;	AOP_STK for _run_sloc0_1_0
                           6316 ;	AOP_STK for _run_sloc1_1_0
   1417 2B                 6317 	dec	hl
   1418 5E                 6318 	ld	e,(hl)
   1419 23                 6319 	inc	hl
   141A 56                 6320 	ld	d,(hl)
   141B 1A                 6321 	ld	a,(de)
   141C 2B                 6322 	dec	hl
   141D 2B                 6323 	dec	hl
                           6324 ;	genOr
                           6325 ;	AOP_STK for _run_sloc1_1_0
   141E 77                 6326 	ld      (hl),a
                           6327 ; Removed redundent load
   141F F6 02              6328 	or	a,#0x02
                           6329 ;	genAssign (pointer)
   1421 02                 6330 	ld	(bc),a
                           6331 ;	genGoto
   1422 C3 A4 13           6332 	jp	00106$
                           6333 ;	genLabel
   1425                    6334 00108$:
                           6335 ;	genEndFunction
   1425 E8 03              6336 	lda	sp,3(sp)
   1427 C9                 6337 	ret
   1428                    6338 ___run_end:
                           6339 ;	bustout.c 501
                           6340 ;	genLabel
                           6341 ;	genFunction
                           6342 ;	---------------------------------
                           6343 ; Function main
                           6344 ; ---------------------------------
   1428                    6345 ___main_start:
   1428                    6346 _main:
   1428 E8 FD              6347 	lda	sp,-3(sp)
                           6348 ;	bustout.c 503
                           6349 ;	genAssign
   142A 01 40 FF           6350 	ld	bc,#0xFF40
                           6351 ;	genAssign
                           6352 ;	AOP_STK for _main_sloc0_1_0
   142D F8 01              6353 	lda	hl,1(sp)
   142F 36 40              6354 	ld	(hl),#0x40
   1431 23                 6355 	inc	hl
   1432 36 FF              6356 	ld	(hl),#0xFF
                           6357 ;	genPointerGet
                           6358 ;	AOP_STK for _main_sloc0_1_0
                           6359 ;	AOP_STK for _main_sloc1_1_0
   1434 2B                 6360 	dec	hl
   1435 5E                 6361 	ld	e,(hl)
   1436 23                 6362 	inc	hl
   1437 56                 6363 	ld	d,(hl)
   1438 1A                 6364 	ld	a,(de)
   1439 2B                 6365 	dec	hl
   143A 2B                 6366 	dec	hl
                           6367 ;	genOr
                           6368 ;	AOP_STK for _main_sloc1_1_0
   143B 77                 6369 	ld      (hl),a
   143C 7F                 6370 	ld      a,a
   143D F6 04              6371 	or	a,#0x04
                           6372 ;	genAssign (pointer)
   143F 02                 6373 	ld	(bc),a
                           6374 ;	bustout.c 505
                           6375 ;	genCall
                           6376 ; _saveRegsForCall: sendSetSize: 0 deInUse: 0 bcInUse: 0 deSending: 0
   1440 CD 83 04           6377 	call	_render_background
                           6378 ;	bustout.c 510
                           6379 ;	genCall
                           6380 ; _saveRegsForCall: sendSetSize: 0 deInUse: 0 bcInUse: 0 deSending: 0
   1443 CD A2 13           6381 	call	_run
                           6382 ;	genLabel
   1446                    6383 00101$:
                           6384 ;	genEndFunction
   1446 E8 03              6385 	lda	sp,3(sp)
   1448 C9                 6386 	ret
   1449                    6387 ___main_end:
                           6388 	.area _CODE
ASxxxx Assembler V01.75  (GameBoy Z80-like CPU), page 1.

Symbol Table

  1 _BALL_SIZE                         0F4E GR
  0 _INITIAL_LIVES                     0532 GR
  1 _SCREEN_HEIGHT                     0F4A GR
  1 _SCREEN_WIDTH                      0F48 GR
  1 _SPRITE_SIZE                       0F4C GR
  0 ___abs_end                         0039 R
  0 ___abs_start                       0000 R
  0 ___collide_end                     10EF R
  0 ___collide_start                   0D4C R
  0 ___end_splash_end                  0B63 R
  0 ___end_splash_start                0B48 R
  0 ___input_end                       0C4D R
  0 ___input_start                     0B63 R
  0 ___main_end                        1449 R
  0 ___main_start                      1428 R
  0 ___move_end                        1133 R
  0 ___move_start                      10EF R
  0 ___physics_end                     0D4C R
  0 ___physics_start                   0C4D R
  0 ___render_background_end           04A2 R
  0 ___render_background_start         0483 R
  0 ___render_sad_cody_end             057F R
  0 ___render_sad_cody_start           0542 R
  0 ___render_score_end                12EF R
  0 ___render_score_start              11DD R
  0 ___run_end                         1428 R
  0 ___run_start                       13A2 R
  0 ___score_end                       11DD R
  0 ___score_start                     1133 R
  0 ___set_ball_end                    069E R
  0 ___set_ball_start                  060B R
  0 ___set_blocks_end                  0B48 R
  0 ___set_blocks_start                0869 R
  0 ___set_lives_end                   0869 R
  0 ___set_lives_start                 069E R
  0 ___set_paddle_end                  060B R
  0 ___set_paddle_start                057F R
  0 ___state_blocks_gone_end           135C R
  0 ___state_blocks_gone_start         1317 R
  0 ___state_game_over_end             13A2 R
  0 ___state_game_over_start           1389 R
  0 ___state_life_end_end              1389 R
  0 ___state_life_end_start            135C R
  0 ___state_life_start_end            1317 R
  0 ___state_life_start_start          12EF R
    __divsint_rrx_s                    **** GX
    __initrleblock                     **** GX
    __modsint_rrx_s                    **** GX
    __muluint_rrx_s                    **** GX
  0 _abs                               0000 GR
  0 _alpha                             0039 GR
  0 _ball_speed                        053E GR
  0 _ball_sprite                       053C GR
  1 _ball_vel_x                        0F61 GR
  1 _ball_vel_y                        0F62 GR
  1 _ball_x                            0F5F GR
  1 _ball_y                            0F60 GR
  1 _blank_screen                      0000 GR
  0 _block_map                         04A2 GR
  0 _block_sprite_data                 0443 GR
  1 _block_sprites                     0F6D GR
  1 _codysad_tiledata                  0168 GR
  1 _codysad_tilemap                   0E78 GR
  0 _collide                           0D4C GR
  1 _current_level                     0F59 GR
  0 _death_sprite_data                 0403 GR
  0 _end_splash                        0B48 GR
  0 _framerate                         0534 GR
  1 _frames                            0F67 GR
  1 _game_over                         0F57 GR
  1 _game_over_message_array           1001 GR
  1 _game_score                        0F65 GR
  1 _game_started                      0F53 GR
  0 _input                             0B63 GR
    _joypad                            **** GX
  1 _key                               0F50 GR
  1 _lives                             0F51 GR
  0 _lives_sprite_begin                0540 GR
  0 _main                              1428 GR
  0 _move                              10EF GR
    _move_sprite                       **** GX
  0 _numbers                           0339 GR
  0 _paddle_speed                      053A GR
  0 _paddle_sprite_data                0343 GR
  0 _paddle_sprite_left                0536 GR
  0 _paddle_sprite_right               0538 GR
  1 _paddle_vel_x                      0F5D GR
  1 _paddle_vel_y                      0F5E GR
  1 _paddle_x                          0F5B GR
  1 _paddle_y                          0F5C GR
  0 _physics                           0C4D GR
  0 _render_background                 0483 GR
  0 _render_sad_cody                   0542 GR
  0 _render_score                      11DD GR
  0 _run                               13A2 GR
  0 _score                             1133 GR
  1 _score_array                       0FFD GR
  1 _seconds                           0F69 GR
  0 _set_ball                          060B GR
    _set_bkg_data                      **** GX
    _set_bkg_tiles                     **** GX
  0 _set_blocks                        0869 GR
  0 _set_lives                         069E GR
  0 _set_paddle                        057F GR
    _set_sprite_data                   **** GX
    _set_sprite_tile                   **** GX
  0 _small_ball_sprite_data            0383 GR
  0 _smile_sprite_data                 03C3 GR
  1 _splash_over                       0F55 GR
  0 _state_blocks_gone                 1317 R
  0 _state_game_over                   1389 R
  0 _state_life_end                    135C R
  0 _state_life_start                  12EF R
  1 _temp_seconds                      0F6B GR
  1 _vertical_paddle_movement          0F63 GR
    _wait_vbl_done                     **** GX

ASxxxx Assembler V01.75  (GameBoy Z80-like CPU), page 2.

Area Table

   0 _CODE                              size 1449   flags 0
   1 _DATA                              size 1035   flags 0
   2 _OVERLAY                           size    0   flags 0
   3 _ISEG                              size    0   flags 0
   4 _BSEG                              size    0   flags 0
   5 _XSEG                              size    0   flags 0
   6 _GSINIT                            size  BFC   flags 0
   7 _GSFINAL                           size    0   flags 0
   8 _HOME                              size    0   flags 0
