                              1 ;--------------------------------------------------------
                              2 ; File Created by SDCC : FreeWare ANSI-C Compiler
                              3 ; Version 2.3.1 Wed Sep 11 00:39:44 2019
                              4 
                              5 ;--------------------------------------------------------
                              6 	.module lcc252100
                              7 	
                              8 ;--------------------------------------------------------
                              9 ; Public variables in this module
                             10 ;--------------------------------------------------------
                             11 	.globl _main
                             12 	.globl _run
                             13 	.globl _score
                             14 	.globl _move
                             15 	.globl _collide
                             16 	.globl _physics
                             17 	.globl _input
                             18 	.globl _set_blocks
                             19 	.globl _set_lives
                             20 	.globl _set_ball
                             21 	.globl _set_paddle
                             22 	.globl _block_sprites
                             23 	.globl _ball_vel_y
                             24 	.globl _ball_vel_x
                             25 	.globl _ball_y
                             26 	.globl _ball_x
                             27 	.globl _paddle_vel_y
                             28 	.globl _paddle_vel_x
                             29 	.globl _paddle_y
                             30 	.globl _paddle_x
                             31 	.globl _game_over
                             32 	.globl _game_started
                             33 	.globl _lives
                             34 	.globl _key
                             35 	.globl _BALL_SIZE
                             36 	.globl _SPRITE_SIZE
                             37 	.globl _SCREEN_HEIGHT
                             38 	.globl _SCREEN_WIDTH
                             39 	.globl _lives_sprite_begin
                             40 	.globl _ball_speed
                             41 	.globl _ball_sprite
                             42 	.globl _paddle_speed
                             43 	.globl _paddle_sprite_right
                             44 	.globl _paddle_sprite_left
                             45 	.globl _INITIAL_LIVES
                             46 	.globl _block_sprite_data
                             47 	.globl _death_sprite_data
                             48 	.globl _smile_sprite_data
                             49 	.globl _ball_sprite_data
                             50 	.globl _small_ball_sprite_data
                             51 	.globl _paddle_sprite_data
                             52 ;--------------------------------------------------------
                             53 ; special function registers
                             54 ;--------------------------------------------------------
                             55 ;--------------------------------------------------------
                             56 ; special function bits 
                             57 ;--------------------------------------------------------
                             58 ;--------------------------------------------------------
                             59 ; internal ram data
                             60 ;--------------------------------------------------------
                             61 	.area _DATA
   0000                      62 _SCREEN_WIDTH::
   0000                      63 	.ds 2
   0002                      64 _SCREEN_HEIGHT::
   0002                      65 	.ds 2
   0004                      66 _SPRITE_SIZE::
   0004                      67 	.ds 2
   0006                      68 _BALL_SIZE::
   0006                      69 	.ds 2
   0008                      70 _key::
   0008                      71 	.ds 1
   0009                      72 _lives::
   0009                      73 	.ds 2
   000B                      74 _game_started::
   000B                      75 	.ds 2
   000D                      76 _game_over::
   000D                      77 	.ds 2
   000F                      78 _paddle_x::
   000F                      79 	.ds 1
   0010                      80 _paddle_y::
   0010                      81 	.ds 1
   0011                      82 _paddle_vel_x::
   0011                      83 	.ds 1
   0012                      84 _paddle_vel_y::
   0012                      85 	.ds 1
   0013                      86 _ball_x::
   0013                      87 	.ds 1
   0014                      88 _ball_y::
   0014                      89 	.ds 1
   0015                      90 _ball_vel_x::
   0015                      91 	.ds 1
   0016                      92 _ball_vel_y::
   0016                      93 	.ds 1
   0017                      94 _block_sprites::
   0017                      95 	.ds 144
                             96 ;--------------------------------------------------------
                             97 ; overlayable items in internal ram 
                             98 ;--------------------------------------------------------
                             99 	.area _OVERLAY
                            100 ;--------------------------------------------------------
                            101 ; indirectly addressable internal ram data
                            102 ;--------------------------------------------------------
                            103 	.area _ISEG
                            104 ;--------------------------------------------------------
                            105 ; bit data
                            106 ;--------------------------------------------------------
                            107 	.area _BSEG
                            108 ;--------------------------------------------------------
                            109 ; external ram data
                            110 ;--------------------------------------------------------
                            111 	.area _XSEG
                            112 ;--------------------------------------------------------
                            113 ; global & static initialisations
                            114 ;--------------------------------------------------------
                            115 	.area _GSINIT
                            116 	.area _GSFINAL
                            117 	.area _GSINIT
                            118 ;	bustout.c 77
                            119 ;	genAssign
                            120 ;	AOP_HL for _SCREEN_WIDTH
   0000 21 00 00            121 	ld	hl,#_SCREEN_WIDTH
   0003 36 A0               122 	ld	(hl),#0xA0
   0005 23                  123 	inc	hl
   0006 36 00               124 	ld	(hl),#0x00
                            125 ;	bustout.c 78
                            126 ;	genAssign
                            127 ;	AOP_HL for _SCREEN_HEIGHT
   0008 21 02 00            128 	ld	hl,#_SCREEN_HEIGHT
   000B 36 90               129 	ld	(hl),#0x90
   000D 23                  130 	inc	hl
   000E 36 00               131 	ld	(hl),#0x00
                            132 ;	bustout.c 79
                            133 ;	genAssign
                            134 ;	AOP_HL for _SPRITE_SIZE
   0010 21 04 00            135 	ld	hl,#_SPRITE_SIZE
   0013 36 10               136 	ld	(hl),#0x10
   0015 23                  137 	inc	hl
   0016 36 00               138 	ld	(hl),#0x00
                            139 ;	bustout.c 80
                            140 ;	genAssign
                            141 ;	AOP_HL for _BALL_SIZE
   0018 21 06 00            142 	ld	hl,#_BALL_SIZE
   001B 36 08               143 	ld	(hl),#0x08
   001D 23                  144 	inc	hl
   001E 36 00               145 	ld	(hl),#0x00
                            146 ;	bustout.c 84
                            147 ;	genAssign
                            148 ;	AOP_HL for _INITIAL_LIVES
                            149 ;	AOP_HL for _lives
   0020 21 0C 02            150 	ld	hl,#_INITIAL_LIVES
   0023 2A                  151 	ld	a,(hl+)
   0024 5E                  152 	ld	e,(hl)
   0025 21 09 00            153 	ld	hl,#_lives
   0028 22                  154 	ld	(hl+),a
   0029 73                  155 	ld	(hl),e
                            156 ;	bustout.c 85
                            157 ;	genAssign
                            158 ;	AOP_HL for _game_started
   002A 21 0B 00            159 	ld	hl,#_game_started
   002D 36 00               160 	ld	(hl),#0x00
   002F 23                  161 	inc	hl
   0030 36 00               162 	ld	(hl),#0x00
                            163 ;	bustout.c 86
                            164 ;	genAssign
                            165 ;	AOP_HL for _game_over
   0032 21 0D 00            166 	ld	hl,#_game_over
   0035 36 00               167 	ld	(hl),#0x00
   0037 23                  168 	inc	hl
   0038 36 00               169 	ld	(hl),#0x00
                            170 ;--------------------------------------------------------
                            171 ; Home
                            172 ;--------------------------------------------------------
                            173 	.area _HOME
                            174 	.area _CODE
                            175 ;--------------------------------------------------------
                            176 ; code
                            177 ;--------------------------------------------------------
                            178 	.area _CODE
                            179 ;	bustout.c 109
                            180 ;	genLabel
                            181 ;	genFunction
                            182 ;	---------------------------------
                            183 ; Function set_paddle
                            184 ; ---------------------------------
   0000                     185 ___set_paddle_start:
   0000                     186 _set_paddle:
   0000 E8 FE               187 	lda	sp,-2(sp)
                            188 ;	bustout.c 111
                            189 ;	genRightShift
                            190 ;	AOP_HL for _SCREEN_WIDTH
   0002 21 00 00            191 	ld	hl,#_SCREEN_WIDTH
   0005 4E                  192 	ld	c,(hl)
   0006 23                  193 	inc	hl
   0007 46                  194 	ld	b,(hl)
   0008 CB 28               195 	sra	b
   000A CB 19               196 	rr	c
                            197 ;	genCast
                            198 ;	AOP_HL for _paddle_x
   000C 21 0F 00            199 	ld	hl,#_paddle_x
   000F 71                  200 	ld	(hl),c
                            201 ;	bustout.c 112
                            202 ;	genMinus
                            203 ;	AOP_HL for _SCREEN_HEIGHT
   0010 21 02 00            204 	ld	hl,#_SCREEN_HEIGHT
   0013 4E                  205 	ld	c,(hl)
   0014 23                  206 	inc	hl
   0015 46                  207 	ld	b,(hl)
   0016 0B                  208 	dec	bc
                            209 ;	genCast
                            210 ;	AOP_HL for _paddle_y
   0017 21 10 00            211 	ld	hl,#_paddle_y
   001A 71                  212 	ld	(hl),c
                            213 ;	bustout.c 114
                            214 ;	genIpush
                            215 ; _saveRegsForCall: sendSetSize: 0 deInUse: 0 bcInUse: 0 deSending: 0
   001B 21 8C 00            216 	ld	hl,#_paddle_sprite_data
   001E E5                  217 	push	hl
                            218 ;	genIpush
   001F 21 00 08            219 	ld	hl,#0x0800
   0022 E5                  220 	push	hl
                            221 ;	genCall
   0023 CD 00 00            222 	call	_set_sprite_data
   0026 E8 04               223 	lda	sp,4(sp)
                            224 ;	bustout.c 115
                            225 ;	genAssign
                            226 ;	AOP_HL for _paddle_sprite_left
   0028 21 0E 02            227 	ld	hl,#_paddle_sprite_left
   002B 4E                  228 	ld	c,(hl)
   002C 23                  229 	inc	hl
   002D 46                  230 	ld	b,(hl)
                            231 ;	genCast
                            232 ; Removed redundent load
                            233 ;	genIpush
                            234 ; _saveRegsForCall: sendSetSize: 0 deInUse: 0 bcInUse: 0 deSending: 0
   002E 3E 00               235 	ld	a,#0x00
   0030 F5                  236 	push	af
   0031 33                  237 	inc	sp
                            238 ;	genIpush
   0032 79                  239 	ld	a,c
   0033 F5                  240 	push	af
   0034 33                  241 	inc	sp
                            242 ;	genCall
   0035 CD 00 00            243 	call	_set_sprite_tile
   0038 E8 02               244 	lda	sp,2(sp)
                            245 ;	bustout.c 116
                            246 ;	genAssign
                            247 ;	AOP_HL for _paddle_sprite_right
   003A 21 10 02            248 	ld	hl,#_paddle_sprite_right
   003D 4E                  249 	ld	c,(hl)
   003E 23                  250 	inc	hl
   003F 46                  251 	ld	b,(hl)
                            252 ;	genCast
                            253 ; Removed redundent load
                            254 ;	genIpush
                            255 ; _saveRegsForCall: sendSetSize: 0 deInUse: 0 bcInUse: 0 deSending: 0
   0040 3E 02               256 	ld	a,#0x02
   0042 F5                  257 	push	af
   0043 33                  258 	inc	sp
                            259 ;	genIpush
   0044 79                  260 	ld	a,c
   0045 F5                  261 	push	af
   0046 33                  262 	inc	sp
                            263 ;	genCall
   0047 CD 00 00            264 	call	_set_sprite_tile
   004A E8 02               265 	lda	sp,2(sp)
                            266 ;	bustout.c 117
                            267 ;	genAssign
                            268 ;	AOP_HL for _paddle_sprite_left
   004C 21 0E 02            269 	ld	hl,#_paddle_sprite_left
   004F 4E                  270 	ld	c,(hl)
   0050 23                  271 	inc	hl
   0051 46                  272 	ld	b,(hl)
                            273 ;	genCast
                            274 ; Removed redundent load
                            275 ;	genIpush
                            276 ; _saveRegsForCall: sendSetSize: 0 deInUse: 0 bcInUse: 0 deSending: 0
                            277 ;	AOP_HL for _paddle_y
   0052 21 10 00            278 	ld	hl,#_paddle_y
   0055 7E                  279 	ld	a,(hl)
   0056 F5                  280 	push	af
   0057 33                  281 	inc	sp
                            282 ;	genIpush
                            283 ;	AOP_HL for _paddle_x
   0058 21 0F 00            284 	ld	hl,#_paddle_x
   005B 7E                  285 	ld	a,(hl)
   005C F5                  286 	push	af
   005D 33                  287 	inc	sp
                            288 ;	genIpush
   005E 79                  289 	ld	a,c
   005F F5                  290 	push	af
   0060 33                  291 	inc	sp
                            292 ;	genCall
   0061 CD 00 00            293 	call	_move_sprite
   0064 E8 03               294 	lda	sp,3(sp)
                            295 ;	bustout.c 118
                            296 ;	genPlus
                            297 ;	AOP_HL for _paddle_x
                            298 ;	genPlusIncr
                            299 ;	Can't optimise plus by inc, falling back to the normal way
   0066 21 0F 00            300 	ld	hl,#_paddle_x
   0069 7E                  301 	ld	a,(hl)
   006A C6 08               302 	add	a,#0x08
   006C 4F                  303 	ld	c,a
                            304 ;	genAssign
                            305 ;	AOP_HL for _paddle_sprite_right
                            306 ;	AOP_STK for _set_paddle_sloc0_1_0
   006D 21 10 02            307 	ld	hl,#_paddle_sprite_right
   0070 2A                  308 	ld	a,(hl+)
   0071 5E                  309 	ld	e,(hl)
   0072 F8 00               310 	lda	hl,0(sp)
   0074 22                  311 	ld	(hl+),a
   0075 73                  312 	ld	(hl),e
                            313 ;	genCast
                            314 ;	AOP_STK for _set_paddle_sloc0_1_0
   0076 2B                  315 	dec	hl
   0077 46                  316 	ld	b,(hl)
                            317 ;	genIpush
                            318 ; _saveRegsForCall: sendSetSize: 0 deInUse: 0 bcInUse: 0 deSending: 0
                            319 ;	AOP_HL for _paddle_y
   0078 21 10 00            320 	ld	hl,#_paddle_y
   007B 7E                  321 	ld	a,(hl)
   007C F5                  322 	push	af
   007D 33                  323 	inc	sp
                            324 ;	genIpush
   007E 79                  325 	ld	a,c
   007F F5                  326 	push	af
   0080 33                  327 	inc	sp
                            328 ;	genIpush
   0081 78                  329 	ld	a,b
   0082 F5                  330 	push	af
   0083 33                  331 	inc	sp
                            332 ;	genCall
   0084 CD 00 00            333 	call	_move_sprite
   0087 E8 03               334 	lda	sp,3(sp)
                            335 ;	genLabel
   0089                     336 00101$:
                            337 ;	genEndFunction
   0089 E8 02               338 	lda	sp,2(sp)
   008B C9                  339 	ret
   008C                     340 ___set_paddle_end:
   008C                     341 _paddle_sprite_data:
   008C 00                  342 	.db #0x00
   008D 00                  343 	.db #0x00
   008E 00                  344 	.db #0x00
   008F 00                  345 	.db #0x00
   0090 00                  346 	.db #0x00
   0091 00                  347 	.db #0x00
   0092 00                  348 	.db #0x00
   0093 00                  349 	.db #0x00
   0094 00                  350 	.db #0x00
   0095 00                  351 	.db #0x00
   0096 00                  352 	.db #0x00
   0097 00                  353 	.db #0x00
   0098 00                  354 	.db #0x00
   0099 00                  355 	.db #0x00
   009A 00                  356 	.db #0x00
   009B 00                  357 	.db #0x00
   009C 00                  358 	.db #0x00
   009D 00                  359 	.db #0x00
   009E 00                  360 	.db #0x00
   009F 00                  361 	.db #0x00
   00A0 00                  362 	.db #0x00
   00A1 00                  363 	.db #0x00
   00A2 00                  364 	.db #0x00
   00A3 00                  365 	.db #0x00
   00A4 FF                  366 	.db #0xFF
   00A5 FF                  367 	.db #0xFF
   00A6 FF                  368 	.db #0xFF
   00A7 FF                  369 	.db #0xFF
   00A8 7F                  370 	.db #0x7F
   00A9 7F                  371 	.db #0x7F
   00AA 3F                  372 	.db #0x3F
   00AB 3F                  373 	.db #0x3F
   00AC 00                  374 	.db #0x00
   00AD 00                  375 	.db #0x00
   00AE 00                  376 	.db #0x00
   00AF 00                  377 	.db #0x00
   00B0 00                  378 	.db #0x00
   00B1 00                  379 	.db #0x00
   00B2 00                  380 	.db #0x00
   00B3 00                  381 	.db #0x00
   00B4 00                  382 	.db #0x00
   00B5 00                  383 	.db #0x00
   00B6 00                  384 	.db #0x00
   00B7 00                  385 	.db #0x00
   00B8 00                  386 	.db #0x00
   00B9 00                  387 	.db #0x00
   00BA 00                  388 	.db #0x00
   00BB 00                  389 	.db #0x00
   00BC 00                  390 	.db #0x00
   00BD 00                  391 	.db #0x00
   00BE 00                  392 	.db #0x00
   00BF 00                  393 	.db #0x00
   00C0 00                  394 	.db #0x00
   00C1 00                  395 	.db #0x00
   00C2 00                  396 	.db #0x00
   00C3 00                  397 	.db #0x00
   00C4 FF                  398 	.db #0xFF
   00C5 FF                  399 	.db #0xFF
   00C6 FF                  400 	.db #0xFF
   00C7 FF                  401 	.db #0xFF
   00C8 FE                  402 	.db #0xFE
   00C9 FE                  403 	.db #0xFE
   00CA FC                  404 	.db #0xFC
   00CB FC                  405 	.db #0xFC
   00CC                     406 _small_ball_sprite_data:
   00CC 00                  407 	.db #0x00
   00CD 00                  408 	.db #0x00
   00CE 00                  409 	.db #0x00
   00CF 00                  410 	.db #0x00
   00D0 00                  411 	.db #0x00
   00D1 00                  412 	.db #0x00
   00D2 00                  413 	.db #0x00
   00D3 00                  414 	.db #0x00
   00D4 00                  415 	.db #0x00
   00D5 00                  416 	.db #0x00
   00D6 00                  417 	.db #0x00
   00D7 00                  418 	.db #0x00
   00D8 00                  419 	.db #0x00
   00D9 00                  420 	.db #0x00
   00DA 00                  421 	.db #0x00
   00DB 00                  422 	.db #0x00
   00DC 18                  423 	.db #0x18
   00DD 18                  424 	.db #0x18
   00DE 7E                  425 	.db #0x7E
   00DF 7E                  426 	.db #0x7E
   00E0 7E                  427 	.db #0x7E
   00E1 7E                  428 	.db #0x7E
   00E2 FF                  429 	.db #0xFF
   00E3 FF                  430 	.db #0xFF
   00E4 FF                  431 	.db #0xFF
   00E5 FF                  432 	.db #0xFF
   00E6 7E                  433 	.db #0x7E
   00E7 7E                  434 	.db #0x7E
   00E8 7E                  435 	.db #0x7E
   00E9 7E                  436 	.db #0x7E
   00EA 18                  437 	.db #0x18
   00EB 18                  438 	.db #0x18
   00EC 00                  439 	.db #0x00
   00ED 00                  440 	.db #0x00
   00EE 00                  441 	.db #0x00
   00EF 00                  442 	.db #0x00
   00F0 00                  443 	.db #0x00
   00F1 00                  444 	.db #0x00
   00F2 00                  445 	.db #0x00
   00F3 00                  446 	.db #0x00
   00F4 00                  447 	.db #0x00
   00F5 00                  448 	.db #0x00
   00F6 00                  449 	.db #0x00
   00F7 00                  450 	.db #0x00
   00F8 00                  451 	.db #0x00
   00F9 00                  452 	.db #0x00
   00FA 00                  453 	.db #0x00
   00FB 00                  454 	.db #0x00
   00FC 00                  455 	.db #0x00
   00FD 00                  456 	.db #0x00
   00FE 00                  457 	.db #0x00
   00FF 00                  458 	.db #0x00
   0100 00                  459 	.db #0x00
   0101 00                  460 	.db #0x00
   0102 00                  461 	.db #0x00
   0103 00                  462 	.db #0x00
   0104 00                  463 	.db #0x00
   0105 00                  464 	.db #0x00
   0106 00                  465 	.db #0x00
   0107 00                  466 	.db #0x00
   0108 00                  467 	.db #0x00
   0109 00                  468 	.db #0x00
   010A 00                  469 	.db #0x00
   010B 00                  470 	.db #0x00
   010C                     471 _ball_sprite_data:
   010C 07                  472 	.db #0x07
   010D 07                  473 	.db #0x07
   010E 1F                  474 	.db #0x1F
   010F 1F                  475 	.db #0x1F
   0110 3F                  476 	.db #0x3F
   0111 3F                  477 	.db #0x3F
   0112 7F                  478 	.db #0x7F
   0113 7F                  479 	.db #0x7F
   0114 7F                  480 	.db #0x7F
   0115 7F                  481 	.db #0x7F
   0116 FF                  482 	.db #0xFF
   0117 FF                  483 	.db #0xFF
   0118 FF                  484 	.db #0xFF
   0119 FF                  485 	.db #0xFF
   011A FF                  486 	.db #0xFF
   011B FF                  487 	.db #0xFF
   011C FF                  488 	.db #0xFF
   011D FF                  489 	.db #0xFF
   011E FF                  490 	.db #0xFF
   011F FF                  491 	.db #0xFF
   0120 FF                  492 	.db #0xFF
   0121 FF                  493 	.db #0xFF
   0122 7F                  494 	.db #0x7F
   0123 7F                  495 	.db #0x7F
   0124 7F                  496 	.db #0x7F
   0125 7F                  497 	.db #0x7F
   0126 3F                  498 	.db #0x3F
   0127 3F                  499 	.db #0x3F
   0128 1F                  500 	.db #0x1F
   0129 1F                  501 	.db #0x1F
   012A 07                  502 	.db #0x07
   012B 07                  503 	.db #0x07
   012C E0                  504 	.db #0xE0
   012D E0                  505 	.db #0xE0
   012E F8                  506 	.db #0xF8
   012F F8                  507 	.db #0xF8
   0130 FC                  508 	.db #0xFC
   0131 FC                  509 	.db #0xFC
   0132 FE                  510 	.db #0xFE
   0133 FE                  511 	.db #0xFE
   0134 FE                  512 	.db #0xFE
   0135 FE                  513 	.db #0xFE
   0136 FF                  514 	.db #0xFF
   0137 FF                  515 	.db #0xFF
   0138 FF                  516 	.db #0xFF
   0139 FF                  517 	.db #0xFF
   013A FF                  518 	.db #0xFF
   013B FF                  519 	.db #0xFF
   013C FF                  520 	.db #0xFF
   013D FF                  521 	.db #0xFF
   013E FF                  522 	.db #0xFF
   013F FF                  523 	.db #0xFF
   0140 FF                  524 	.db #0xFF
   0141 FF                  525 	.db #0xFF
   0142 FE                  526 	.db #0xFE
   0143 FE                  527 	.db #0xFE
   0144 FE                  528 	.db #0xFE
   0145 FE                  529 	.db #0xFE
   0146 FC                  530 	.db #0xFC
   0147 FC                  531 	.db #0xFC
   0148 F8                  532 	.db #0xF8
   0149 F8                  533 	.db #0xF8
   014A E0                  534 	.db #0xE0
   014B E0                  535 	.db #0xE0
   014C                     536 _smile_sprite_data:
   014C 07                  537 	.db #0x07
   014D 07                  538 	.db #0x07
   014E 1F                  539 	.db #0x1F
   014F 1F                  540 	.db #0x1F
   0150 3F                  541 	.db #0x3F
   0151 3F                  542 	.db #0x3F
   0152 7F                  543 	.db #0x7F
   0153 7B                  544 	.db #0x7B
   0154 7F                  545 	.db #0x7F
   0155 73                  546 	.db #0x73
   0156 FF                  547 	.db #0xFF
   0157 F3                  548 	.db #0xF3
   0158 F3                  549 	.db #0xF3
   0159 FF                  550 	.db #0xFF
   015A F3                  551 	.db #0xF3
   015B FF                  552 	.db #0xFF
   015C FF                  553 	.db #0xFF
   015D FF                  554 	.db #0xFF
   015E FF                  555 	.db #0xFF
   015F FF                  556 	.db #0xFF
   0160 FF                  557 	.db #0xFF
   0161 E0                  558 	.db #0xE0
   0162 7F                  559 	.db #0x7F
   0163 60                  560 	.db #0x60
   0164 7F                  561 	.db #0x7F
   0165 70                  562 	.db #0x70
   0166 3F                  563 	.db #0x3F
   0167 3C                  564 	.db #0x3C
   0168 1F                  565 	.db #0x1F
   0169 1F                  566 	.db #0x1F
   016A 07                  567 	.db #0x07
   016B 07                  568 	.db #0x07
   016C E0                  569 	.db #0xE0
   016D E0                  570 	.db #0xE0
   016E F8                  571 	.db #0xF8
   016F F8                  572 	.db #0xF8
   0170 FC                  573 	.db #0xFC
   0171 FC                  574 	.db #0xFC
   0172 FE                  575 	.db #0xFE
   0173 DE                  576 	.db #0xDE
   0174 FE                  577 	.db #0xFE
   0175 CE                  578 	.db #0xCE
   0176 FF                  579 	.db #0xFF
   0177 CF                  580 	.db #0xCF
   0178 CF                  581 	.db #0xCF
   0179 FF                  582 	.db #0xFF
   017A CF                  583 	.db #0xCF
   017B FF                  584 	.db #0xFF
   017C FF                  585 	.db #0xFF
   017D FF                  586 	.db #0xFF
   017E FF                  587 	.db #0xFF
   017F FF                  588 	.db #0xFF
   0180 FF                  589 	.db #0xFF
   0181 07                  590 	.db #0x07
   0182 FE                  591 	.db #0xFE
   0183 06                  592 	.db #0x06
   0184 FE                  593 	.db #0xFE
   0185 0E                  594 	.db #0x0E
   0186 FC                  595 	.db #0xFC
   0187 3C                  596 	.db #0x3C
   0188 F8                  597 	.db #0xF8
   0189 F8                  598 	.db #0xF8
   018A E0                  599 	.db #0xE0
   018B E0                  600 	.db #0xE0
   018C                     601 _death_sprite_data:
   018C 07                  602 	.db #0x07
   018D 07                  603 	.db #0x07
   018E 1F                  604 	.db #0x1F
   018F 1F                  605 	.db #0x1F
   0190 0F                  606 	.db #0x0F
   0191 0F                  607 	.db #0x0F
   0192 67                  608 	.db #0x67
   0193 67                  609 	.db #0x67
   0194 73                  610 	.db #0x73
   0195 73                  611 	.db #0x73
   0196 F9                  612 	.db #0xF9
   0197 F9                  613 	.db #0xF9
   0198 FC                  614 	.db #0xFC
   0199 FC                  615 	.db #0xFC
   019A FE                  616 	.db #0xFE
   019B FE                  617 	.db #0xFE
   019C FC                  618 	.db #0xFC
   019D FC                  619 	.db #0xFC
   019E F9                  620 	.db #0xF9
   019F F9                  621 	.db #0xF9
   01A0 F3                  622 	.db #0xF3
   01A1 F3                  623 	.db #0xF3
   01A2 67                  624 	.db #0x67
   01A3 67                  625 	.db #0x67
   01A4 4F                  626 	.db #0x4F
   01A5 4F                  627 	.db #0x4F
   01A6 1F                  628 	.db #0x1F
   01A7 1F                  629 	.db #0x1F
   01A8 1F                  630 	.db #0x1F
   01A9 1F                  631 	.db #0x1F
   01AA 07                  632 	.db #0x07
   01AB 07                  633 	.db #0x07
   01AC E0                  634 	.db #0xE0
   01AD E0                  635 	.db #0xE0
   01AE F8                  636 	.db #0xF8
   01AF F8                  637 	.db #0xF8
   01B0 F0                  638 	.db #0xF0
   01B1 F0                  639 	.db #0xF0
   01B2 E6                  640 	.db #0xE6
   01B3 E6                  641 	.db #0xE6
   01B4 CE                  642 	.db #0xCE
   01B5 CE                  643 	.db #0xCE
   01B6 9F                  644 	.db #0x9F
   01B7 9F                  645 	.db #0x9F
   01B8 3F                  646 	.db #0x3F
   01B9 3F                  647 	.db #0x3F
   01BA 7F                  648 	.db #0x7F
   01BB 7F                  649 	.db #0x7F
   01BC 3F                  650 	.db #0x3F
   01BD 3F                  651 	.db #0x3F
   01BE 9F                  652 	.db #0x9F
   01BF 9F                  653 	.db #0x9F
   01C0 CF                  654 	.db #0xCF
   01C1 CF                  655 	.db #0xCF
   01C2 E6                  656 	.db #0xE6
   01C3 E6                  657 	.db #0xE6
   01C4 F2                  658 	.db #0xF2
   01C5 F2                  659 	.db #0xF2
   01C6 F8                  660 	.db #0xF8
   01C7 F8                  661 	.db #0xF8
   01C8 F8                  662 	.db #0xF8
   01C9 F8                  663 	.db #0xF8
   01CA E0                  664 	.db #0xE0
   01CB E0                  665 	.db #0xE0
   01CC                     666 _block_sprite_data:
   01CC FF                  667 	.db #0xFF
   01CD FF                  668 	.db #0xFF
   01CE FF                  669 	.db #0xFF
   01CF 80                  670 	.db #0x80
   01D0 FF                  671 	.db #0xFF
   01D1 BF                  672 	.db #0xBF
   01D2 FF                  673 	.db #0xFF
   01D3 A0                  674 	.db #0xA0
   01D4 FF                  675 	.db #0xFF
   01D5 AF                  676 	.db #0xAF
   01D6 FF                  677 	.db #0xFF
   01D7 A8                  678 	.db #0xA8
   01D8 FF                  679 	.db #0xFF
   01D9 AB                  680 	.db #0xAB
   01DA FF                  681 	.db #0xFF
   01DB AA                  682 	.db #0xAA
   01DC FF                  683 	.db #0xFF
   01DD AA                  684 	.db #0xAA
   01DE FF                  685 	.db #0xFF
   01DF AB                  686 	.db #0xAB
   01E0 FF                  687 	.db #0xFF
   01E1 A8                  688 	.db #0xA8
   01E2 FF                  689 	.db #0xFF
   01E3 AF                  690 	.db #0xAF
   01E4 FF                  691 	.db #0xFF
   01E5 A0                  692 	.db #0xA0
   01E6 FF                  693 	.db #0xFF
   01E7 BF                  694 	.db #0xBF
   01E8 FF                  695 	.db #0xFF
   01E9 80                  696 	.db #0x80
   01EA FF                  697 	.db #0xFF
   01EB FF                  698 	.db #0xFF
   01EC FF                  699 	.db #0xFF
   01ED FF                  700 	.db #0xFF
   01EE FF                  701 	.db #0xFF
   01EF 01                  702 	.db #0x01
   01F0 FF                  703 	.db #0xFF
   01F1 FD                  704 	.db #0xFD
   01F2 FF                  705 	.db #0xFF
   01F3 05                  706 	.db #0x05
   01F4 FF                  707 	.db #0xFF
   01F5 F5                  708 	.db #0xF5
   01F6 FF                  709 	.db #0xFF
   01F7 15                  710 	.db #0x15
   01F8 FF                  711 	.db #0xFF
   01F9 D5                  712 	.db #0xD5
   01FA FF                  713 	.db #0xFF
   01FB 55                  714 	.db #0x55
   01FC FF                  715 	.db #0xFF
   01FD 55                  716 	.db #0x55
   01FE FF                  717 	.db #0xFF
   01FF D5                  718 	.db #0xD5
   0200 FF                  719 	.db #0xFF
   0201 15                  720 	.db #0x15
   0202 FF                  721 	.db #0xFF
   0203 F5                  722 	.db #0xF5
   0204 FF                  723 	.db #0xFF
   0205 05                  724 	.db #0x05
   0206 FF                  725 	.db #0xFF
   0207 FD                  726 	.db #0xFD
   0208 FF                  727 	.db #0xFF
   0209 01                  728 	.db #0x01
   020A FF                  729 	.db #0xFF
   020B FF                  730 	.db #0xFF
   020C                     731 _INITIAL_LIVES:
   020C 03 00               732 	.dw #0x0003
   020E                     733 _paddle_sprite_left:
   020E 00 00               734 	.dw #0x0000
   0210                     735 _paddle_sprite_right:
   0210 01 00               736 	.dw #0x0001
   0212                     737 _paddle_speed:
   0212 03 00               738 	.dw #0x0003
   0214                     739 _ball_sprite:
   0214 02 00               740 	.dw #0x0002
   0216                     741 _ball_speed:
   0216 01 00               742 	.dw #0x0001
   0218                     743 _lives_sprite_begin:
   0218 03 00               744 	.dw #0x0003
                            745 ;	bustout.c 121
                            746 ;	genLabel
                            747 ;	genFunction
                            748 ;	---------------------------------
                            749 ; Function set_ball
                            750 ; ---------------------------------
   021A                     751 ___set_ball_start:
   021A                     752 _set_ball:
   021A E8 FE               753 	lda	sp,-2(sp)
                            754 ;	bustout.c 123
                            755 ;	genRightShift
                            756 ;	AOP_HL for _SCREEN_WIDTH
   021C 21 00 00            757 	ld	hl,#_SCREEN_WIDTH
   021F 4E                  758 	ld	c,(hl)
   0220 23                  759 	inc	hl
   0221 46                  760 	ld	b,(hl)
   0222 CB 28               761 	sra	b
   0224 CB 19               762 	rr	c
                            763 ;	genRightShift
                            764 ;	AOP_HL for _BALL_SIZE
                            765 ;	AOP_STK for _set_ball_sloc0_1_0
   0226 21 06 00            766 	ld	hl,#_BALL_SIZE
   0229 7E                  767 	ld	a,(hl)
   022A F8 00               768 	lda	hl,0(sp)
   022C 77                  769 	ld	(hl),a
   022D 21 07 00            770 	ld	hl,#_BALL_SIZE + 1
   0230 7E                  771 	ld	a,(hl)
   0231 F8 01               772 	lda	hl,1(sp)
   0233 77                  773 	ld	(hl),a
   0234 CB 2E               774 	sra	(hl)
   0236 2B                  775 	dec	hl
   0237 CB 1E               776 	rr	(hl)
                            777 ;	genPlus
                            778 ;	AOP_STK for _set_ball_sloc0_1_0
                            779 ;	Can't optimise plus by inc, falling back to the normal way
   0239 2A                  780 	ld	a,(hl+)
   023A 66                  781 	ld	h,(hl)
   023B 6F                  782 	ld	l,a
   023C 09                  783 	add	hl,bc
   023D 4D                  784 	ld	c,l
   023E 44                  785 	ld	b,h
                            786 ;	genCast
                            787 ;	AOP_HL for _ball_x
   023F 21 13 00            788 	ld	hl,#_ball_x
   0242 71                  789 	ld	(hl),c
                            790 ;	bustout.c 124
                            791 ;	genMinus
                            792 ;	AOP_HL for _SCREEN_HEIGHT
   0243 21 02 00            793 	ld	hl,#_SCREEN_HEIGHT
   0246 7E                  794 	ld	a,(hl)
   0247 C6 FB               795 	add	a,#0xFB
   0249 4F                  796 	ld	c,a
   024A 23                  797 	inc	hl
   024B 7E                  798 	ld	a,(hl)
   024C CE FF               799 	adc	a,#0xFF
   024E 47                  800 	ld	b,a
                            801 ;	genCast
                            802 ;	AOP_HL for _ball_y
   024F 21 14 00            803 	ld	hl,#_ball_y
   0252 71                  804 	ld	(hl),c
                            805 ;	bustout.c 126
                            806 ;	genIpush
                            807 ; _saveRegsForCall: sendSetSize: 0 deInUse: 0 bcInUse: 0 deSending: 0
   0253 21 CC 00            808 	ld	hl,#_small_ball_sprite_data
   0256 E5                  809 	push	hl
                            810 ;	genIpush
   0257 21 08 08            811 	ld	hl,#0x0808
   025A E5                  812 	push	hl
                            813 ;	genCall
   025B CD 00 00            814 	call	_set_sprite_data
   025E E8 04               815 	lda	sp,4(sp)
                            816 ;	bustout.c 127
                            817 ;	genAssign
                            818 ;	AOP_HL for _ball_sprite
   0260 21 14 02            819 	ld	hl,#_ball_sprite
   0263 4E                  820 	ld	c,(hl)
   0264 23                  821 	inc	hl
   0265 46                  822 	ld	b,(hl)
                            823 ;	genCast
                            824 ; Removed redundent load
                            825 ;	genIpush
                            826 ; _saveRegsForCall: sendSetSize: 0 deInUse: 0 bcInUse: 0 deSending: 0
   0266 3E 08               827 	ld	a,#0x08
   0268 F5                  828 	push	af
   0269 33                  829 	inc	sp
                            830 ;	genIpush
   026A 79                  831 	ld	a,c
   026B F5                  832 	push	af
   026C 33                  833 	inc	sp
                            834 ;	genCall
   026D CD 00 00            835 	call	_set_sprite_tile
   0270 E8 02               836 	lda	sp,2(sp)
                            837 ;	bustout.c 128
                            838 ;	genAssign
                            839 ;	AOP_HL for _ball_sprite
   0272 21 14 02            840 	ld	hl,#_ball_sprite
   0275 4E                  841 	ld	c,(hl)
   0276 23                  842 	inc	hl
   0277 46                  843 	ld	b,(hl)
                            844 ;	genCast
                            845 ; Removed redundent load
                            846 ;	genIpush
                            847 ; _saveRegsForCall: sendSetSize: 0 deInUse: 0 bcInUse: 0 deSending: 0
                            848 ;	AOP_HL for _ball_y
   0278 21 14 00            849 	ld	hl,#_ball_y
   027B 7E                  850 	ld	a,(hl)
   027C F5                  851 	push	af
   027D 33                  852 	inc	sp
                            853 ;	genIpush
                            854 ;	AOP_HL for _ball_x
   027E 21 13 00            855 	ld	hl,#_ball_x
   0281 7E                  856 	ld	a,(hl)
   0282 F5                  857 	push	af
   0283 33                  858 	inc	sp
                            859 ;	genIpush
   0284 79                  860 	ld	a,c
   0285 F5                  861 	push	af
   0286 33                  862 	inc	sp
                            863 ;	genCall
   0287 CD 00 00            864 	call	_move_sprite
   028A E8 03               865 	lda	sp,3(sp)
                            866 ;	bustout.c 131
                            867 ;	genIfx
                            868 ;	AOP_STK for 
   028C F8 04               869 	lda	hl,4(sp)
   028E 2A                  870 	ld	a,(hl+)
   028F B6                  871 	or	a,(hl)
   0290 CA A0 02            872 	jp	z,00102$
                            873 ;	bustout.c 132
                            874 ;	genAssign
                            875 ;	AOP_HL for _ball_vel_y
   0293 21 16 00            876 	ld	hl,#_ball_vel_y
   0296 36 FF               877 	ld	(hl),#0xFF
                            878 ;	bustout.c 133
                            879 ;	genAssign
                            880 ;	AOP_HL for _ball_vel_x
   0298 21 15 00            881 	ld	hl,#_ball_vel_x
   029B 36 01               882 	ld	(hl),#0x01
                            883 ;	genGoto
   029D C3 AA 02            884 	jp	00104$
                            885 ;	genLabel
   02A0                     886 00102$:
                            887 ;	bustout.c 135
                            888 ;	genAssign
                            889 ;	AOP_HL for _ball_vel_x
   02A0 21 15 00            890 	ld	hl,#_ball_vel_x
   02A3 36 00               891 	ld	(hl),#0x00
                            892 ;	bustout.c 136
                            893 ;	genAssign
                            894 ;	AOP_HL for _ball_vel_y
   02A5 21 16 00            895 	ld	hl,#_ball_vel_y
   02A8 36 00               896 	ld	(hl),#0x00
                            897 ;	genLabel
   02AA                     898 00104$:
                            899 ;	genEndFunction
   02AA E8 02               900 	lda	sp,2(sp)
   02AC C9                  901 	ret
   02AD                     902 ___set_ball_end:
                            903 ;	bustout.c 140
                            904 ;	genLabel
                            905 ;	genFunction
                            906 ;	---------------------------------
                            907 ; Function set_lives
                            908 ; ---------------------------------
   02AD                     909 ___set_lives_start:
   02AD                     910 _set_lives:
   02AD E8 F1               911 	lda	sp,-15(sp)
                            912 ;	bustout.c 143
                            913 ;	genAssign
                            914 ;	AOP_HL for _lives_sprite_begin
   02AF 21 18 02            915 	ld	hl,#_lives_sprite_begin
   02B2 4E                  916 	ld	c,(hl)
   02B3 23                  917 	inc	hl
   02B4 46                  918 	ld	b,(hl)
                            919 ;	genAssign
                            920 ;	AOP_STK for _set_lives_sp_1_1
   02B5 F8 03               921 	lda	hl,3(sp)
   02B7 71                  922 	ld	(hl),c
   02B8 23                  923 	inc	hl
   02B9 70                  924 	ld	(hl),b
                            925 ;	bustout.c 145
                            926 ;	genIpush
                            927 ; _saveRegsForCall: sendSetSize: 0 deInUse: 0 bcInUse: 0 deSending: 0
   02BA 21 4C 01            928 	ld	hl,#_smile_sprite_data
   02BD E5                  929 	push	hl
                            930 ;	genIpush
   02BE 21 10 08            931 	ld	hl,#0x0810
   02C1 E5                  932 	push	hl
                            933 ;	genCall
   02C2 CD 00 00            934 	call	_set_sprite_data
   02C5 E8 04               935 	lda	sp,4(sp)
                            936 ;	bustout.c 146
                            937 ;	genIpush
                            938 ; _saveRegsForCall: sendSetSize: 0 deInUse: 0 bcInUse: 0 deSending: 0
   02C7 21 8C 01            939 	ld	hl,#_death_sprite_data
   02CA E5                  940 	push	hl
                            941 ;	genIpush
   02CB 21 18 08            942 	ld	hl,#0x0818
   02CE E5                  943 	push	hl
                            944 ;	genCall
   02CF CD 00 00            945 	call	_set_sprite_data
   02D2 E8 04               946 	lda	sp,4(sp)
                            947 ;	bustout.c 148
                            948 ;	genAssign
                            949 ;	AOP_STK for _set_lives_i_1_1
   02D4 F8 0D               950 	lda	hl,13(sp)
   02D6 36 00               951 	ld	(hl),#0x00
   02D8 23                  952 	inc	hl
   02D9 36 00               953 	ld	(hl),#0x00
                            954 ;	genLabel
   02DB                     955 00101$:
                            956 ;	genCmpLt
                            957 ;	AOP_STK for _set_lives_i_1_1
                            958 ;	AOP_HL for _lives
   02DB F8 0E               959 	lda	hl,14(sp)
   02DD 7E                  960 	ld	a,(hl)
   02DE EE 80               961 	xor	a,#0x80
   02E0 5F                  962 	ld	e,a
   02E1 21 0A 00            963 	ld	hl,#_lives + 1
   02E4 7E                  964 	ld	a,(hl)
   02E5 EE 80               965 	xor	a,#0x80
   02E7 57                  966 	ld	d,a
   02E8 F8 0D               967 	lda	hl,13(sp)
   02EA 7E                  968 	ld	a,(hl)
   02EB 21 09 00            969 	ld	hl,#_lives
   02EE 96                  970 	sub	a,(hl)
   02EF 7B                  971 	ld	a,e
   02F0 9A                  972 	sbc	a,d
   02F1 D2 AB 03            973 	jp	nc,00104$
                            974 ;	bustout.c 149
                            975 ;	genLeftShift
                            976 ;	AOP_STK for _set_lives_i_1_1
                            977 ;	AOP_STK for _set_lives_offset_1_1
   02F4 F8 0D               978 	lda	hl,13(sp)
   02F6 7E                  979 	ld	a,(hl)
   02F7 F8 05               980 	lda	hl,5(sp)
   02F9 77                  981 	ld	(hl),a
   02FA F8 0E               982 	lda	hl,14(sp)
   02FC 7E                  983 	ld	a,(hl)
   02FD F8 06               984 	lda	hl,6(sp)
   02FF 77                  985 	ld	(hl),a
   0300 3E 05               986 	ld	a,#0x04+1
   0302 18 07               987 	jr	00116$
   0304                     988 00115$:
   0304 F8 05               989 	lda	hl,5(sp)
   0306 CB 26               990 	sla	(hl)
   0308 23                  991 	inc	hl
   0309 CB 16               992 	rl	(hl)
   030B                     993 00116$:
   030B 3D                  994 	dec	a
   030C 20 F6               995 	jr	nz,00115$
                            996 ;	bustout.c 150
                            997 ;	genAssign
                            998 ;	AOP_STK for _set_lives_sp_1_1
                            999 ;	AOP_STK for _set_lives_sloc0_1_0
   030E F8 03              1000 	lda	hl,3(sp)
   0310 2A                 1001 	ld	a,(hl+)
   0311 5E                 1002 	ld	e,(hl)
   0312 F8 01              1003 	lda	hl,1(sp)
   0314 22                 1004 	ld	(hl+),a
   0315 73                 1005 	ld	(hl),e
                           1006 ;	genPlus
                           1007 ;	AOP_STK for _set_lives_sp_1_1
                           1008 ;	genPlusIncr
   0316 23                 1009 	inc	hl
   0317 34                 1010 	inc	(hl)
   0318 20 02              1011 	jr	nz,00117$
   031A 23                 1012 	inc	hl
   031B 34                 1013 	inc	(hl)
   031C                    1014 00117$:
                           1015 ;	genAssign
                           1016 ;	AOP_STK for _set_lives_sloc0_1_0
                           1017 ;	AOP_STK for _set_lives_a_1_1
   031C F8 01              1018 	lda	hl,1(sp)
   031E 2A                 1019 	ld	a,(hl+)
   031F 5E                 1020 	ld	e,(hl)
   0320 F8 09              1021 	lda	hl,9(sp)
   0322 22                 1022 	ld	(hl+),a
   0323 73                 1023 	ld	(hl),e
                           1024 ;	bustout.c 151
                           1025 ;	genAssign
                           1026 ;	AOP_STK for _set_lives_sp_1_1
                           1027 ;	AOP_STK for _set_lives_sloc0_1_0
   0324 F8 03              1028 	lda	hl,3(sp)
   0326 2A                 1029 	ld	a,(hl+)
   0327 5E                 1030 	ld	e,(hl)
   0328 F8 01              1031 	lda	hl,1(sp)
   032A 22                 1032 	ld	(hl+),a
   032B 73                 1033 	ld	(hl),e
                           1034 ;	genPlus
                           1035 ;	AOP_STK for _set_lives_sp_1_1
                           1036 ;	genPlusIncr
   032C 23                 1037 	inc	hl
   032D 34                 1038 	inc	(hl)
   032E 20 02              1039 	jr	nz,00118$
   0330 23                 1040 	inc	hl
   0331 34                 1041 	inc	(hl)
   0332                    1042 00118$:
                           1043 ;	genAssign
                           1044 ;	AOP_STK for _set_lives_sloc0_1_0
                           1045 ;	AOP_STK for _set_lives_b_1_1
   0332 F8 01              1046 	lda	hl,1(sp)
   0334 2A                 1047 	ld	a,(hl+)
   0335 5E                 1048 	ld	e,(hl)
   0336 F8 07              1049 	lda	hl,7(sp)
   0338 22                 1050 	ld	(hl+),a
   0339 73                 1051 	ld	(hl),e
                           1052 ;	bustout.c 153
                           1053 ;	genCast
                           1054 ;	AOP_STK for _set_lives_a_1_1
   033A 23                 1055 	inc	hl
   033B 4E                 1056 	ld	c,(hl)
                           1057 ;	genIpush
                           1058 ; _saveRegsForCall: sendSetSize: 0 deInUse: 0 bcInUse: 1 deSending: 0
   033C C5                 1059 	push	bc
   033D 3E 10              1060 	ld	a,#0x10
   033F F5                 1061 	push	af
   0340 33                 1062 	inc	sp
                           1063 ;	genIpush
   0341 79                 1064 	ld	a,c
   0342 F5                 1065 	push	af
   0343 33                 1066 	inc	sp
                           1067 ;	genCall
   0344 CD 00 00           1068 	call	_set_sprite_tile
   0347 E8 02              1069 	lda	sp,2(sp)
   0349 E1                 1070 	pop	hl
   034A 4D                 1071 	ld	c,l
                           1072 ;	bustout.c 154
                           1073 ;	genCast
                           1074 ;	AOP_STK for _set_lives_b_1_1
   034B F8 07              1075 	lda	hl,7(sp)
   034D 46                 1076 	ld	b,(hl)
                           1077 ;	genIpush
                           1078 ; _saveRegsForCall: sendSetSize: 0 deInUse: 0 bcInUse: 1 deSending: 0
   034E C5                 1079 	push	bc
   034F 3E 12              1080 	ld	a,#0x12
   0351 F5                 1081 	push	af
   0352 33                 1082 	inc	sp
                           1083 ;	genIpush
   0353 78                 1084 	ld	a,b
   0354 F5                 1085 	push	af
   0355 33                 1086 	inc	sp
                           1087 ;	genCall
   0356 CD 00 00           1088 	call	_set_sprite_tile
   0359 E8 02              1089 	lda	sp,2(sp)
   035B C1                 1090 	pop	bc
                           1091 ;	bustout.c 155
                           1092 ;	genPlus
                           1093 ;	AOP_STK for _set_lives_offset_1_1
                           1094 ;	AOP_STK for _set_lives_sloc0_1_0
                           1095 ;	genPlusIncr
                           1096 ;	Can't optimise plus by inc, falling back to the normal way
   035C F8 05              1097 	lda	hl,5(sp)
   035E 5E                 1098 	ld	e,(hl)
   035F 23                 1099 	inc	hl
   0360 56                 1100 	ld	d,(hl)
   0361 21 08 00           1101 	ld	hl,#0x0008
   0364 19                 1102 	add	hl,de
   0365 7D                 1103 	ld	a,l
   0366 54                 1104 	ld	d,h
   0367 F8 01              1105 	lda	hl,1(sp)
   0369 22                 1106 	ld	(hl+),a
   036A 72                 1107 	ld	(hl),d
                           1108 ;	genCast
                           1109 ;	AOP_STK for _set_lives_sloc0_1_0
                           1110 ;	AOP_STK for _set_lives_sloc1_1_0
   036B 2B                 1111 	dec	hl
   036C 7E                 1112 	ld	a,(hl)
   036D 2B                 1113 	dec	hl
   036E 77                 1114 	ld	(hl),a
                           1115 ;	genIpush
                           1116 ; _saveRegsForCall: sendSetSize: 0 deInUse: 0 bcInUse: 1 deSending: 0
   036F C5                 1117 	push	bc
   0370 3E 10              1118 	ld	a,#0x10
   0372 F5                 1119 	push	af
   0373 33                 1120 	inc	sp
                           1121 ;	genIpush
                           1122 ;	AOP_STK for _set_lives_sloc1_1_0
   0374 7E                 1123 	ld	a,(hl)
   0375 F5                 1124 	push	af
   0376 33                 1125 	inc	sp
                           1126 ;	genIpush
   0377 79                 1127 	ld	a,c
   0378 F5                 1128 	push	af
   0379 33                 1129 	inc	sp
                           1130 ;	genCall
   037A CD 00 00           1131 	call	_move_sprite
   037D E8 03              1132 	lda	sp,3(sp)
   037F E1                 1133 	pop	hl
   0380 44                 1134 	ld	b,h
                           1135 ;	bustout.c 156
                           1136 ;	genPlus
                           1137 ;	AOP_STK for _set_lives_offset_1_1
                           1138 ;	AOP_STK for _set_lives_sloc0_1_0
                           1139 ;	genPlusIncr
                           1140 ;	Can't optimise plus by inc, falling back to the normal way
   0381 F8 05              1141 	lda	hl,5(sp)
   0383 5E                 1142 	ld	e,(hl)
   0384 23                 1143 	inc	hl
   0385 56                 1144 	ld	d,(hl)
   0386 21 10 00           1145 	ld	hl,#0x0010
   0389 19                 1146 	add	hl,de
   038A 7D                 1147 	ld	a,l
   038B 54                 1148 	ld	d,h
   038C F8 01              1149 	lda	hl,1(sp)
   038E 22                 1150 	ld	(hl+),a
   038F 72                 1151 	ld	(hl),d
                           1152 ;	genCast
                           1153 ;	AOP_STK for _set_lives_sloc0_1_0
   0390 2B                 1154 	dec	hl
   0391 4E                 1155 	ld	c,(hl)
                           1156 ;	genIpush
                           1157 ; _saveRegsForCall: sendSetSize: 0 deInUse: 0 bcInUse: 0 deSending: 0
   0392 3E 10              1158 	ld	a,#0x10
   0394 F5                 1159 	push	af
   0395 33                 1160 	inc	sp
                           1161 ;	genIpush
   0396 79                 1162 	ld	a,c
   0397 F5                 1163 	push	af
   0398 33                 1164 	inc	sp
                           1165 ;	genIpush
   0399 78                 1166 	ld	a,b
   039A F5                 1167 	push	af
   039B 33                 1168 	inc	sp
                           1169 ;	genCall
   039C CD 00 00           1170 	call	_move_sprite
   039F E8 03              1171 	lda	sp,3(sp)
                           1172 ;	bustout.c 148
                           1173 ;	genPlus
                           1174 ;	AOP_STK for _set_lives_i_1_1
                           1175 ;	genPlusIncr
   03A1 F8 0D              1176 	lda	hl,13(sp)
   03A3 34                 1177 	inc	(hl)
   03A4 20 02              1178 	jr	nz,00119$
   03A6 23                 1179 	inc	hl
   03A7 34                 1180 	inc	(hl)
   03A8                    1181 00119$:
                           1182 ;	genGoto
   03A8 C3 DB 02           1183 	jp	00101$
                           1184 ;	genLabel
   03AB                    1185 00104$:
                           1186 ;	bustout.c 159
                           1187 ;	genAssign
                           1188 ;	AOP_HL for _lives
                           1189 ;	AOP_STK for _set_lives_j_1_1
   03AB 21 09 00           1190 	ld	hl,#_lives
   03AE 2A                 1191 	ld	a,(hl+)
   03AF 5E                 1192 	ld	e,(hl)
   03B0 F8 0B              1193 	lda	hl,11(sp)
   03B2 22                 1194 	ld	(hl+),a
   03B3 73                 1195 	ld	(hl),e
                           1196 ;	genLabel
   03B4                    1197 00105$:
                           1198 ;	genAssign
                           1199 ;	AOP_HL for _INITIAL_LIVES
   03B4 21 0C 02           1200 	ld	hl,#_INITIAL_LIVES
   03B7 4E                 1201 	ld	c,(hl)
   03B8 23                 1202 	inc	hl
   03B9 46                 1203 	ld	b,(hl)
                           1204 ;	genCmpLt
                           1205 ;	AOP_STK for _set_lives_j_1_1
   03BA F8 0C              1206 	lda	hl,12(sp)
   03BC 7E                 1207 	ld	a,(hl)
   03BD EE 80              1208 	xor	a,#0x80
   03BF 5F                 1209 	ld	e,a
   03C0 78                 1210 	ld	a,b
   03C1 EE 80              1211 	xor	a,#0x80
   03C3 57                 1212 	ld	d,a
   03C4 2B                 1213 	dec	hl
   03C5 7E                 1214 	ld	a,(hl)
   03C6 91                 1215 	sub	a,c
   03C7 7B                 1216 	ld	a,e
   03C8 9A                 1217 	sbc	a,d
   03C9 D2 75 04           1218 	jp	nc,00109$
                           1219 ;	bustout.c 160
                           1220 ;	genLeftShift
                           1221 ;	AOP_STK for _set_lives_j_1_1
                           1222 ;	AOP_STK for _set_lives_offset_1_1
   03CC 7E                 1223 	ld	a,(hl)
   03CD F8 05              1224 	lda	hl,5(sp)
   03CF 77                 1225 	ld	(hl),a
   03D0 F8 0C              1226 	lda	hl,12(sp)
   03D2 7E                 1227 	ld	a,(hl)
   03D3 F8 06              1228 	lda	hl,6(sp)
   03D5 77                 1229 	ld	(hl),a
   03D6 3E 05              1230 	ld	a,#0x04+1
   03D8 18 07              1231 	jr	00121$
   03DA                    1232 00120$:
   03DA F8 05              1233 	lda	hl,5(sp)
   03DC CB 26              1234 	sla	(hl)
   03DE 23                 1235 	inc	hl
   03DF CB 16              1236 	rl	(hl)
   03E1                    1237 00121$:
   03E1 3D                 1238 	dec	a
   03E2 20 F6              1239 	jr	nz,00120$
                           1240 ;	bustout.c 161
                           1241 ;	genAssign
                           1242 ;	AOP_STK for _set_lives_sp_1_1
   03E4 F8 03              1243 	lda	hl,3(sp)
   03E6 4E                 1244 	ld	c,(hl)
   03E7 23                 1245 	inc	hl
   03E8 46                 1246 	ld	b,(hl)
                           1247 ;	genPlus
                           1248 ;	AOP_STK for _set_lives_sp_1_1
                           1249 ;	genPlusIncr
   03E9 2B                 1250 	dec	hl
   03EA 34                 1251 	inc	(hl)
   03EB 20 02              1252 	jr	nz,00122$
   03ED 23                 1253 	inc	hl
   03EE 34                 1254 	inc	(hl)
   03EF                    1255 00122$:
                           1256 ;	genAssign
                           1257 ;	AOP_STK for _set_lives_a_1_1
   03EF F8 09              1258 	lda	hl,9(sp)
   03F1 71                 1259 	ld	(hl),c
   03F2 23                 1260 	inc	hl
   03F3 70                 1261 	ld	(hl),b
                           1262 ;	bustout.c 162
                           1263 ;	genAssign
                           1264 ;	AOP_STK for _set_lives_sp_1_1
   03F4 F8 03              1265 	lda	hl,3(sp)
   03F6 4E                 1266 	ld	c,(hl)
   03F7 23                 1267 	inc	hl
   03F8 46                 1268 	ld	b,(hl)
                           1269 ;	genPlus
                           1270 ;	AOP_STK for _set_lives_sp_1_1
                           1271 ;	genPlusIncr
   03F9 2B                 1272 	dec	hl
   03FA 34                 1273 	inc	(hl)
   03FB 20 02              1274 	jr	nz,00123$
   03FD 23                 1275 	inc	hl
   03FE 34                 1276 	inc	(hl)
   03FF                    1277 00123$:
                           1278 ;	genAssign
                           1279 ;	AOP_STK for _set_lives_b_1_1
   03FF F8 07              1280 	lda	hl,7(sp)
   0401 71                 1281 	ld	(hl),c
   0402 23                 1282 	inc	hl
   0403 70                 1283 	ld	(hl),b
                           1284 ;	bustout.c 164
                           1285 ;	genCast
                           1286 ;	AOP_STK for _set_lives_a_1_1
   0404 23                 1287 	inc	hl
   0405 4E                 1288 	ld	c,(hl)
                           1289 ;	genIpush
                           1290 ; _saveRegsForCall: sendSetSize: 0 deInUse: 0 bcInUse: 1 deSending: 0
   0406 C5                 1291 	push	bc
   0407 3E 18              1292 	ld	a,#0x18
   0409 F5                 1293 	push	af
   040A 33                 1294 	inc	sp
                           1295 ;	genIpush
   040B 79                 1296 	ld	a,c
   040C F5                 1297 	push	af
   040D 33                 1298 	inc	sp
                           1299 ;	genCall
   040E CD 00 00           1300 	call	_set_sprite_tile
   0411 E8 02              1301 	lda	sp,2(sp)
   0413 E1                 1302 	pop	hl
   0414 4D                 1303 	ld	c,l
                           1304 ;	bustout.c 165
                           1305 ;	genCast
                           1306 ;	AOP_STK for _set_lives_b_1_1
   0415 F8 07              1307 	lda	hl,7(sp)
   0417 46                 1308 	ld	b,(hl)
                           1309 ;	genIpush
                           1310 ; _saveRegsForCall: sendSetSize: 0 deInUse: 0 bcInUse: 1 deSending: 0
   0418 C5                 1311 	push	bc
   0419 3E 1A              1312 	ld	a,#0x1A
   041B F5                 1313 	push	af
   041C 33                 1314 	inc	sp
                           1315 ;	genIpush
   041D 78                 1316 	ld	a,b
   041E F5                 1317 	push	af
   041F 33                 1318 	inc	sp
                           1319 ;	genCall
   0420 CD 00 00           1320 	call	_set_sprite_tile
   0423 E8 02              1321 	lda	sp,2(sp)
   0425 C1                 1322 	pop	bc
                           1323 ;	bustout.c 166
                           1324 ;	genPlus
                           1325 ;	AOP_STK for _set_lives_offset_1_1
                           1326 ;	AOP_STK for _set_lives_sloc0_1_0
                           1327 ;	genPlusIncr
                           1328 ;	Can't optimise plus by inc, falling back to the normal way
   0426 F8 05              1329 	lda	hl,5(sp)
   0428 5E                 1330 	ld	e,(hl)
   0429 23                 1331 	inc	hl
   042A 56                 1332 	ld	d,(hl)
   042B 21 08 00           1333 	ld	hl,#0x0008
   042E 19                 1334 	add	hl,de
   042F 7D                 1335 	ld	a,l
   0430 54                 1336 	ld	d,h
   0431 F8 01              1337 	lda	hl,1(sp)
   0433 22                 1338 	ld	(hl+),a
   0434 72                 1339 	ld	(hl),d
                           1340 ;	genCast
                           1341 ;	AOP_STK for _set_lives_sloc0_1_0
                           1342 ;	AOP_STK for _set_lives_sloc1_1_0
   0435 2B                 1343 	dec	hl
   0436 7E                 1344 	ld	a,(hl)
   0437 2B                 1345 	dec	hl
   0438 77                 1346 	ld	(hl),a
                           1347 ;	genIpush
                           1348 ; _saveRegsForCall: sendSetSize: 0 deInUse: 0 bcInUse: 1 deSending: 0
   0439 C5                 1349 	push	bc
   043A 3E 10              1350 	ld	a,#0x10
   043C F5                 1351 	push	af
   043D 33                 1352 	inc	sp
                           1353 ;	genIpush
                           1354 ;	AOP_STK for _set_lives_sloc1_1_0
   043E 7E                 1355 	ld	a,(hl)
   043F F5                 1356 	push	af
   0440 33                 1357 	inc	sp
                           1358 ;	genIpush
   0441 79                 1359 	ld	a,c
   0442 F5                 1360 	push	af
   0443 33                 1361 	inc	sp
                           1362 ;	genCall
   0444 CD 00 00           1363 	call	_move_sprite
   0447 E8 03              1364 	lda	sp,3(sp)
   0449 E1                 1365 	pop	hl
   044A 44                 1366 	ld	b,h
                           1367 ;	bustout.c 167
                           1368 ;	genPlus
                           1369 ;	AOP_STK for _set_lives_offset_1_1
                           1370 ;	AOP_STK for _set_lives_sloc0_1_0
                           1371 ;	genPlusIncr
                           1372 ;	Can't optimise plus by inc, falling back to the normal way
   044B F8 05              1373 	lda	hl,5(sp)
   044D 5E                 1374 	ld	e,(hl)
   044E 23                 1375 	inc	hl
   044F 56                 1376 	ld	d,(hl)
   0450 21 10 00           1377 	ld	hl,#0x0010
   0453 19                 1378 	add	hl,de
   0454 7D                 1379 	ld	a,l
   0455 54                 1380 	ld	d,h
   0456 F8 01              1381 	lda	hl,1(sp)
   0458 22                 1382 	ld	(hl+),a
   0459 72                 1383 	ld	(hl),d
                           1384 ;	genCast
                           1385 ;	AOP_STK for _set_lives_sloc0_1_0
   045A 2B                 1386 	dec	hl
   045B 4E                 1387 	ld	c,(hl)
                           1388 ;	genIpush
                           1389 ; _saveRegsForCall: sendSetSize: 0 deInUse: 0 bcInUse: 0 deSending: 0
   045C 3E 10              1390 	ld	a,#0x10
   045E F5                 1391 	push	af
   045F 33                 1392 	inc	sp
                           1393 ;	genIpush
   0460 79                 1394 	ld	a,c
   0461 F5                 1395 	push	af
   0462 33                 1396 	inc	sp
                           1397 ;	genIpush
   0463 78                 1398 	ld	a,b
   0464 F5                 1399 	push	af
   0465 33                 1400 	inc	sp
                           1401 ;	genCall
   0466 CD 00 00           1402 	call	_move_sprite
   0469 E8 03              1403 	lda	sp,3(sp)
                           1404 ;	bustout.c 159
                           1405 ;	genPlus
                           1406 ;	AOP_STK for _set_lives_j_1_1
                           1407 ;	genPlusIncr
   046B F8 0B              1408 	lda	hl,11(sp)
   046D 34                 1409 	inc	(hl)
   046E 20 02              1410 	jr	nz,00124$
   0470 23                 1411 	inc	hl
   0471 34                 1412 	inc	(hl)
   0472                    1413 00124$:
                           1414 ;	genGoto
   0472 C3 B4 03           1415 	jp	00105$
                           1416 ;	genLabel
   0475                    1417 00109$:
                           1418 ;	genEndFunction
   0475 E8 0F              1419 	lda	sp,15(sp)
   0477 C9                 1420 	ret
   0478                    1421 ___set_lives_end:
                           1422 ;	bustout.c 171
                           1423 ;	genLabel
                           1424 ;	genFunction
                           1425 ;	---------------------------------
                           1426 ; Function set_blocks
                           1427 ; ---------------------------------
   0478                    1428 ___set_blocks_start:
   0478                    1429 _set_blocks:
   0478 E8 CE              1430 	lda	sp,-50(sp)
                           1431 ;	bustout.c 175
                           1432 ;	genAssign
                           1433 ;	AOP_HL for _INITIAL_LIVES
   047A 21 0C 02           1434 	ld	hl,#_INITIAL_LIVES
   047D 4E                 1435 	ld	c,(hl)
   047E 23                 1436 	inc	hl
   047F 46                 1437 	ld	b,(hl)
                           1438 ;	genLeftShift
   0480 CB 21              1439 	sla	c
   0482 CB 10              1440 	rl	b
                           1441 ;	genLeftShift
   0484 CB 21              1442 	sla	c
   0486 CB 10              1443 	rl	b
                           1444 ;	genAssign
                           1445 ;	AOP_HL for _lives_sprite_begin
                           1446 ;	AOP_STK for _set_blocks_sloc0_1_0
   0488 21 18 02           1447 	ld	hl,#_lives_sprite_begin
   048B 2A                 1448 	ld	a,(hl+)
   048C 5E                 1449 	ld	e,(hl)
   048D F8 1A              1450 	lda	hl,26(sp)
   048F 22                 1451 	ld	(hl+),a
   0490 73                 1452 	ld	(hl),e
                           1453 ;	genPlus
                           1454 ;	AOP_STK for _set_blocks_sloc0_1_0
                           1455 ;	Can't optimise plus by inc, falling back to the normal way
   0491 2B                 1456 	dec	hl
   0492 2A                 1457 	ld	a,(hl+)
   0493 66                 1458 	ld	h,(hl)
   0494 6F                 1459 	ld	l,a
   0495 09                 1460 	add	hl,bc
   0496 4D                 1461 	ld	c,l
   0497 44                 1462 	ld	b,h
                           1463 ;	genAssign
                           1464 ;	AOP_STK for _set_blocks_sp_1_1
   0498 F8 1E              1465 	lda	hl,30(sp)
   049A 71                 1466 	ld	(hl),c
   049B 23                 1467 	inc	hl
   049C 70                 1468 	ld	(hl),b
                           1469 ;	bustout.c 176
                           1470 ;	genAssign
                           1471 ;	AOP_STK for _set_blocks_sp_1_1
                           1472 ;	AOP_STK for _set_blocks_init_sp_1_1
   049D 2B                 1473 	dec	hl
   049E 2A                 1474 	ld	a,(hl+)
   049F 5E                 1475 	ld	e,(hl)
   04A0 F8 1C              1476 	lda	hl,28(sp)
   04A2 22                 1477 	ld	(hl+),a
   04A3 73                 1478 	ld	(hl),e
                           1479 ;	bustout.c 181
                           1480 ;	genIpush
                           1481 ; _saveRegsForCall: sendSetSize: 0 deInUse: 0 bcInUse: 0 deSending: 0
   04A4 21 CC 01           1482 	ld	hl,#_block_sprite_data
   04A7 E5                 1483 	push	hl
                           1484 ;	genIpush
   04A8 21 20 08           1485 	ld	hl,#0x0820
   04AB E5                 1486 	push	hl
                           1487 ;	genCall
   04AC CD 00 00           1488 	call	_set_sprite_data
   04AF E8 04              1489 	lda	sp,4(sp)
                           1490 ;	bustout.c 183
                           1491 ;	genAssign
                           1492 ;	AOP_STK for _set_blocks_i_1_1
   04B1 F8 30              1493 	lda	hl,48(sp)
   04B3 36 00              1494 	ld	(hl),#0x00
   04B5 23                 1495 	inc	hl
   04B6 36 00              1496 	ld	(hl),#0x00
                           1497 ;	genLabel
   04B8                    1498 00105$:
                           1499 ;	genCmpLt
                           1500 ;	AOP_STK for _set_blocks_i_1_1
   04B8 F8 31              1501 	lda	hl,49(sp)
   04BA 7E                 1502 	ld	a,(hl)
   04BB EE 80              1503 	xor	a,#0x80
   04BD 5F                 1504 	ld	e,a
   04BE 16 80              1505 	ld	d,#0x80
   04C0 2B                 1506 	dec	hl
   04C1 7E                 1507 	ld	a,(hl)
   04C2 D6 03              1508 	sub	a,#0x03
   04C4 7B                 1509 	ld	a,e
   04C5 9A                 1510 	sbc	a,d
   04C6 D2 E2 06           1511 	jp	nc,00109$
                           1512 ;	bustout.c 184
                           1513 ;	genLeftShift
                           1514 ;	AOP_STK for _set_blocks_i_1_1
                           1515 ;	AOP_STK for _set_blocks_offset_x_1_1
   04C9 7E                 1516 	ld	a,(hl)
   04CA F8 22              1517 	lda	hl,34(sp)
   04CC 77                 1518 	ld	(hl),a
   04CD F8 31              1519 	lda	hl,49(sp)
   04CF 7E                 1520 	ld	a,(hl)
   04D0 F8 23              1521 	lda	hl,35(sp)
   04D2 77                 1522 	ld	(hl),a
   04D3 3E 05              1523 	ld	a,#0x04+1
   04D5 18 07              1524 	jr	00120$
   04D7                    1525 00119$:
   04D7 F8 22              1526 	lda	hl,34(sp)
   04D9 CB 26              1527 	sla	(hl)
   04DB 23                 1528 	inc	hl
   04DC CB 16              1529 	rl	(hl)
   04DE                    1530 00120$:
   04DE 3D                 1531 	dec	a
   04DF 20 F6              1532 	jr	nz,00119$
                           1533 ;	bustout.c 185
                           1534 ;	genAssign
                           1535 ;	AOP_STK for _set_blocks_j_1_1
   04E1 F8 2E              1536 	lda	hl,46(sp)
   04E3 36 00              1537 	ld	(hl),#0x00
   04E5 23                 1538 	inc	hl
   04E6 36 00              1539 	ld	(hl),#0x00
                           1540 ;	genLabel
   04E8                    1541 00101$:
                           1542 ;	genCmpLt
                           1543 ;	AOP_STK for _set_blocks_j_1_1
                           1544 ;	AOP_STK for _set_blocks_sloc0_1_0
   04E8 F8 2F              1545 	lda	hl,47(sp)
   04EA 7E                 1546 	ld	a,(hl)
   04EB EE 80              1547 	xor	a,#0x80
   04ED 5F                 1548 	ld	e,a
   04EE 16 80              1549 	ld	d,#0x80
   04F0 2B                 1550 	dec	hl
   04F1 7E                 1551 	ld	a,(hl)
   04F2 D6 04              1552 	sub	a,#0x04
   04F4 7B                 1553 	ld	a,e
   04F5 9A                 1554 	sbc	a,d
   04F6 3E 00              1555 	ld	a,#0x00
   04F8 17                 1556 	rla
   04F9 F8 1A              1557 	lda	hl,26(sp)
   04FB 77                 1558 	ld	(hl),a
                           1559 ;	genIfx
                           1560 ;	AOP_STK for _set_blocks_sloc0_1_0
   04FC AF                 1561 	xor	a,a
   04FD B6                 1562 	or	a,(hl)
   04FE CA D8 06           1563 	jp	z,00107$
                           1564 ;	bustout.c 186
                           1565 ;	genLeftShift
                           1566 ;	AOP_STK for _set_blocks_j_1_1
                           1567 ;	AOP_STK for _set_blocks_offset_y_1_1
   0501 F8 2E              1568 	lda	hl,46(sp)
   0503 7E                 1569 	ld	a,(hl)
   0504 F8 20              1570 	lda	hl,32(sp)
   0506 77                 1571 	ld	(hl),a
   0507 F8 2F              1572 	lda	hl,47(sp)
   0509 7E                 1573 	ld	a,(hl)
   050A F8 21              1574 	lda	hl,33(sp)
   050C 77                 1575 	ld	(hl),a
   050D 3E 05              1576 	ld	a,#0x04+1
   050F 18 07              1577 	jr	00122$
   0511                    1578 00121$:
   0511 F8 20              1579 	lda	hl,32(sp)
   0513 CB 26              1580 	sla	(hl)
   0515 23                 1581 	inc	hl
   0516 CB 16              1582 	rl	(hl)
   0518                    1583 00122$:
   0518 3D                 1584 	dec	a
   0519 20 F6              1585 	jr	nz,00121$
                           1586 ;	genAssign
                           1587 ;	AOP_STK for _set_blocks_offset_y_1_1
                           1588 ;	(registers are the same)
                           1589 ;	bustout.c 187
                           1590 ;	genAssign
                           1591 ;	AOP_STK for _set_blocks_sp_1_1
                           1592 ;	AOP_STK for _set_blocks_sloc4_1_0
   051B F8 1E              1593 	lda	hl,30(sp)
   051D 2A                 1594 	ld	a,(hl+)
   051E 5E                 1595 	ld	e,(hl)
   051F F8 12              1596 	lda	hl,18(sp)
   0521 22                 1597 	ld	(hl+),a
   0522 73                 1598 	ld	(hl),e
                           1599 ;	genPlus
                           1600 ;	AOP_STK for _set_blocks_sp_1_1
                           1601 ;	AOP_STK for _set_blocks_sloc1_1_0
                           1602 ;	genPlusIncr
                           1603 ;	Can't optimise plus by inc, falling back to the normal way
   0523 F8 1E              1604 	lda	hl,30(sp)
   0525 5E                 1605 	ld	e,(hl)
   0526 23                 1606 	inc	hl
   0527 56                 1607 	ld	d,(hl)
   0528 21 01 00           1608 	ld	hl,#0x0001
   052B 19                 1609 	add	hl,de
   052C 7D                 1610 	ld	a,l
   052D 54                 1611 	ld	d,h
   052E F8 18              1612 	lda	hl,24(sp)
   0530 22                 1613 	ld	(hl+),a
   0531 72                 1614 	ld	(hl),d
                           1615 ;	genAssign
                           1616 ;	AOP_STK for _set_blocks_sloc1_1_0
                           1617 ;	AOP_STK for _set_blocks_sp_1_1
   0532 2B                 1618 	dec	hl
   0533 2A                 1619 	ld	a,(hl+)
   0534 5E                 1620 	ld	e,(hl)
   0535 F8 1E              1621 	lda	hl,30(sp)
   0537 22                 1622 	ld	(hl+),a
   0538 73                 1623 	ld	(hl),e
                           1624 ;	genAssign
                           1625 ;	AOP_STK for _set_blocks_sloc4_1_0
                           1626 ;	AOP_STK for _set_blocks_a_1_1
   0539 F8 12              1627 	lda	hl,18(sp)
   053B 2A                 1628 	ld	a,(hl+)
   053C 5E                 1629 	ld	e,(hl)
   053D F8 2C              1630 	lda	hl,44(sp)
   053F 22                 1631 	ld	(hl+),a
   0540 73                 1632 	ld	(hl),e
                           1633 ;	bustout.c 188
                           1634 ;	genAssign
                           1635 ;	AOP_STK for _set_blocks_sp_1_1
                           1636 ;	AOP_STK for _set_blocks_sloc2_1_0
   0541 F8 1E              1637 	lda	hl,30(sp)
   0543 2A                 1638 	ld	a,(hl+)
   0544 5E                 1639 	ld	e,(hl)
   0545 F8 16              1640 	lda	hl,22(sp)
   0547 22                 1641 	ld	(hl+),a
   0548 73                 1642 	ld	(hl),e
                           1643 ;	genPlus
                           1644 ;	AOP_STK for _set_blocks_sp_1_1
                           1645 ;	AOP_STK for _set_blocks_sloc3_1_0
                           1646 ;	genPlusIncr
                           1647 ;	Can't optimise plus by inc, falling back to the normal way
   0549 F8 1E              1648 	lda	hl,30(sp)
   054B 5E                 1649 	ld	e,(hl)
   054C 23                 1650 	inc	hl
   054D 56                 1651 	ld	d,(hl)
   054E 21 01 00           1652 	ld	hl,#0x0001
   0551 19                 1653 	add	hl,de
   0552 7D                 1654 	ld	a,l
   0553 54                 1655 	ld	d,h
   0554 F8 14              1656 	lda	hl,20(sp)
   0556 22                 1657 	ld	(hl+),a
   0557 72                 1658 	ld	(hl),d
                           1659 ;	genAssign
                           1660 ;	AOP_STK for _set_blocks_sloc3_1_0
                           1661 ;	AOP_STK for _set_blocks_sp_1_1
   0558 2B                 1662 	dec	hl
   0559 2A                 1663 	ld	a,(hl+)
   055A 5E                 1664 	ld	e,(hl)
   055B F8 1E              1665 	lda	hl,30(sp)
   055D 22                 1666 	ld	(hl+),a
   055E 73                 1667 	ld	(hl),e
                           1668 ;	genAssign
                           1669 ;	AOP_STK for _set_blocks_sloc2_1_0
                           1670 ;	AOP_STK for _set_blocks_b_1_1
   055F F8 16              1671 	lda	hl,22(sp)
   0561 2A                 1672 	ld	a,(hl+)
   0562 5E                 1673 	ld	e,(hl)
   0563 F8 2A              1674 	lda	hl,42(sp)
   0565 22                 1675 	ld	(hl+),a
   0566 73                 1676 	ld	(hl),e
                           1677 ;	bustout.c 189
                           1678 ;	genPlus
                           1679 ;	AOP_STK for _set_blocks_offset_y_1_1
                           1680 ;	AOP_STK for _set_blocks_a_x_1_1
                           1681 ;	genPlusIncr
                           1682 ;	Can't optimise plus by inc, falling back to the normal way
   0567 F8 20              1683 	lda	hl,32(sp)
   0569 5E                 1684 	ld	e,(hl)
   056A 23                 1685 	inc	hl
   056B 56                 1686 	ld	d,(hl)
   056C 21 38 00           1687 	ld	hl,#0x0038
   056F 19                 1688 	add	hl,de
   0570 7D                 1689 	ld	a,l
   0571 54                 1690 	ld	d,h
   0572 F8 28              1691 	lda	hl,40(sp)
   0574 22                 1692 	ld	(hl+),a
   0575 72                 1693 	ld	(hl),d
                           1694 ;	genAssign
                           1695 ;	AOP_STK for _set_blocks_a_x_1_1
                           1696 ;	(registers are the same)
                           1697 ;	bustout.c 190
                           1698 ;	genPlus
                           1699 ;	AOP_STK for _set_blocks_offset_x_1_1
                           1700 ;	AOP_STK for _set_blocks_a_y_1_1
                           1701 ;	genPlusIncr
                           1702 ;	Can't optimise plus by inc, falling back to the normal way
   0576 F8 22              1703 	lda	hl,34(sp)
   0578 5E                 1704 	ld	e,(hl)
   0579 23                 1705 	inc	hl
   057A 56                 1706 	ld	d,(hl)
   057B 21 30 00           1707 	ld	hl,#0x0030
   057E 19                 1708 	add	hl,de
   057F 7D                 1709 	ld	a,l
   0580 54                 1710 	ld	d,h
   0581 F8 24              1711 	lda	hl,36(sp)
   0583 22                 1712 	ld	(hl+),a
   0584 72                 1713 	ld	(hl),d
                           1714 ;	genAssign
                           1715 ;	AOP_STK for _set_blocks_a_y_1_1
                           1716 ;	(registers are the same)
                           1717 ;	bustout.c 191
                           1718 ;	genPlus
                           1719 ;	AOP_STK for _set_blocks_offset_y_1_1
                           1720 ;	AOP_STK for _set_blocks_b_x_1_1
                           1721 ;	genPlusIncr
                           1722 ;	Can't optimise plus by inc, falling back to the normal way
   0585 F8 20              1723 	lda	hl,32(sp)
   0587 5E                 1724 	ld	e,(hl)
   0588 23                 1725 	inc	hl
   0589 56                 1726 	ld	d,(hl)
   058A 21 40 00           1727 	ld	hl,#0x0040
   058D 19                 1728 	add	hl,de
   058E 7D                 1729 	ld	a,l
   058F 54                 1730 	ld	d,h
   0590 F8 26              1731 	lda	hl,38(sp)
   0592 22                 1732 	ld	(hl+),a
   0593 72                 1733 	ld	(hl),d
                           1734 ;	genAssign
                           1735 ;	AOP_STK for _set_blocks_b_x_1_1
                           1736 ;	(registers are the same)
                           1737 ;	bustout.c 194
                           1738 ;	genMinus
                           1739 ;	AOP_STK for _set_blocks_a_1_1
                           1740 ;	AOP_STK for _set_blocks_init_sp_1_1
   0594 F8 2C              1741 	lda	hl,44(sp)
   0596 5E                 1742 	ld	e,(hl)
   0597 23                 1743 	inc	hl
   0598 56                 1744 	ld	d,(hl)
   0599 F8 1C              1745 	lda	hl,28(sp)
   059B 2A                 1746 	ld	a,(hl+)
   059C 66                 1747 	ld	h,(hl)
   059D 6F                 1748 	ld	l,a
   059E 7B                 1749 	ld	a,e
   059F 95                 1750 	sub	a,l
   05A0 5F                 1751 	ld	e,a
   05A1 7A                 1752 	ld	a,d
   05A2 9C                 1753 	sbc	a,h
   05A3 47                 1754 	ld	b,a
   05A4 4B                 1755 	ld	c,e
                           1756 ;	genMult
                           1757 ;	AOP_STK for _set_blocks_sloc5_1_0
   05A5 59                 1758 	ld	e,c
   05A6 50                 1759 	ld	d,b
   05A7 6B                 1760 	ld	l,e
   05A8 62                 1761 	ld	h,d
   05A9 29                 1762 	add	hl,hl
   05AA 19                 1763 	add	hl,de
   05AB 29                 1764 	add	hl,hl
   05AC 7D                 1765 	ld	a,l
   05AD 54                 1766 	ld	d,h
   05AE F8 10              1767 	lda	hl,16(sp)
   05B0 22                 1768 	ld	(hl+),a
   05B1 72                 1769 	ld	(hl),d
                           1770 ;	genPlus
                           1771 ;	AOP_STK for _set_blocks_sloc5_1_0
                           1772 ;	AOP_STK for _set_blocks_sloc6_1_0
                           1773 ;	Can't optimise plus by inc, falling back to the normal way
   05B2 11 17 00           1774 	ld	de,#_block_sprites
   05B5 2B                 1775 	dec	hl
   05B6 2A                 1776 	ld	a,(hl+)
   05B7 66                 1777 	ld	h,(hl)
   05B8 6F                 1778 	ld	l,a
   05B9 19                 1779 	add	hl,de
   05BA 7D                 1780 	ld	a,l
   05BB 54                 1781 	ld	d,h
   05BC F8 0E              1782 	lda	hl,14(sp)
   05BE 22                 1783 	ld	(hl+),a
   05BF 72                 1784 	ld	(hl),d
                           1785 ;	genAssign (pointer)
                           1786 ;	AOP_STK for _set_blocks_sloc6_1_0
                           1787 ;	AOP_STK for _set_blocks_a_1_1
   05C0 2B                 1788 	dec	hl
   05C1 5E                 1789 	ld	e,(hl)
   05C2 23                 1790 	inc	hl
   05C3 56                 1791 	ld	d,(hl)
   05C4 F8 2C              1792 	lda	hl,44(sp)
   05C6 7E                 1793 	ld	a,(hl)
   05C7 12                 1794 	ld	(de),a
   05C8 13                 1795 	inc	de
   05C9 23                 1796 	inc	hl
   05CA 7E                 1797 	ld	a,(hl)
   05CB 12                 1798 	ld	(de),a
                           1799 ;	bustout.c 195
                           1800 ;	genPlus
                           1801 ;	AOP_STK for _set_blocks_sloc6_1_0
                           1802 ;	genPlusIncr
   05CC F8 0E              1803 	lda	hl,14(sp)
   05CE 2A                 1804 	ld	a,(hl+)
   05CF 66                 1805 	ld	h,(hl)
   05D0 6F                 1806 	ld	l,a
   05D1 23                 1807 	inc	hl
   05D2 23                 1808 	inc	hl
                           1809 ;	genAssign (pointer)
                           1810 ;	AOP_STK for _set_blocks_a_x_1_1
   05D3 5D                 1811 	ld	e,l
   05D4 54                 1812 	ld	d,h
   05D5 F8 28              1813 	lda	hl,40(sp)
   05D7 7E                 1814 	ld	a,(hl)
   05D8 12                 1815 	ld	(de),a
   05D9 13                 1816 	inc	de
   05DA 23                 1817 	inc	hl
   05DB 7E                 1818 	ld	a,(hl)
   05DC 12                 1819 	ld	(de),a
                           1820 ;	bustout.c 196
                           1821 ;	genPlus
                           1822 ;	AOP_STK for _set_blocks_sloc6_1_0
                           1823 ;	genPlusIncr
                           1824 ;	Can't optimise plus by inc, falling back to the normal way
   05DD F8 0E              1825 	lda	hl,14(sp)
   05DF 5E                 1826 	ld	e,(hl)
   05E0 23                 1827 	inc	hl
   05E1 56                 1828 	ld	d,(hl)
   05E2 21 04 00           1829 	ld	hl,#0x0004
   05E5 19                 1830 	add	hl,de
   05E6 7D                 1831 	ld	a,l
   05E7 54                 1832 	ld	d,h
   05E8 6F                 1833 	ld	l,a
   05E9 62                 1834 	ld	h,d
                           1835 ;	genAssign (pointer)
                           1836 ;	AOP_STK for _set_blocks_a_y_1_1
   05EA 5D                 1837 	ld	e,l
   05EB 54                 1838 	ld	d,h
   05EC F8 24              1839 	lda	hl,36(sp)
   05EE 7E                 1840 	ld	a,(hl)
   05EF 12                 1841 	ld	(de),a
   05F0 13                 1842 	inc	de
   05F1 23                 1843 	inc	hl
   05F2 7E                 1844 	ld	a,(hl)
   05F3 12                 1845 	ld	(de),a
                           1846 ;	bustout.c 198
                           1847 ;	genMinus
                           1848 ;	AOP_STK for _set_blocks_b_1_1
                           1849 ;	AOP_STK for _set_blocks_init_sp_1_1
                           1850 ;	AOP_STK for _set_blocks_sloc7_1_0
   05F4 F8 2A              1851 	lda	hl,42(sp)
   05F6 5E                 1852 	ld	e,(hl)
   05F7 23                 1853 	inc	hl
   05F8 56                 1854 	ld	d,(hl)
   05F9 F8 1C              1855 	lda	hl,28(sp)
   05FB 2A                 1856 	ld	a,(hl+)
   05FC 66                 1857 	ld	h,(hl)
   05FD 6F                 1858 	ld	l,a
   05FE 7B                 1859 	ld	a,e
   05FF 95                 1860 	sub	a,l
   0600 5F                 1861 	ld	e,a
   0601 7A                 1862 	ld	a,d
   0602 9C                 1863 	sbc	a,h
   0603 F8 0D              1864 	lda	hl,13(sp)
   0605 32                 1865 	ld      (hl-),a
   0606 73                 1866 	ld	(hl),e
                           1867 ;	genMult
                           1868 ;	AOP_STK for _set_blocks_sloc7_1_0
                           1869 ;	AOP_STK for _set_blocks_sloc8_1_0
   0607 5E                 1870 	ld	e,(hl)
   0608 23                 1871 	inc	hl
   0609 56                 1872 	ld	d,(hl)
   060A 6B                 1873 	ld	l,e
   060B 62                 1874 	ld	h,d
   060C 29                 1875 	add	hl,hl
   060D 19                 1876 	add	hl,de
   060E 29                 1877 	add	hl,hl
   060F 7D                 1878 	ld	a,l
   0610 54                 1879 	ld	d,h
   0611 F8 0A              1880 	lda	hl,10(sp)
   0613 22                 1881 	ld	(hl+),a
   0614 72                 1882 	ld	(hl),d
                           1883 ;	genPlus
                           1884 ;	AOP_STK for _set_blocks_sloc8_1_0
                           1885 ;	AOP_STK for _set_blocks_sloc9_1_0
                           1886 ;	Can't optimise plus by inc, falling back to the normal way
   0615 11 17 00           1887 	ld	de,#_block_sprites
   0618 2B                 1888 	dec	hl
   0619 2A                 1889 	ld	a,(hl+)
   061A 66                 1890 	ld	h,(hl)
   061B 6F                 1891 	ld	l,a
   061C 19                 1892 	add	hl,de
   061D 7D                 1893 	ld	a,l
   061E 54                 1894 	ld	d,h
   061F F8 08              1895 	lda	hl,8(sp)
   0621 22                 1896 	ld	(hl+),a
   0622 72                 1897 	ld	(hl),d
                           1898 ;	genAssign (pointer)
                           1899 ;	AOP_STK for _set_blocks_sloc9_1_0
                           1900 ;	AOP_STK for _set_blocks_b_1_1
   0623 2B                 1901 	dec	hl
   0624 5E                 1902 	ld	e,(hl)
   0625 23                 1903 	inc	hl
   0626 56                 1904 	ld	d,(hl)
   0627 F8 2A              1905 	lda	hl,42(sp)
   0629 7E                 1906 	ld	a,(hl)
   062A 12                 1907 	ld	(de),a
   062B 13                 1908 	inc	de
   062C 23                 1909 	inc	hl
   062D 7E                 1910 	ld	a,(hl)
   062E 12                 1911 	ld	(de),a
                           1912 ;	bustout.c 199
                           1913 ;	genPlus
                           1914 ;	AOP_STK for _set_blocks_sloc9_1_0
                           1915 ;	genPlusIncr
   062F F8 08              1916 	lda	hl,8(sp)
   0631 2A                 1917 	ld	a,(hl+)
   0632 66                 1918 	ld	h,(hl)
   0633 6F                 1919 	ld	l,a
   0634 23                 1920 	inc	hl
   0635 23                 1921 	inc	hl
                           1922 ;	genAssign (pointer)
                           1923 ;	AOP_STK for _set_blocks_b_x_1_1
   0636 5D                 1924 	ld	e,l
   0637 54                 1925 	ld	d,h
   0638 F8 26              1926 	lda	hl,38(sp)
   063A 7E                 1927 	ld	a,(hl)
   063B 12                 1928 	ld	(de),a
   063C 13                 1929 	inc	de
   063D 23                 1930 	inc	hl
   063E 7E                 1931 	ld	a,(hl)
   063F 12                 1932 	ld	(de),a
                           1933 ;	bustout.c 200
                           1934 ;	genPlus
                           1935 ;	AOP_STK for _set_blocks_sloc9_1_0
                           1936 ;	genPlusIncr
                           1937 ;	Can't optimise plus by inc, falling back to the normal way
   0640 F8 08              1938 	lda	hl,8(sp)
   0642 5E                 1939 	ld	e,(hl)
   0643 23                 1940 	inc	hl
   0644 56                 1941 	ld	d,(hl)
   0645 21 04 00           1942 	ld	hl,#0x0004
   0648 19                 1943 	add	hl,de
   0649 7D                 1944 	ld	a,l
   064A 54                 1945 	ld	d,h
   064B 6F                 1946 	ld	l,a
   064C 62                 1947 	ld	h,d
                           1948 ;	genAssign (pointer)
                           1949 ;	AOP_STK for _set_blocks_a_y_1_1
   064D 5D                 1950 	ld	e,l
   064E 54                 1951 	ld	d,h
   064F F8 24              1952 	lda	hl,36(sp)
   0651 7E                 1953 	ld	a,(hl)
   0652 12                 1954 	ld	(de),a
   0653 13                 1955 	inc	de
   0654 23                 1956 	inc	hl
   0655 7E                 1957 	ld	a,(hl)
   0656 12                 1958 	ld	(de),a
                           1959 ;	bustout.c 202
                           1960 ;	genCast
                           1961 ;	AOP_STK for _set_blocks_a_1_1
                           1962 ;	AOP_STK for _set_blocks_sloc10_1_0
   0657 F8 2C              1963 	lda	hl,44(sp)
   0659 7E                 1964 	ld	a,(hl)
   065A F8 07              1965 	lda	hl,7(sp)
   065C 77                 1966 	ld	(hl),a
                           1967 ;	genIpush
                           1968 ; _saveRegsForCall: sendSetSize: 0 deInUse: 0 bcInUse: 1 deSending: 0
   065D C5                 1969 	push	bc
   065E 3E 20              1970 	ld	a,#0x20
   0660 F5                 1971 	push	af
   0661 33                 1972 	inc	sp
                           1973 ;	genIpush
                           1974 ;	AOP_STK for _set_blocks_sloc10_1_0
   0662 7E                 1975 	ld	a,(hl)
   0663 F5                 1976 	push	af
   0664 33                 1977 	inc	sp
                           1978 ;	genCall
   0665 CD 00 00           1979 	call	_set_sprite_tile
   0668 E8 02              1980 	lda	sp,2(sp)
   066A C1                 1981 	pop	bc
                           1982 ;	bustout.c 203
                           1983 ;	genCast
                           1984 ;	AOP_STK for _set_blocks_b_1_1
                           1985 ;	AOP_STK for _set_blocks_sloc11_1_0
   066B F8 2A              1986 	lda	hl,42(sp)
   066D 7E                 1987 	ld	a,(hl)
   066E F8 06              1988 	lda	hl,6(sp)
   0670 77                 1989 	ld	(hl),a
                           1990 ;	genIpush
                           1991 ; _saveRegsForCall: sendSetSize: 0 deInUse: 0 bcInUse: 1 deSending: 0
   0671 C5                 1992 	push	bc
   0672 3E 22              1993 	ld	a,#0x22
   0674 F5                 1994 	push	af
   0675 33                 1995 	inc	sp
                           1996 ;	genIpush
                           1997 ;	AOP_STK for _set_blocks_sloc11_1_0
   0676 7E                 1998 	ld	a,(hl)
   0677 F5                 1999 	push	af
   0678 33                 2000 	inc	sp
                           2001 ;	genCall
   0679 CD 00 00           2002 	call	_set_sprite_tile
   067C E8 02              2003 	lda	sp,2(sp)
   067E C1                 2004 	pop	bc
                           2005 ;	bustout.c 204
                           2006 ;	genCast
                           2007 ;	AOP_STK for _set_blocks_a_y_1_1
                           2008 ;	AOP_STK for _set_blocks_sloc12_1_0
   067F F8 24              2009 	lda	hl,36(sp)
   0681 7E                 2010 	ld	a,(hl)
   0682 F8 05              2011 	lda	hl,5(sp)
   0684 77                 2012 	ld	(hl),a
                           2013 ;	genCast
                           2014 ;	AOP_STK for _set_blocks_a_x_1_1
                           2015 ;	AOP_STK for _set_blocks_sloc13_1_0
   0685 F8 28              2016 	lda	hl,40(sp)
   0687 7E                 2017 	ld	a,(hl)
   0688 F8 04              2018 	lda	hl,4(sp)
   068A 77                 2019 	ld	(hl),a
                           2020 ;	genIpush
                           2021 ; _saveRegsForCall: sendSetSize: 0 deInUse: 0 bcInUse: 1 deSending: 0
   068B C5                 2022 	push	bc
                           2023 ;	AOP_STK for _set_blocks_sloc12_1_0
   068C 23                 2024 	inc	hl
   068D 7E                 2025 	ld	a,(hl)
   068E F5                 2026 	push	af
   068F 33                 2027 	inc	sp
                           2028 ;	genIpush
                           2029 ;	AOP_STK for _set_blocks_sloc13_1_0
   0690 2B                 2030 	dec	hl
   0691 7E                 2031 	ld	a,(hl)
   0692 F5                 2032 	push	af
   0693 33                 2033 	inc	sp
                           2034 ;	genIpush
                           2035 ;	AOP_STK for _set_blocks_sloc10_1_0
   0694 F8 0B              2036 	lda	hl,11(sp)
   0696 7E                 2037 	ld	a,(hl)
   0697 F5                 2038 	push	af
   0698 33                 2039 	inc	sp
                           2040 ;	genCall
   0699 CD 00 00           2041 	call	_move_sprite
   069C E8 03              2042 	lda	sp,3(sp)
   069E C1                 2043 	pop	bc
                           2044 ;	bustout.c 205
                           2045 ;	genCast
                           2046 ;	AOP_STK for _set_blocks_a_y_1_1
                           2047 ;	AOP_STK for _set_blocks_sloc14_1_0
   069F F8 24              2048 	lda	hl,36(sp)
   06A1 7E                 2049 	ld	a,(hl)
   06A2 F8 03              2050 	lda	hl,3(sp)
   06A4 77                 2051 	ld	(hl),a
                           2052 ;	genCast
                           2053 ;	AOP_STK for _set_blocks_b_x_1_1
                           2054 ;	AOP_STK for _set_blocks_sloc15_1_0
   06A5 F8 26              2055 	lda	hl,38(sp)
   06A7 7E                 2056 	ld	a,(hl)
   06A8 F8 02              2057 	lda	hl,2(sp)
   06AA 77                 2058 	ld	(hl),a
                           2059 ;	genIpush
                           2060 ; _saveRegsForCall: sendSetSize: 0 deInUse: 0 bcInUse: 1 deSending: 0
   06AB C5                 2061 	push	bc
                           2062 ;	AOP_STK for _set_blocks_sloc14_1_0
   06AC 23                 2063 	inc	hl
   06AD 7E                 2064 	ld	a,(hl)
   06AE F5                 2065 	push	af
   06AF 33                 2066 	inc	sp
                           2067 ;	genIpush
                           2068 ;	AOP_STK for _set_blocks_sloc15_1_0
   06B0 2B                 2069 	dec	hl
   06B1 7E                 2070 	ld	a,(hl)
   06B2 F5                 2071 	push	af
   06B3 33                 2072 	inc	sp
                           2073 ;	genIpush
                           2074 ;	AOP_STK for _set_blocks_sloc11_1_0
   06B4 F8 0A              2075 	lda	hl,10(sp)
   06B6 7E                 2076 	ld	a,(hl)
   06B7 F5                 2077 	push	af
   06B8 33                 2078 	inc	sp
                           2079 ;	genCall
   06B9 CD 00 00           2080 	call	_move_sprite
   06BC E8 03              2081 	lda	sp,3(sp)
   06BE C1                 2082 	pop	bc
                           2083 ;	bustout.c 185
                           2084 ;	genPlus
                           2085 ;	AOP_STK for _set_blocks_j_1_1
                           2086 ;	AOP_STK for _set_blocks_sloc16_1_0
                           2087 ;	genPlusIncr
                           2088 ;	Can't optimise plus by inc, falling back to the normal way
   06BF F8 2E              2089 	lda	hl,46(sp)
   06C1 5E                 2090 	ld	e,(hl)
   06C2 23                 2091 	inc	hl
   06C3 56                 2092 	ld	d,(hl)
   06C4 21 01 00           2093 	ld	hl,#0x0001
   06C7 19                 2094 	add	hl,de
   06C8 7D                 2095 	ld	a,l
   06C9 54                 2096 	ld	d,h
   06CA F8 00              2097 	lda	hl,0(sp)
   06CC 22                 2098 	ld	(hl+),a
   06CD 72                 2099 	ld	(hl),d
                           2100 ;	genAssign
                           2101 ;	AOP_STK for _set_blocks_sloc16_1_0
                           2102 ;	AOP_STK for _set_blocks_j_1_1
   06CE 2B                 2103 	dec	hl
   06CF 2A                 2104 	ld	a,(hl+)
   06D0 5E                 2105 	ld	e,(hl)
   06D1 F8 2E              2106 	lda	hl,46(sp)
   06D3 22                 2107 	ld	(hl+),a
   06D4 73                 2108 	ld	(hl),e
                           2109 ;	genGoto
   06D5 C3 E8 04           2110 	jp	00101$
                           2111 ;	genLabel
   06D8                    2112 00107$:
                           2113 ;	bustout.c 183
                           2114 ;	genPlus
                           2115 ;	AOP_STK for _set_blocks_i_1_1
                           2116 ;	genPlusIncr
   06D8 F8 30              2117 	lda	hl,48(sp)
   06DA 34                 2118 	inc	(hl)
   06DB 20 02              2119 	jr	nz,00123$
   06DD 23                 2120 	inc	hl
   06DE 34                 2121 	inc	(hl)
   06DF                    2122 00123$:
                           2123 ;	genGoto
   06DF C3 B8 04           2124 	jp	00105$
                           2125 ;	genLabel
   06E2                    2126 00109$:
                           2127 ;	genEndFunction
   06E2 E8 32              2128 	lda	sp,50(sp)
   06E4 C9                 2129 	ret
   06E5                    2130 ___set_blocks_end:
                           2131 ;	bustout.c 210
                           2132 ;	genLabel
                           2133 ;	genFunction
                           2134 ;	---------------------------------
                           2135 ; Function input
                           2136 ; ---------------------------------
   06E5                    2137 ___input_start:
   06E5                    2138 _input:
   06E5 E8 FE              2139 	lda	sp,-2(sp)
                           2140 ;	bustout.c 213
                           2141 ;	genAnd
                           2142 ;	AOP_HL for _key
   06E7 21 08 00           2143 	ld	hl,#_key
   06EA 7E                 2144 	ld	a,(hl)
   06EB E6 0F              2145 	and	a,#0x0F
   06ED 20 03              2146 	jr	nz,00128$
   06EF C3 B0 07           2147 	jp	00112$
   06F2                    2148 00128$:
                           2149 ;	bustout.c 214
                           2150 ;	genAnd
                           2151 ;	AOP_HL for _key
   06F2 21 08 00           2152 	ld	hl,#_key
   06F5 7E                 2153 	ld	a,(hl)
   06F6 E6 02              2154 	and	a,#0x02
   06F8 20 03              2155 	jr	nz,00129$
   06FA C3 34 07           2156 	jp	00102$
   06FD                    2157 00129$:
                           2158 ;	genCmpGt
                           2159 ;	AOP_HL for _paddle_x
   06FD 3E 00              2160 	ld	a,#0x00
   06FF 21 0F 00           2161 	ld	hl,#_paddle_x
   0702 96                 2162 	sub	a,(hl)
   0703 D2 34 07           2163 	jp	nc,00102$
                           2164 ;	bustout.c 215
                           2165 ;	genAssign
                           2166 ;	AOP_HL for _paddle_speed
   0706 21 12 02           2167 	ld	hl,#_paddle_speed
   0709 4E                 2168 	ld	c,(hl)
   070A 23                 2169 	inc	hl
   070B 46                 2170 	ld	b,(hl)
                           2171 ;	genMult
   070C 59                 2172 	ld	e,c
   070D 50                 2173 	ld	d,b
   070E 6B                 2174 	ld	l,e
   070F 62                 2175 	ld	h,d
   0710 29                 2176 	add	hl,hl
   0711 19                 2177 	add	hl,de
   0712 29                 2178 	add	hl,hl
   0713 19                 2179 	add	hl,de
   0714 29                 2180 	add	hl,hl
   0715 19                 2181 	add	hl,de
   0716 29                 2182 	add	hl,hl
   0717 19                 2183 	add	hl,de
   0718 29                 2184 	add	hl,hl
   0719 19                 2185 	add	hl,de
   071A 29                 2186 	add	hl,hl
   071B 19                 2187 	add	hl,de
   071C 29                 2188 	add	hl,hl
   071D 19                 2189 	add	hl,de
   071E 29                 2190 	add	hl,hl
   071F 19                 2191 	add	hl,de
   0720 29                 2192 	add	hl,hl
   0721 19                 2193 	add	hl,de
   0722 29                 2194 	add	hl,hl
   0723 19                 2195 	add	hl,de
   0724 29                 2196 	add	hl,hl
   0725 19                 2197 	add	hl,de
   0726 29                 2198 	add	hl,hl
   0727 19                 2199 	add	hl,de
   0728 29                 2200 	add	hl,hl
   0729 19                 2201 	add	hl,de
   072A 29                 2202 	add	hl,hl
   072B 19                 2203 	add	hl,de
   072C 29                 2204 	add	hl,hl
   072D 19                 2205 	add	hl,de
   072E 4D                 2206 	ld	c,l
   072F 44                 2207 	ld	b,h
                           2208 ;	genCast
                           2209 ;	AOP_HL for _paddle_vel_x
   0730 21 11 00           2210 	ld	hl,#_paddle_vel_x
   0733 71                 2211 	ld	(hl),c
                           2212 ;	genLabel
   0734                    2213 00102$:
                           2214 ;	bustout.c 217
                           2215 ;	genAnd
                           2216 ;	AOP_HL for _key
   0734 21 08 00           2217 	ld	hl,#_key
   0737 7E                 2218 	ld	a,(hl)
   0738 E6 01              2219 	and	a,#0x01
   073A 20 03              2220 	jr	nz,00130$
   073C C3 62 07           2221 	jp	00105$
   073F                    2222 00130$:
                           2223 ;	genCast
                           2224 ;	AOP_HL for _paddle_x
                           2225 ;	AOP_STK for _input_sloc0_1_0
   073F 21 0F 00           2226 	ld	hl,#_paddle_x
   0742 7E                 2227 	ld	a,(hl)
   0743 F8 00              2228 	lda	hl,0(sp)
   0745 22                 2229 	ld	(hl+),a
   0746 36 00              2230 	ld	(hl),#0x00
                           2231 ;	genAssign
                           2232 ;	AOP_HL for _SCREEN_WIDTH
   0748 21 00 00           2233 	ld	hl,#_SCREEN_WIDTH
   074B 4E                 2234 	ld	c,(hl)
   074C 23                 2235 	inc	hl
   074D 46                 2236 	ld	b,(hl)
                           2237 ;	genCmpLt
                           2238 ;	AOP_STK for _input_sloc0_1_0
   074E F8 00              2239 	lda	hl,0(sp)
   0750 7E                 2240 	ld	a,(hl)
   0751 91                 2241 	sub	a,c
   0752 23                 2242 	inc	hl
   0753 7E                 2243 	ld	a,(hl)
   0754 98                 2244 	sbc	a,b
   0755 D2 62 07           2245 	jp	nc,00105$
                           2246 ;	bustout.c 218
                           2247 ;	genAssign
                           2248 ;	AOP_HL for _paddle_speed
   0758 21 12 02           2249 	ld	hl,#_paddle_speed
   075B 4E                 2250 	ld	c,(hl)
   075C 23                 2251 	inc	hl
   075D 46                 2252 	ld	b,(hl)
                           2253 ;	genCast
                           2254 ;	AOP_HL for _paddle_vel_x
   075E 21 11 00           2255 	ld	hl,#_paddle_vel_x
   0761 71                 2256 	ld	(hl),c
                           2257 ;	genLabel
   0762                    2258 00105$:
                           2259 ;	bustout.c 220
                           2260 ;	genAnd
                           2261 ;	AOP_HL for _key
   0762 21 08 00           2262 	ld	hl,#_key
   0765 7E                 2263 	ld	a,(hl)
   0766 E6 04              2264 	and	a,#0x04
   0768 20 03              2265 	jr	nz,00131$
   076A C3 9B 07           2266 	jp	00108$
   076D                    2267 00131$:
                           2268 ;	bustout.c 221
                           2269 ;	genAssign
                           2270 ;	AOP_HL for _paddle_speed
   076D 21 12 02           2271 	ld	hl,#_paddle_speed
   0770 4E                 2272 	ld	c,(hl)
   0771 23                 2273 	inc	hl
   0772 46                 2274 	ld	b,(hl)
                           2275 ;	genMult
   0773 59                 2276 	ld	e,c
   0774 50                 2277 	ld	d,b
   0775 6B                 2278 	ld	l,e
   0776 62                 2279 	ld	h,d
   0777 29                 2280 	add	hl,hl
   0778 19                 2281 	add	hl,de
   0779 29                 2282 	add	hl,hl
   077A 19                 2283 	add	hl,de
   077B 29                 2284 	add	hl,hl
   077C 19                 2285 	add	hl,de
   077D 29                 2286 	add	hl,hl
   077E 19                 2287 	add	hl,de
   077F 29                 2288 	add	hl,hl
   0780 19                 2289 	add	hl,de
   0781 29                 2290 	add	hl,hl
   0782 19                 2291 	add	hl,de
   0783 29                 2292 	add	hl,hl
   0784 19                 2293 	add	hl,de
   0785 29                 2294 	add	hl,hl
   0786 19                 2295 	add	hl,de
   0787 29                 2296 	add	hl,hl
   0788 19                 2297 	add	hl,de
   0789 29                 2298 	add	hl,hl
   078A 19                 2299 	add	hl,de
   078B 29                 2300 	add	hl,hl
   078C 19                 2301 	add	hl,de
   078D 29                 2302 	add	hl,hl
   078E 19                 2303 	add	hl,de
   078F 29                 2304 	add	hl,hl
   0790 19                 2305 	add	hl,de
   0791 29                 2306 	add	hl,hl
   0792 19                 2307 	add	hl,de
   0793 29                 2308 	add	hl,hl
   0794 19                 2309 	add	hl,de
   0795 4D                 2310 	ld	c,l
   0796 44                 2311 	ld	b,h
                           2312 ;	genCast
                           2313 ;	AOP_HL for _paddle_vel_y
   0797 21 12 00           2314 	ld	hl,#_paddle_vel_y
   079A 71                 2315 	ld	(hl),c
                           2316 ;	genLabel
   079B                    2317 00108$:
                           2318 ;	bustout.c 223
                           2319 ;	genAnd
                           2320 ;	AOP_HL for _key
   079B 21 08 00           2321 	ld	hl,#_key
   079E 7E                 2322 	ld	a,(hl)
   079F E6 08              2323 	and	a,#0x08
   07A1 20 03              2324 	jr	nz,00132$
   07A3 C3 B0 07           2325 	jp	00112$
   07A6                    2326 00132$:
                           2327 ;	bustout.c 224
                           2328 ;	genAssign
                           2329 ;	AOP_HL for _paddle_speed
   07A6 21 12 02           2330 	ld	hl,#_paddle_speed
   07A9 4E                 2331 	ld	c,(hl)
   07AA 23                 2332 	inc	hl
   07AB 46                 2333 	ld	b,(hl)
                           2334 ;	genCast
                           2335 ;	AOP_HL for _paddle_vel_y
   07AC 21 12 00           2336 	ld	hl,#_paddle_vel_y
   07AF 71                 2337 	ld	(hl),c
                           2338 ;	genLabel
   07B0                    2339 00112$:
                           2340 ;	bustout.c 228
                           2341 ;	genAnd
                           2342 ;	AOP_HL for _key
   07B0 21 08 00           2343 	ld	hl,#_key
   07B3 7E                 2344 	ld	a,(hl)
   07B4 E6 10              2345 	and	a,#0x10
   07B6 20 03              2346 	jr	nz,00133$
   07B8 C3 E2 07           2347 	jp	00117$
   07BB                    2348 00133$:
                           2349 ;	bustout.c 229
                           2350 ;	genAssign
                           2351 ;	AOP_HL for _game_started
   07BB 21 0B 00           2352 	ld	hl,#_game_started
   07BE 36 01              2353 	ld	(hl),#0x01
   07C0 23                 2354 	inc	hl
   07C1 36 00              2355 	ld	(hl),#0x00
                           2356 ;	bustout.c 230
                           2357 ;	genCmpGt
                           2358 ;	AOP_HL for _lives
   07C3 1E 80              2359 	ld	e,#0x80
   07C5 21 0A 00           2360 	ld	hl,#_lives + 1
   07C8 7E                 2361 	ld	a,(hl)
   07C9 EE 80              2362 	xor	a,#0x80
   07CB 57                 2363 	ld	d,a
   07CC 3E 00              2364 	ld	a,#0x00
   07CE 2B                 2365 	dec	hl
   07CF 96                 2366 	sub	a,(hl)
   07D0 7B                 2367 	ld	a,e
   07D1 9A                 2368 	sbc	a,d
   07D2 DA E2 07           2369 	jp	c,00117$
                           2370 ;	bustout.c 231
                           2371 ;	genAssign
                           2372 ;	AOP_HL for _INITIAL_LIVES
                           2373 ;	AOP_HL for _lives
   07D5 21 0C 02           2374 	ld	hl,#_INITIAL_LIVES
   07D8 2A                 2375 	ld	a,(hl+)
   07D9 5E                 2376 	ld	e,(hl)
   07DA 21 09 00           2377 	ld	hl,#_lives
   07DD 22                 2378 	ld	(hl+),a
   07DE 73                 2379 	ld	(hl),e
                           2380 ;	bustout.c 232
                           2381 ;	genCall
                           2382 ; _saveRegsForCall: sendSetSize: 0 deInUse: 0 bcInUse: 0 deSending: 0
   07DF CD AD 02           2383 	call	_set_lives
                           2384 ;	genLabel
   07E2                    2385 00117$:
                           2386 ;	genEndFunction
   07E2 E8 02              2387 	lda	sp,2(sp)
   07E4 C9                 2388 	ret
   07E5                    2389 ___input_end:
                           2390 ;	bustout.c 237
                           2391 ;	genLabel
                           2392 ;	genFunction
                           2393 ;	---------------------------------
                           2394 ; Function physics
                           2395 ; ---------------------------------
   07E5                    2396 ___physics_start:
   07E5                    2397 _physics:
   07E5 E8 FA              2398 	lda	sp,-6(sp)
                           2399 ;	bustout.c 240
                           2400 ;	genAnd
                           2401 ;	AOP_HL for _key
   07E7 21 08 00           2402 	ld	hl,#_key
   07EA 7E                 2403 	ld	a,(hl)
   07EB E6 03              2404 	and	a,#0x03
   07ED 20 03              2405 	jr	nz,00113$
   07EF C3 FE 07           2406 	jp	00102$
   07F2                    2407 00113$:
                           2408 ;	bustout.c 241
                           2409 ;	genPlus
                           2410 ;	AOP_HL for _paddle_x
                           2411 ;	AOP_HL for _paddle_vel_x
                           2412 ;	Can't optimise plus by inc, falling back to the normal way
   07F2 21 0F 00           2413 	ld	hl,#_paddle_x
   07F5 7E                 2414 	ld	a,(hl)
   07F6 21 11 00           2415 	ld	hl,#_paddle_vel_x
   07F9 86                 2416 	add	a,(hl)
   07FA 21 0F 00           2417 	ld	hl,#_paddle_x
   07FD 77                 2418 	ld	(hl),a
                           2419 ;	genLabel
   07FE                    2420 00102$:
                           2421 ;	bustout.c 243
                           2422 ;	genAnd
                           2423 ;	AOP_HL for _key
   07FE 21 08 00           2424 	ld	hl,#_key
   0801 7E                 2425 	ld	a,(hl)
   0802 E6 0C              2426 	and	a,#0x0C
   0804 20 03              2427 	jr	nz,00114$
   0806 C3 15 08           2428 	jp	00104$
   0809                    2429 00114$:
                           2430 ;	bustout.c 244
                           2431 ;	genPlus
                           2432 ;	AOP_HL for _paddle_y
                           2433 ;	AOP_HL for _paddle_vel_y
                           2434 ;	Can't optimise plus by inc, falling back to the normal way
   0809 21 10 00           2435 	ld	hl,#_paddle_y
   080C 7E                 2436 	ld	a,(hl)
   080D 21 12 00           2437 	ld	hl,#_paddle_vel_y
   0810 86                 2438 	add	a,(hl)
   0811 21 10 00           2439 	ld	hl,#_paddle_y
   0814 77                 2440 	ld	(hl),a
                           2441 ;	genLabel
   0815                    2442 00104$:
                           2443 ;	bustout.c 247
                           2444 ;	genIfx
                           2445 ;	AOP_HL for _game_started
   0815 21 0B 00           2446 	ld	hl,#_game_started
   0818 2A                 2447 	ld	a,(hl+)
   0819 B6                 2448 	or	a,(hl)
   081A CA 94 08           2449 	jp	z,00106$
                           2450 ;	bustout.c 249
                           2451 ;	genAssign
                           2452 ;	AOP_HL for _ball_speed
   081D 21 16 02           2453 	ld	hl,#_ball_speed
   0820 4E                 2454 	ld	c,(hl)
   0821 23                 2455 	inc	hl
   0822 46                 2456 	ld	b,(hl)
                           2457 ;	genCast
                           2458 ;	AOP_HL for _ball_vel_x
                           2459 ;	AOP_STK for _physics_sloc0_1_0
   0823 21 15 00           2460 	ld	hl,#_ball_vel_x
   0826 7E                 2461 	ld	a,(hl)
   0827 F8 04              2462 	lda	hl,4(sp)
   0829 22                 2463 	ld	(hl+),a
   082A 36 00              2464 	ld	(hl),#0x00
                           2465 ;	genAssign
                           2466 ;	AOP_STK for _physics_sloc1_1_0
   082C F8 02              2467 	lda	hl,2(sp)
   082E 71                 2468 	ld	(hl),c
   082F 23                 2469 	inc	hl
   0830 70                 2470 	ld	(hl),b
                           2471 ;	genIpush
                           2472 ; _saveRegsForCall: sendSetSize: 0 deInUse: 0 bcInUse: 1 deSending: 0
   0831 C5                 2473 	push	bc
                           2474 ;	AOP_STK for _physics_sloc1_1_0
   0832 2B                 2475 	dec	hl
   0833 2A                 2476 	ld	a,(hl+)
   0834 66                 2477 	ld	h,(hl)
   0835 6F                 2478 	ld	l,a
   0836 E5                 2479 	push	hl
                           2480 ;	genIpush
                           2481 ;	AOP_STK for _physics_sloc0_1_0
   0837 F8 08              2482 	lda	hl,8(sp)
   0839 2A                 2483 	ld	a,(hl+)
   083A 66                 2484 	ld	h,(hl)
   083B 6F                 2485 	ld	l,a
   083C E5                 2486 	push	hl
                           2487 ;	genCall
   083D CD 00 00           2488 	call	__muluint_rrx_s
                           2489 ;	AOP_STK for _physics_sloc1_1_0
   0840 F8 09              2490 	lda	hl,9(sp)
   0842 72                 2491 	ld	(hl),d
   0843 2B                 2492 	dec	hl
   0844 73                 2493 	ld	(hl),e
   0845 E8 04              2494 	lda	sp,4(sp)
   0847 C1                 2495 	pop	bc
                           2496 ;	genCast
                           2497 ;	AOP_HL for _ball_x
                           2498 ;	AOP_STK for _physics_sloc0_1_0
   0848 21 13 00           2499 	ld	hl,#_ball_x
   084B 7E                 2500 	ld	a,(hl)
   084C F8 04              2501 	lda	hl,4(sp)
   084E 22                 2502 	ld	(hl+),a
   084F 36 00              2503 	ld	(hl),#0x00
                           2504 ;	genPlus
                           2505 ;	AOP_STK for _physics_sloc0_1_0
                           2506 ;	AOP_STK for _physics_sloc1_1_0
                           2507 ;	AOP_STK for _physics_sloc2_1_0
                           2508 ;	Can't optimise plus by inc, falling back to the normal way
   0851 2B                 2509 	dec	hl
   0852 5E                 2510 	ld	e,(hl)
   0853 23                 2511 	inc	hl
   0854 56                 2512 	ld	d,(hl)
   0855 F8 02              2513 	lda	hl,2(sp)
   0857 2A                 2514 	ld	a,(hl+)
   0858 66                 2515 	ld	h,(hl)
   0859 6F                 2516 	ld	l,a
   085A 19                 2517 	add	hl,de
   085B 7D                 2518 	ld	a,l
   085C 54                 2519 	ld	d,h
   085D F8 00              2520 	lda	hl,0(sp)
   085F 22                 2521 	ld	(hl+),a
   0860 72                 2522 	ld	(hl),d
                           2523 ;	genCast
                           2524 ;	AOP_STK for _physics_sloc2_1_0
                           2525 ;	AOP_HL for _ball_x
   0861 2B                 2526 	dec	hl
   0862 7E                 2527 	ld	a,(hl)
   0863 21 13 00           2528 	ld	hl,#_ball_x
   0866 77                 2529 	ld	(hl),a
                           2530 ;	bustout.c 250
                           2531 ;	genCast
                           2532 ;	AOP_HL for _ball_vel_y
                           2533 ;	AOP_STK for _physics_sloc2_1_0
   0867 21 16 00           2534 	ld	hl,#_ball_vel_y
   086A 7E                 2535 	ld	a,(hl)
   086B F8 00              2536 	lda	hl,0(sp)
   086D 22                 2537 	ld	(hl+),a
   086E 36 00              2538 	ld	(hl),#0x00
                           2539 ;	genAssign
                           2540 ;	(registers are the same)
                           2541 ;	genIpush
                           2542 ; _saveRegsForCall: sendSetSize: 0 deInUse: 0 bcInUse: 0 deSending: 0
   0870 C5                 2543 	push	bc
                           2544 ;	genIpush
                           2545 ;	AOP_STK for _physics_sloc2_1_0
   0871 2B                 2546 	dec	hl
   0872 2A                 2547 	ld	a,(hl+)
   0873 66                 2548 	ld	h,(hl)
   0874 6F                 2549 	ld	l,a
   0875 E5                 2550 	push	hl
                           2551 ;	genCall
   0876 CD 00 00           2552 	call	__muluint_rrx_s
   0879 42                 2553 	ld	b,d
   087A 4B                 2554 	ld	c,e
   087B E8 04              2555 	lda	sp,4(sp)
                           2556 ;	genCast
                           2557 ;	AOP_HL for _ball_y
                           2558 ;	AOP_STK for _physics_sloc2_1_0
   087D 21 14 00           2559 	ld	hl,#_ball_y
   0880 7E                 2560 	ld	a,(hl)
   0881 F8 00              2561 	lda	hl,0(sp)
   0883 22                 2562 	ld	(hl+),a
   0884 36 00              2563 	ld	(hl),#0x00
                           2564 ;	genPlus
                           2565 ;	AOP_STK for _physics_sloc2_1_0
                           2566 ;	Can't optimise plus by inc, falling back to the normal way
   0886 2B                 2567 	dec	hl
   0887 2A                 2568 	ld	a,(hl+)
   0888 66                 2569 	ld	h,(hl)
   0889 6F                 2570 	ld	l,a
   088A 09                 2571 	add	hl,bc
   088B 4D                 2572 	ld	c,l
   088C 44                 2573 	ld	b,h
                           2574 ;	genCast
                           2575 ;	AOP_HL for _ball_y
   088D 21 14 00           2576 	ld	hl,#_ball_y
   0890 71                 2577 	ld	(hl),c
                           2578 ;	genGoto
   0891 C3 D9 08           2579 	jp	00108$
                           2580 ;	genLabel
   0894                    2581 00106$:
                           2582 ;	bustout.c 253
                           2583 ;	genRightShift
                           2584 ;	AOP_HL for _BALL_SIZE
   0894 21 06 00           2585 	ld	hl,#_BALL_SIZE
   0897 4E                 2586 	ld	c,(hl)
   0898 23                 2587 	inc	hl
   0899 46                 2588 	ld	b,(hl)
   089A CB 28              2589 	sra	b
   089C CB 19              2590 	rr	c
                           2591 ;	genCast
                           2592 ;	AOP_HL for _paddle_x
                           2593 ;	AOP_STK for _physics_sloc2_1_0
   089E 21 0F 00           2594 	ld	hl,#_paddle_x
   08A1 7E                 2595 	ld	a,(hl)
   08A2 F8 00              2596 	lda	hl,0(sp)
   08A4 22                 2597 	ld	(hl+),a
   08A5 36 00              2598 	ld	(hl),#0x00
                           2599 ;	genAssign
                           2600 ;	AOP_STK for _physics_sloc1_1_0
   08A7 23                 2601 	inc	hl
   08A8 71                 2602 	ld	(hl),c
   08A9 23                 2603 	inc	hl
   08AA 70                 2604 	ld	(hl),b
                           2605 ;	genPlus
                           2606 ;	AOP_STK for _physics_sloc2_1_0
                           2607 ;	AOP_STK for _physics_sloc1_1_0
                           2608 ;	AOP_STK for _physics_sloc0_1_0
                           2609 ;	Can't optimise plus by inc, falling back to the normal way
   08AB F8 00              2610 	lda	hl,0(sp)
   08AD 5E                 2611 	ld	e,(hl)
   08AE 23                 2612 	inc	hl
   08AF 56                 2613 	ld	d,(hl)
   08B0 23                 2614 	inc	hl
   08B1 2A                 2615 	ld	a,(hl+)
   08B2 66                 2616 	ld	h,(hl)
   08B3 6F                 2617 	ld	l,a
   08B4 19                 2618 	add	hl,de
   08B5 7D                 2619 	ld	a,l
   08B6 54                 2620 	ld	d,h
   08B7 F8 04              2621 	lda	hl,4(sp)
   08B9 22                 2622 	ld	(hl+),a
   08BA 72                 2623 	ld	(hl),d
                           2624 ;	genCast
                           2625 ;	AOP_STK for _physics_sloc0_1_0
                           2626 ;	AOP_HL for _ball_x
   08BB 2B                 2627 	dec	hl
   08BC 7E                 2628 	ld	a,(hl)
   08BD 21 13 00           2629 	ld	hl,#_ball_x
   08C0 77                 2630 	ld	(hl),a
                           2631 ;	bustout.c 254
                           2632 ;	genCast
                           2633 ;	AOP_HL for _paddle_y
                           2634 ;	AOP_STK for _physics_sloc2_1_0
   08C1 21 10 00           2635 	ld	hl,#_paddle_y
   08C4 7E                 2636 	ld	a,(hl)
   08C5 F8 00              2637 	lda	hl,0(sp)
   08C7 22                 2638 	ld	(hl+),a
   08C8 36 00              2639 	ld	(hl),#0x00
                           2640 ;	genAssign
                           2641 ;	(registers are the same)
                           2642 ;	genMinus
                           2643 ;	AOP_STK for _physics_sloc2_1_0
   08CA 2B                 2644 	dec	hl
   08CB 5E                 2645 	ld	e,(hl)
   08CC 23                 2646 	inc	hl
   08CD 56                 2647 	ld	d,(hl)
                           2648 ; Removed redundent load
                           2649 ; Removed redundent load
   08CE 7B                 2650 	ld	a,e
   08CF 91                 2651 	sub	a,c
   08D0 5F                 2652 	ld	e,a
   08D1 7A                 2653 	ld	a,d
   08D2 98                 2654 	sbc	a,b
   08D3 47                 2655 	ld	b,a
   08D4 4B                 2656 	ld	c,e
                           2657 ;	genCast
                           2658 ;	AOP_HL for _ball_y
   08D5 21 14 00           2659 	ld	hl,#_ball_y
   08D8 71                 2660 	ld	(hl),c
                           2661 ;	genLabel
   08D9                    2662 00108$:
                           2663 ;	genEndFunction
   08D9 E8 06              2664 	lda	sp,6(sp)
   08DB C9                 2665 	ret
   08DC                    2666 ___physics_end:
                           2667 ;	bustout.c 258
                           2668 ;	genLabel
                           2669 ;	genFunction
                           2670 ;	---------------------------------
                           2671 ; Function collide
                           2672 ; ---------------------------------
   08DC                    2673 ___collide_start:
   08DC                    2674 _collide:
   08DC E8 F0              2675 	lda	sp,-16(sp)
                           2676 ;	bustout.c 261
                           2677 ;	genAssign
                           2678 ;	AOP_STK for _collide_collided_1_1
   08DE F8 0C              2679 	lda	hl,12(sp)
   08E0 36 00              2680 	ld	(hl),#0x00
   08E2 23                 2681 	inc	hl
   08E3 36 00              2682 	ld	(hl),#0x00
                           2683 ;	bustout.c 264
                           2684 ;	genAssign
                           2685 ;	AOP_STK for _collide_i_1_1
   08E5 23                 2686 	inc	hl
   08E6 36 00              2687 	ld	(hl),#0x00
   08E8 23                 2688 	inc	hl
   08E9 36 00              2689 	ld	(hl),#0x00
                           2690 ;	genLabel
   08EB                    2691 00141$:
                           2692 ;	genCmpLt
                           2693 ;	AOP_STK for _collide_i_1_1
   08EB F8 0F              2694 	lda	hl,15(sp)
   08ED 7E                 2695 	ld	a,(hl)
   08EE EE 80              2696 	xor	a,#0x80
   08F0 5F                 2697 	ld	e,a
   08F1 16 80              2698 	ld	d,#0x80
   08F3 2B                 2699 	dec	hl
   08F4 7E                 2700 	ld	a,(hl)
   08F5 D6 18              2701 	sub	a,#0x18
   08F7 7B                 2702 	ld	a,e
   08F8 9A                 2703 	sbc	a,d
   08F9 D2 0A 0B           2704 	jp	nc,00144$
                           2705 ;	bustout.c 265
                           2706 ;	genMult
                           2707 ;	AOP_STK for _collide_i_1_1
                           2708 ;	AOP_STK for _collide_sloc0_1_0
   08FC 5E                 2709 	ld	e,(hl)
   08FD 23                 2710 	inc	hl
   08FE 56                 2711 	ld	d,(hl)
   08FF 6B                 2712 	ld	l,e
   0900 62                 2713 	ld	h,d
   0901 29                 2714 	add	hl,hl
   0902 19                 2715 	add	hl,de
   0903 29                 2716 	add	hl,hl
   0904 7D                 2717 	ld	a,l
   0905 54                 2718 	ld	d,h
   0906 F8 04              2719 	lda	hl,4(sp)
   0908 22                 2720 	ld	(hl+),a
   0909 72                 2721 	ld	(hl),d
                           2722 ;	genPlus
                           2723 ;	AOP_STK for _collide_sloc0_1_0
                           2724 ;	AOP_STK for _collide_sloc1_1_0
                           2725 ;	Can't optimise plus by inc, falling back to the normal way
   090A 11 17 00           2726 	ld	de,#_block_sprites
   090D 2B                 2727 	dec	hl
   090E 2A                 2728 	ld	a,(hl+)
   090F 66                 2729 	ld	h,(hl)
   0910 6F                 2730 	ld	l,a
   0911 19                 2731 	add	hl,de
   0912 7D                 2732 	ld	a,l
   0913 54                 2733 	ld	d,h
   0914 F8 02              2734 	lda	hl,2(sp)
                           2735 ;	genPointerGet
                           2736 ;	AOP_STK for _collide_sloc1_1_0
                           2737 ;	AOP_STK for _collide_block_i_2_2
   0916 22                 2738 	ld	(hl+),a
   0917 72                 2739 	ld	(hl),d
   0918 5F                 2740 	ld	e,a
   0919 1A                 2741 	ld	a,(de)
   091A F8 0A              2742 	lda	hl,10(sp)
   091C 77                 2743 	ld	(hl),a
   091D 13                 2744 	inc	de
   091E 1A                 2745 	ld	a,(de)
   091F 23                 2746 	inc	hl
   0920 77                 2747 	ld	(hl),a
                           2748 ;	genAssign
                           2749 ;	AOP_STK for _collide_block_i_2_2
                           2750 ;	(registers are the same)
                           2751 ;	bustout.c 266
                           2752 ;	genPlus
                           2753 ;	AOP_STK for _collide_sloc1_1_0
                           2754 ;	genPlusIncr
   0921 F8 02              2755 	lda	hl,2(sp)
   0923 4E                 2756 	ld	c,(hl)
   0924 23                 2757 	inc	hl
   0925 46                 2758 	ld	b,(hl)
   0926 03                 2759 	inc	bc
   0927 03                 2760 	inc	bc
                           2761 ;	genPointerGet
   0928 59                 2762 	ld	e,c
   0929 50                 2763 	ld	d,b
   092A 1A                 2764 	ld	a,(de)
   092B 4F                 2765 	ld	c,a
   092C 13                 2766 	inc	de
   092D 1A                 2767 	ld	a,(de)
   092E 47                 2768 	ld	b,a
                           2769 ;	genAssign
                           2770 ;	AOP_STK for _collide_block_x_2_2
   092F F8 08              2771 	lda	hl,8(sp)
   0931 71                 2772 	ld	(hl),c
   0932 23                 2773 	inc	hl
   0933 70                 2774 	ld	(hl),b
                           2775 ;	bustout.c 267
                           2776 ;	genPlus
                           2777 ;	AOP_STK for _collide_sloc1_1_0
                           2778 ;	genPlusIncr
                           2779 ;	Can't optimise plus by inc, falling back to the normal way
   0934 F8 02              2780 	lda	hl,2(sp)
   0936 5E                 2781 	ld	e,(hl)
   0937 23                 2782 	inc	hl
   0938 56                 2783 	ld	d,(hl)
   0939 21 04 00           2784 	ld	hl,#0x0004
   093C 19                 2785 	add	hl,de
   093D 4D                 2786 	ld	c,l
   093E 44                 2787 	ld	b,h
                           2788 ;	genPointerGet
   093F 59                 2789 	ld	e,c
   0940 50                 2790 	ld	d,b
   0941 1A                 2791 	ld	a,(de)
   0942 4F                 2792 	ld	c,a
   0943 13                 2793 	inc	de
   0944 1A                 2794 	ld	a,(de)
   0945 47                 2795 	ld	b,a
                           2796 ;	genAssign
                           2797 ;	AOP_STK for _collide_block_y_2_2
   0946 F8 06              2798 	lda	hl,6(sp)
   0948 71                 2799 	ld	(hl),c
   0949 23                 2800 	inc	hl
   094A 70                 2801 	ld	(hl),b
                           2802 ;	bustout.c 269
                           2803 ;	genIfx
                           2804 ;	AOP_STK for _collide_collided_1_1
   094B F8 0C              2805 	lda	hl,12(sp)
   094D 2A                 2806 	ld	a,(hl+)
   094E B6                 2807 	or	a,(hl)
   094F C2 00 0B           2808 	jp	nz,00143$
                           2809 ;	bustout.c 270
                           2810 ;	genPlus
                           2811 ;	AOP_STK for _collide_block_x_2_2
                           2812 ;	AOP_STK for _collide_block_y_2_2
                           2813 ;	AOP_STK for _collide_sloc1_1_0
                           2814 ;	Can't optimise plus by inc, falling back to the normal way
   0952 F8 08              2815 	lda	hl,8(sp)
   0954 5E                 2816 	ld	e,(hl)
   0955 23                 2817 	inc	hl
   0956 56                 2818 	ld	d,(hl)
   0957 F8 06              2819 	lda	hl,6(sp)
   0959 2A                 2820 	ld	a,(hl+)
   095A 66                 2821 	ld	h,(hl)
   095B 6F                 2822 	ld	l,a
   095C 19                 2823 	add	hl,de
   095D 7D                 2824 	ld	a,l
   095E 54                 2825 	ld	d,h
   095F F8 02              2826 	lda	hl,2(sp)
   0961 22                 2827 	ld	(hl+),a
   0962 72                 2828 	ld	(hl),d
                           2829 ;	genCmpEq
                           2830 ;	AOP_STK for _collide_sloc1_1_0
                           2831 ; genCmpEq: left 2, right 2, result 0
   0963 2B                 2832 	dec	hl
   0964 2A                 2833 	ld	a,(hl+)
   0965 B6                 2834 	or	a,(hl)
   0966 CA 00 0B           2835 	jp	z,00143$
   0969                    2836 00171$:
                           2837 ;	bustout.c 271
                           2838 ;	genPlus
                           2839 ;	AOP_STK for _collide_block_x_2_2
                           2840 ;	genPlusIncr
                           2841 ;	Can't optimise plus by inc, falling back to the normal way
   0969 F8 08              2842 	lda	hl,8(sp)
   096B 5E                 2843 	ld	e,(hl)
   096C 23                 2844 	inc	hl
   096D 56                 2845 	ld	d,(hl)
   096E 21 08 00           2846 	ld	hl,#0x0008
   0971 19                 2847 	add	hl,de
   0972 4D                 2848 	ld	c,l
   0973 44                 2849 	ld	b,h
                           2850 ;	genCast
                           2851 ;	AOP_HL for _ball_x
                           2852 ;	AOP_STK for _collide_sloc1_1_0
   0974 21 13 00           2853 	ld	hl,#_ball_x
   0977 7E                 2854 	ld	a,(hl)
   0978 F8 02              2855 	lda	hl,2(sp)
   097A 22                 2856 	ld	(hl+),a
   097B 36 00              2857 	ld	(hl),#0x00
                           2858 ;	genCmpGt
                           2859 ;	AOP_STK for _collide_sloc1_1_0
   097D 79                 2860 	ld	a,c
   097E 2B                 2861 	dec	hl
   097F 96                 2862 	sub	a,(hl)
   0980 78                 2863 	ld	a,b
   0981 23                 2864 	inc	hl
   0982 9E                 2865 	sbc	a,(hl)
   0983 DA 00 0B           2866 	jp	c,00143$
                           2867 ;	genMinus
                           2868 ;	AOP_STK for _collide_block_x_2_2
   0986 F8 08              2869 	lda	hl,8(sp)
   0988 5E                 2870 	ld	e,(hl)
   0989 23                 2871 	inc	hl
   098A 56                 2872 	ld	d,(hl)
   098B 21 08 00           2873 	ld	hl,#0x0008
   098E 7B                 2874 	ld	a,e
   098F 95                 2875 	sub	a,l
   0990 5F                 2876 	ld	e,a
   0991 7A                 2877 	ld	a,d
   0992 9C                 2878 	sbc	a,h
   0993 47                 2879 	ld	b,a
   0994 4B                 2880 	ld	c,e
                           2881 ;	genCmpLt
                           2882 ;	AOP_STK for _collide_sloc1_1_0
   0995 F8 02              2883 	lda	hl,2(sp)
   0997 7E                 2884 	ld	a,(hl)
   0998 91                 2885 	sub	a,c
   0999 23                 2886 	inc	hl
   099A 7E                 2887 	ld	a,(hl)
   099B 98                 2888 	sbc	a,b
   099C DA 00 0B           2889 	jp	c,00143$
                           2890 ;	bustout.c 272
                           2891 ;	genPlus
                           2892 ;	AOP_STK for _collide_block_y_2_2
                           2893 ;	genPlusIncr
                           2894 ;	Can't optimise plus by inc, falling back to the normal way
   099F F8 06              2895 	lda	hl,6(sp)
   09A1 5E                 2896 	ld	e,(hl)
   09A2 23                 2897 	inc	hl
   09A3 56                 2898 	ld	d,(hl)
   09A4 21 08 00           2899 	ld	hl,#0x0008
   09A7 19                 2900 	add	hl,de
   09A8 4D                 2901 	ld	c,l
   09A9 44                 2902 	ld	b,h
                           2903 ;	genCast
                           2904 ;	AOP_HL for _ball_y
                           2905 ;	AOP_STK for _collide_sloc2_1_0
   09AA 21 14 00           2906 	ld	hl,#_ball_y
   09AD 7E                 2907 	ld	a,(hl)
   09AE F8 00              2908 	lda	hl,0(sp)
   09B0 22                 2909 	ld	(hl+),a
   09B1 36 00              2910 	ld	(hl),#0x00
                           2911 ;	genCmpGt
                           2912 ;	AOP_STK for _collide_sloc2_1_0
   09B3 79                 2913 	ld	a,c
   09B4 2B                 2914 	dec	hl
   09B5 96                 2915 	sub	a,(hl)
   09B6 78                 2916 	ld	a,b
   09B7 23                 2917 	inc	hl
   09B8 9E                 2918 	sbc	a,(hl)
   09B9 DA 00 0B           2919 	jp	c,00143$
                           2920 ;	bustout.c 273
                           2921 ;	genMinus
                           2922 ;	AOP_STK for _collide_block_y_2_2
   09BC F8 06              2923 	lda	hl,6(sp)
   09BE 5E                 2924 	ld	e,(hl)
   09BF 23                 2925 	inc	hl
   09C0 56                 2926 	ld	d,(hl)
   09C1 21 10 00           2927 	ld	hl,#0x0010
   09C4 7B                 2928 	ld	a,e
   09C5 95                 2929 	sub	a,l
   09C6 5F                 2930 	ld	e,a
   09C7 7A                 2931 	ld	a,d
   09C8 9C                 2932 	sbc	a,h
   09C9 47                 2933 	ld	b,a
   09CA 4B                 2934 	ld	c,e
                           2935 ;	genCmpLt
                           2936 ;	AOP_STK for _collide_sloc2_1_0
   09CB F8 00              2937 	lda	hl,0(sp)
   09CD 7E                 2938 	ld	a,(hl)
   09CE 91                 2939 	sub	a,c
   09CF 23                 2940 	inc	hl
   09D0 7E                 2941 	ld	a,(hl)
   09D1 98                 2942 	sbc	a,b
   09D2 DA 00 0B           2943 	jp	c,00143$
                           2944 ;	bustout.c 274
                           2945 ;	genAssign
                           2946 ;	AOP_STK for _collide_collided_1_1
   09D5 F8 0C              2947 	lda	hl,12(sp)
   09D7 36 01              2948 	ld	(hl),#0x01
   09D9 23                 2949 	inc	hl
   09DA 36 00              2950 	ld	(hl),#0x00
                           2951 ;	bustout.c 275
                           2952 ;	genCast
                           2953 ;	AOP_STK for _collide_block_i_2_2
   09DC F8 0A              2954 	lda	hl,10(sp)
   09DE 4E                 2955 	ld	c,(hl)
                           2956 ;	genIpush
                           2957 ; _saveRegsForCall: sendSetSize: 0 deInUse: 0 bcInUse: 0 deSending: 0
   09DF 21 00 00           2958 	ld	hl,#0x0000
   09E2 E5                 2959 	push	hl
                           2960 ;	genIpush
   09E3 79                 2961 	ld	a,c
   09E4 F5                 2962 	push	af
   09E5 33                 2963 	inc	sp
                           2964 ;	genCall
   09E6 CD 00 00           2965 	call	_move_sprite
   09E9 E8 03              2966 	lda	sp,3(sp)
                           2967 ;	bustout.c 276
                           2968 ;	genPlus
                           2969 ;	AOP_STK for _collide_sloc0_1_0
                           2970 ;	Can't optimise plus by inc, falling back to the normal way
   09EB 11 17 00           2971 	ld	de,#_block_sprites
   09EE F8 04              2972 	lda	hl,4(sp)
   09F0 2A                 2973 	ld	a,(hl+)
   09F1 66                 2974 	ld	h,(hl)
   09F2 6F                 2975 	ld	l,a
   09F3 19                 2976 	add	hl,de
   09F4 4D                 2977 	ld	c,l
   09F5 44                 2978 	ld	b,h
                           2979 ;	genPlus
                           2980 ;	genPlusIncr
   09F6 69                 2981 	ld	l,c
   09F7 60                 2982 	ld	h,b
   09F8 23                 2983 	inc	hl
   09F9 23                 2984 	inc	hl
                           2985 ;	genAssign (pointer)
   09FA 5D                 2986 	ld	e,l
   09FB 54                 2987 	ld	d,h
   09FC 3E 00              2988 	ld	a,#0x00
   09FE 12                 2989 	ld	(de),a
   09FF 13                 2990 	inc	de
   0A00 3E 00              2991 	ld	a,#0x00
   0A02 12                 2992 	ld	(de),a
                           2993 ;	bustout.c 277
                           2994 ;	genPlus
                           2995 ;	genPlusIncr
   0A03 21 04 00           2996 	ld	hl,#0x0004
   0A06 09                 2997 	add	hl,bc
                           2998 ;	genAssign (pointer)
   0A07 5D                 2999 	ld	e,l
   0A08 54                 3000 	ld	d,h
   0A09 3E 00              3001 	ld	a,#0x00
   0A0B 12                 3002 	ld	(de),a
   0A0C 13                 3003 	inc	de
   0A0D 3E 00              3004 	ld	a,#0x00
   0A0F 12                 3005 	ld	(de),a
                           3006 ;	bustout.c 278
                           3007 ;	genIpush
                           3008 ; _saveRegsForCall: sendSetSize: 0 deInUse: 0 bcInUse: 0 deSending: 0
   0A10 21 02 00           3009 	ld	hl,#0x0002
   0A13 E5                 3010 	push	hl
                           3011 ;	genIpush
                           3012 ;	AOP_STK for _collide_i_1_1
   0A14 F8 10              3013 	lda	hl,16(sp)
   0A16 2A                 3014 	ld	a,(hl+)
   0A17 66                 3015 	ld	h,(hl)
   0A18 6F                 3016 	ld	l,a
   0A19 E5                 3017 	push	hl
                           3018 ;	genCall
   0A1A CD 00 00           3019 	call	__modsint_rrx_s
   0A1D 42                 3020 	ld	b,d
   0A1E 4B                 3021 	ld	c,e
   0A1F E8 04              3022 	lda	sp,4(sp)
                           3023 ;	genCmpEq
                           3024 ; genCmpEq: left 2, right 2, result 0
   0A21 79                 3025 	ld	a,c
   0A22 B0                 3026 	or	a,b
   0A23 C2 6F 0A           3027 	jp	nz,00102$
   0A26 18 03              3028 	jr	00173$
   0A28                    3029 00172$:
   0A28 C3 6F 0A           3030 	jp	00102$
   0A2B                    3031 00173$:
                           3032 ;	bustout.c 280
                           3033 ;	genPlus
                           3034 ;	AOP_STK for _collide_block_i_2_2
                           3035 ;	genPlusIncr
   0A2B F8 0A              3036 	lda	hl,10(sp)
   0A2D 4E                 3037 	ld	c,(hl)
   0A2E 23                 3038 	inc	hl
   0A2F 46                 3039 	ld	b,(hl)
   0A30 03                 3040 	inc	bc
                           3041 ;	genCast
                           3042 ; Removed redundent load
                           3043 ;	genIpush
                           3044 ; _saveRegsForCall: sendSetSize: 0 deInUse: 0 bcInUse: 0 deSending: 0
   0A31 21 00 00           3045 	ld	hl,#0x0000
   0A34 E5                 3046 	push	hl
                           3047 ;	genIpush
   0A35 79                 3048 	ld	a,c
   0A36 F5                 3049 	push	af
   0A37 33                 3050 	inc	sp
                           3051 ;	genCall
   0A38 CD 00 00           3052 	call	_move_sprite
   0A3B E8 03              3053 	lda	sp,3(sp)
                           3054 ;	bustout.c 281
                           3055 ;	genPlus
                           3056 ;	AOP_STK for _collide_i_1_1
                           3057 ;	genPlusIncr
   0A3D F8 0E              3058 	lda	hl,14(sp)
   0A3F 4E                 3059 	ld	c,(hl)
   0A40 23                 3060 	inc	hl
   0A41 46                 3061 	ld	b,(hl)
   0A42 03                 3062 	inc	bc
                           3063 ;	genMult
   0A43 59                 3064 	ld	e,c
   0A44 50                 3065 	ld	d,b
   0A45 6B                 3066 	ld	l,e
   0A46 62                 3067 	ld	h,d
   0A47 29                 3068 	add	hl,hl
   0A48 19                 3069 	add	hl,de
   0A49 29                 3070 	add	hl,hl
   0A4A 4D                 3071 	ld	c,l
   0A4B 44                 3072 	ld	b,h
                           3073 ;	genPlus
                           3074 ;	Can't optimise plus by inc, falling back to the normal way
   0A4C 21 17 00           3075 	ld	hl,#_block_sprites
   0A4F 09                 3076 	add	hl,bc
   0A50 4D                 3077 	ld	c,l
   0A51 44                 3078 	ld	b,h
                           3079 ;	genPlus
                           3080 ;	genPlusIncr
   0A52 69                 3081 	ld	l,c
   0A53 60                 3082 	ld	h,b
   0A54 23                 3083 	inc	hl
   0A55 23                 3084 	inc	hl
                           3085 ;	genAssign (pointer)
   0A56 5D                 3086 	ld	e,l
   0A57 54                 3087 	ld	d,h
   0A58 3E 00              3088 	ld	a,#0x00
   0A5A 12                 3089 	ld	(de),a
   0A5B 13                 3090 	inc	de
   0A5C 3E 00              3091 	ld	a,#0x00
   0A5E 12                 3092 	ld	(de),a
                           3093 ;	bustout.c 282
                           3094 ;	genPlus
                           3095 ;	genPlusIncr
   0A5F 21 04 00           3096 	ld	hl,#0x0004
   0A62 09                 3097 	add	hl,bc
                           3098 ;	genAssign (pointer)
   0A63 5D                 3099 	ld	e,l
   0A64 54                 3100 	ld	d,h
   0A65 3E 00              3101 	ld	a,#0x00
   0A67 12                 3102 	ld	(de),a
   0A68 13                 3103 	inc	de
   0A69 3E 00              3104 	ld	a,#0x00
   0A6B 12                 3105 	ld	(de),a
                           3106 ;	genGoto
   0A6C C3 B0 0A           3107 	jp	00103$
                           3108 ;	genLabel
   0A6F                    3109 00102$:
                           3110 ;	bustout.c 285
                           3111 ;	genMinus
                           3112 ;	AOP_STK for _collide_block_i_2_2
   0A6F F8 0A              3113 	lda	hl,10(sp)
   0A71 4E                 3114 	ld	c,(hl)
   0A72 23                 3115 	inc	hl
   0A73 46                 3116 	ld	b,(hl)
   0A74 0B                 3117 	dec	bc
                           3118 ;	genCast
                           3119 ; Removed redundent load
                           3120 ;	genIpush
                           3121 ; _saveRegsForCall: sendSetSize: 0 deInUse: 0 bcInUse: 0 deSending: 0
   0A75 21 00 00           3122 	ld	hl,#0x0000
   0A78 E5                 3123 	push	hl
                           3124 ;	genIpush
   0A79 79                 3125 	ld	a,c
   0A7A F5                 3126 	push	af
   0A7B 33                 3127 	inc	sp
                           3128 ;	genCall
   0A7C CD 00 00           3129 	call	_move_sprite
   0A7F E8 03              3130 	lda	sp,3(sp)
                           3131 ;	bustout.c 286
                           3132 ;	genMinus
                           3133 ;	AOP_STK for _collide_i_1_1
   0A81 F8 0E              3134 	lda	hl,14(sp)
   0A83 4E                 3135 	ld	c,(hl)
   0A84 23                 3136 	inc	hl
   0A85 46                 3137 	ld	b,(hl)
   0A86 0B                 3138 	dec	bc
                           3139 ;	genMult
   0A87 59                 3140 	ld	e,c
   0A88 50                 3141 	ld	d,b
   0A89 6B                 3142 	ld	l,e
   0A8A 62                 3143 	ld	h,d
   0A8B 29                 3144 	add	hl,hl
   0A8C 19                 3145 	add	hl,de
   0A8D 29                 3146 	add	hl,hl
   0A8E 4D                 3147 	ld	c,l
   0A8F 44                 3148 	ld	b,h
                           3149 ;	genPlus
                           3150 ;	Can't optimise plus by inc, falling back to the normal way
   0A90 21 17 00           3151 	ld	hl,#_block_sprites
   0A93 09                 3152 	add	hl,bc
   0A94 4D                 3153 	ld	c,l
   0A95 44                 3154 	ld	b,h
                           3155 ;	genPlus
                           3156 ;	genPlusIncr
   0A96 69                 3157 	ld	l,c
   0A97 60                 3158 	ld	h,b
   0A98 23                 3159 	inc	hl
   0A99 23                 3160 	inc	hl
                           3161 ;	genAssign (pointer)
   0A9A 5D                 3162 	ld	e,l
   0A9B 54                 3163 	ld	d,h
   0A9C 3E 00              3164 	ld	a,#0x00
   0A9E 12                 3165 	ld	(de),a
   0A9F 13                 3166 	inc	de
   0AA0 3E 00              3167 	ld	a,#0x00
   0AA2 12                 3168 	ld	(de),a
                           3169 ;	bustout.c 287
                           3170 ;	genPlus
                           3171 ;	genPlusIncr
   0AA3 21 04 00           3172 	ld	hl,#0x0004
   0AA6 09                 3173 	add	hl,bc
                           3174 ;	genAssign (pointer)
   0AA7 5D                 3175 	ld	e,l
   0AA8 54                 3176 	ld	d,h
   0AA9 3E 00              3177 	ld	a,#0x00
   0AAB 12                 3178 	ld	(de),a
   0AAC 13                 3179 	inc	de
   0AAD 3E 00              3180 	ld	a,#0x00
   0AAF 12                 3181 	ld	(de),a
                           3182 ;	genLabel
   0AB0                    3183 00103$:
                           3184 ;	bustout.c 290
                           3185 ;	genAssign
                           3186 ;	AOP_STK for _collide_block_y_2_2
   0AB0 F8 06              3187 	lda	hl,6(sp)
   0AB2 4E                 3188 	ld	c,(hl)
   0AB3 23                 3189 	inc	hl
   0AB4 46                 3190 	ld	b,(hl)
                           3191 ;	genCmpLt
                           3192 ;	AOP_STK for _collide_sloc2_1_0
   0AB5 F8 00              3193 	lda	hl,0(sp)
   0AB7 7E                 3194 	ld	a,(hl)
   0AB8 91                 3195 	sub	a,c
   0AB9 23                 3196 	inc	hl
   0ABA 7E                 3197 	ld	a,(hl)
   0ABB 98                 3198 	sbc	a,b
   0ABC D2 C4 0A           3199 	jp	nc,00105$
                           3200 ;	bustout.c 292
                           3201 ;	genAssign
                           3202 ;	AOP_HL for _ball_vel_y
   0ABF 21 16 00           3203 	ld	hl,#_ball_vel_y
   0AC2 36 FF              3204 	ld	(hl),#0xFF
                           3205 ;	genLabel
   0AC4                    3206 00105$:
                           3207 ;	bustout.c 294
                           3208 ;	genAssign
                           3209 ;	AOP_STK for _collide_block_y_2_2
   0AC4 F8 06              3210 	lda	hl,6(sp)
   0AC6 4E                 3211 	ld	c,(hl)
   0AC7 23                 3212 	inc	hl
   0AC8 46                 3213 	ld	b,(hl)
                           3214 ;	genCmpGt
                           3215 ;	AOP_STK for _collide_sloc2_1_0
   0AC9 79                 3216 	ld	a,c
   0ACA F8 00              3217 	lda	hl,0(sp)
   0ACC 96                 3218 	sub	a,(hl)
   0ACD 78                 3219 	ld	a,b
   0ACE 23                 3220 	inc	hl
   0ACF 9E                 3221 	sbc	a,(hl)
   0AD0 D2 D8 0A           3222 	jp	nc,00107$
                           3223 ;	bustout.c 296
                           3224 ;	genAssign
                           3225 ;	AOP_HL for _ball_vel_y
   0AD3 21 16 00           3226 	ld	hl,#_ball_vel_y
   0AD6 36 01              3227 	ld	(hl),#0x01
                           3228 ;	genLabel
   0AD8                    3229 00107$:
                           3230 ;	bustout.c 299
                           3231 ;	genAssign
                           3232 ;	AOP_STK for _collide_block_x_2_2
   0AD8 F8 08              3233 	lda	hl,8(sp)
   0ADA 4E                 3234 	ld	c,(hl)
   0ADB 23                 3235 	inc	hl
   0ADC 46                 3236 	ld	b,(hl)
                           3237 ;	genCmpLt
                           3238 ;	AOP_STK for _collide_sloc1_1_0
   0ADD F8 02              3239 	lda	hl,2(sp)
   0ADF 7E                 3240 	ld	a,(hl)
   0AE0 91                 3241 	sub	a,c
   0AE1 23                 3242 	inc	hl
   0AE2 7E                 3243 	ld	a,(hl)
   0AE3 98                 3244 	sbc	a,b
   0AE4 D2 EC 0A           3245 	jp	nc,00109$
                           3246 ;	bustout.c 301
                           3247 ;	genAssign
                           3248 ;	AOP_HL for _ball_vel_x
   0AE7 21 15 00           3249 	ld	hl,#_ball_vel_x
   0AEA 36 FF              3250 	ld	(hl),#0xFF
                           3251 ;	genLabel
   0AEC                    3252 00109$:
                           3253 ;	bustout.c 303
                           3254 ;	genAssign
                           3255 ;	AOP_STK for _collide_block_x_2_2
   0AEC F8 08              3256 	lda	hl,8(sp)
   0AEE 4E                 3257 	ld	c,(hl)
   0AEF 23                 3258 	inc	hl
   0AF0 46                 3259 	ld	b,(hl)
                           3260 ;	genCmpGt
                           3261 ;	AOP_STK for _collide_sloc1_1_0
   0AF1 79                 3262 	ld	a,c
   0AF2 F8 02              3263 	lda	hl,2(sp)
   0AF4 96                 3264 	sub	a,(hl)
   0AF5 78                 3265 	ld	a,b
   0AF6 23                 3266 	inc	hl
   0AF7 9E                 3267 	sbc	a,(hl)
   0AF8 D2 00 0B           3268 	jp	nc,00143$
                           3269 ;	bustout.c 305
                           3270 ;	genAssign
                           3271 ;	AOP_HL for _ball_vel_x
   0AFB 21 15 00           3272 	ld	hl,#_ball_vel_x
   0AFE 36 01              3273 	ld	(hl),#0x01
                           3274 ;	genLabel
   0B00                    3275 00143$:
                           3276 ;	bustout.c 264
                           3277 ;	genPlus
                           3278 ;	AOP_STK for _collide_i_1_1
                           3279 ;	genPlusIncr
   0B00 F8 0E              3280 	lda	hl,14(sp)
   0B02 34                 3281 	inc	(hl)
   0B03 20 02              3282 	jr	nz,00174$
   0B05 23                 3283 	inc	hl
   0B06 34                 3284 	inc	(hl)
   0B07                    3285 00174$:
                           3286 ;	genGoto
   0B07 C3 EB 08           3287 	jp	00141$
                           3288 ;	genLabel
   0B0A                    3289 00144$:
                           3290 ;	bustout.c 311
                           3291 ;	genCast
                           3292 ;	AOP_HL for _paddle_x
                           3293 ;	AOP_STK for _collide_sloc2_1_0
   0B0A 21 0F 00           3294 	ld	hl,#_paddle_x
   0B0D 7E                 3295 	ld	a,(hl)
   0B0E F8 00              3296 	lda	hl,0(sp)
   0B10 22                 3297 	ld	(hl+),a
   0B11 36 00              3298 	ld	(hl),#0x00
                           3299 ;	genAssign
                           3300 ;	AOP_HL for _SCREEN_WIDTH
   0B13 21 00 00           3301 	ld	hl,#_SCREEN_WIDTH
   0B16 4E                 3302 	ld	c,(hl)
   0B17 23                 3303 	inc	hl
   0B18 46                 3304 	ld	b,(hl)
                           3305 ;	genCmpLt
                           3306 ;	AOP_STK for _collide_sloc2_1_0
   0B19 F8 00              3307 	lda	hl,0(sp)
   0B1B 7E                 3308 	ld	a,(hl)
   0B1C 91                 3309 	sub	a,c
   0B1D 23                 3310 	inc	hl
   0B1E 7E                 3311 	ld	a,(hl)
   0B1F 98                 3312 	sbc	a,b
   0B20 DA 28 0B           3313 	jp	c,00120$
                           3314 ;	bustout.c 312
                           3315 ;	genAssign
                           3316 ;	AOP_HL for _paddle_vel_x
   0B23 21 11 00           3317 	ld	hl,#_paddle_vel_x
   0B26 36 00              3318 	ld	(hl),#0x00
                           3319 ;	genLabel
   0B28                    3320 00120$:
                           3321 ;	bustout.c 314
                           3322 ;	genCmpGt
                           3323 ;	AOP_HL for _paddle_x
   0B28 3E 00              3324 	ld	a,#0x00
   0B2A 21 0F 00           3325 	ld	hl,#_paddle_x
   0B2D 96                 3326 	sub	a,(hl)
   0B2E DA 36 0B           3327 	jp	c,00122$
                           3328 ;	bustout.c 315
                           3329 ;	genAssign
                           3330 ;	AOP_HL for _paddle_vel_x
   0B31 21 11 00           3331 	ld	hl,#_paddle_vel_x
   0B34 36 00              3332 	ld	(hl),#0x00
                           3333 ;	genLabel
   0B36                    3334 00122$:
                           3335 ;	bustout.c 320
                           3336 ;	genPlus
                           3337 ;	AOP_HL for _ball_y
                           3338 ;	genPlusIncr
   0B36 21 14 00           3339 	ld	hl,#_ball_y
   0B39 4E                 3340 	ld	c,(hl)
   0B3A 0C                 3341 	inc	c
   0B3B 0C                 3342 	inc	c
                           3343 ;	genCmpLt
                           3344 ;	AOP_HL for _paddle_y
   0B3C 79                 3345 	ld	a,c
   0B3D 21 10 00           3346 	ld	hl,#_paddle_y
   0B40 96                 3347 	sub	a,(hl)
   0B41 DA 79 0B           3348 	jp	c,00129$
                           3349 ;	genMinus
                           3350 ;	AOP_HL for _ball_y
   0B44 21 14 00           3351 	ld	hl,#_ball_y
   0B47 7E                 3352 	ld	a,(hl)
   0B48 C6 FE              3353 	add	a,#0xFE
   0B4A 4F                 3354 	ld	c,a
                           3355 ;	genCmpGt
                           3356 ;	AOP_HL for _paddle_y
   0B4B 21 10 00           3357 	ld	hl,#_paddle_y
   0B4E 7E                 3358 	ld	a,(hl)
   0B4F 91                 3359 	sub	a,c
   0B50 DA 79 0B           3360 	jp	c,00129$
                           3361 ;	bustout.c 322
                           3362 ;	genMinus
                           3363 ;	AOP_HL for _ball_x
   0B53 21 13 00           3364 	ld	hl,#_ball_x
   0B56 7E                 3365 	ld	a,(hl)
   0B57 C6 F4              3366 	add	a,#0xF4
                           3367 ;	genCmpGt
                           3368 ;	AOP_HL for _paddle_x
   0B59 4F                 3369 	ld	c,a
   0B5A 21 0F 00           3370 	ld	hl,#_paddle_x
   0B5D 96                 3371 	sub	a,(hl)
   0B5E D2 97 0B           3372 	jp	nc,00130$
                           3373 ;	bustout.c 324
                           3374 ;	genPlus
                           3375 ;	AOP_HL for _ball_x
                           3376 ;	genPlusIncr
   0B61 21 13 00           3377 	ld	hl,#_ball_x
   0B64 4E                 3378 	ld	c,(hl)
   0B65 0C                 3379 	inc	c
   0B66 0C                 3380 	inc	c
   0B67 0C                 3381 	inc	c
   0B68 0C                 3382 	inc	c
                           3383 ;	genCmpLt
                           3384 ;	AOP_HL for _paddle_x
   0B69 21 0F 00           3385 	ld	hl,#_paddle_x
   0B6C 7E                 3386 	ld	a,(hl)
   0B6D 91                 3387 	sub	a,c
   0B6E D2 97 0B           3388 	jp	nc,00130$
                           3389 ;	bustout.c 325
                           3390 ;	genAssign
                           3391 ;	AOP_HL for _ball_vel_y
   0B71 21 16 00           3392 	ld	hl,#_ball_vel_y
   0B74 36 FF              3393 	ld	(hl),#0xFF
                           3394 ;	genGoto
   0B76 C3 97 0B           3395 	jp	00130$
                           3396 ;	genLabel
   0B79                    3397 00129$:
                           3398 ;	bustout.c 328
                           3399 ;	genCast
                           3400 ;	AOP_HL for _ball_y
                           3401 ;	AOP_STK for _collide_sloc2_1_0
   0B79 21 14 00           3402 	ld	hl,#_ball_y
   0B7C 7E                 3403 	ld	a,(hl)
   0B7D F8 00              3404 	lda	hl,0(sp)
   0B7F 22                 3405 	ld	(hl+),a
   0B80 36 00              3406 	ld	(hl),#0x00
                           3407 ;	genAssign
                           3408 ;	AOP_HL for _BALL_SIZE
   0B82 21 06 00           3409 	ld	hl,#_BALL_SIZE
   0B85 4E                 3410 	ld	c,(hl)
   0B86 23                 3411 	inc	hl
   0B87 46                 3412 	ld	b,(hl)
                           3413 ;	genCmpGt
                           3414 ;	AOP_STK for _collide_sloc2_1_0
   0B88 79                 3415 	ld	a,c
   0B89 F8 00              3416 	lda	hl,0(sp)
   0B8B 96                 3417 	sub	a,(hl)
   0B8C 78                 3418 	ld	a,b
   0B8D 23                 3419 	inc	hl
   0B8E 9E                 3420 	sbc	a,(hl)
   0B8F DA 97 0B           3421 	jp	c,00130$
                           3422 ;	bustout.c 329
                           3423 ;	genAssign
                           3424 ;	AOP_HL for _ball_vel_y
   0B92 21 16 00           3425 	ld	hl,#_ball_vel_y
   0B95 36 01              3426 	ld	(hl),#0x01
                           3427 ;	genLabel
   0B97                    3428 00130$:
                           3429 ;	bustout.c 332
                           3430 ;	genPlus
                           3431 ;	AOP_HL for _SCREEN_HEIGHT
                           3432 ;	AOP_HL for _BALL_SIZE
                           3433 ;	Can't optimise plus by inc, falling back to the normal way
   0B97 21 02 00           3434 	ld	hl,#_SCREEN_HEIGHT
   0B9A 7E                 3435 	ld	a,(hl)
   0B9B 21 06 00           3436 	ld	hl,#_BALL_SIZE
   0B9E 86                 3437 	add	a,(hl)
   0B9F 4F                 3438 	ld	c,a
   0BA0 21 03 00           3439 	ld	hl,#_SCREEN_HEIGHT + 1
   0BA3 7E                 3440 	ld	a,(hl)
   0BA4 21 07 00           3441 	ld	hl,#_BALL_SIZE + 1
   0BA7 8E                 3442 	adc	a,(hl)
   0BA8 47                 3443 	ld	b,a
                           3444 ;	genCast
                           3445 ;	AOP_HL for _ball_y
                           3446 ;	AOP_STK for _collide_sloc2_1_0
   0BA9 21 14 00           3447 	ld	hl,#_ball_y
   0BAC 7E                 3448 	ld	a,(hl)
   0BAD F8 00              3449 	lda	hl,0(sp)
   0BAF 22                 3450 	ld	(hl+),a
   0BB0 36 00              3451 	ld	(hl),#0x00
                           3452 ;	genCmpLt
                           3453 ;	AOP_STK for _collide_sloc2_1_0
   0BB2 2B                 3454 	dec	hl
   0BB3 7E                 3455 	ld	a,(hl)
   0BB4 91                 3456 	sub	a,c
   0BB5 23                 3457 	inc	hl
   0BB6 7E                 3458 	ld	a,(hl)
   0BB7 98                 3459 	sbc	a,b
   0BB8 DA F7 0B           3460 	jp	c,00135$
                           3461 ;	bustout.c 333
                           3462 ;	genMinus
                           3463 ;	AOP_HL for _lives
   0BBB 21 09 00           3464 	ld	hl,#_lives
   0BBE 5E                 3465 	ld	e,(hl)
   0BBF 23                 3466 	inc	hl
   0BC0 56                 3467 	ld	d,(hl)
   0BC1 1B                 3468 	dec	de
   0BC2 2B                 3469 	dec	hl
   0BC3 73                 3470 	ld	(hl),e
   0BC4 23                 3471 	inc	hl
   0BC5 72                 3472 	ld	(hl),d
                           3473 ;	bustout.c 334
                           3474 ;	genCall
                           3475 ; _saveRegsForCall: sendSetSize: 0 deInUse: 0 bcInUse: 0 deSending: 0
   0BC6 CD 00 00           3476 	call	_set_paddle
                           3477 ;	bustout.c 335
                           3478 ;	genIpush
                           3479 ; _saveRegsForCall: sendSetSize: 0 deInUse: 0 bcInUse: 0 deSending: 0
   0BC9 21 01 00           3480 	ld	hl,#0x0001
   0BCC E5                 3481 	push	hl
                           3482 ;	genCall
   0BCD CD 1A 02           3483 	call	_set_ball
   0BD0 E8 02              3484 	lda	sp,2(sp)
                           3485 ;	bustout.c 336
                           3486 ;	genCall
                           3487 ; _saveRegsForCall: sendSetSize: 0 deInUse: 0 bcInUse: 0 deSending: 0
   0BD2 CD AD 02           3488 	call	_set_lives
                           3489 ;	bustout.c 337
                           3490 ;	genAssign
                           3491 ;	AOP_HL for _game_started
   0BD5 21 0B 00           3492 	ld	hl,#_game_started
   0BD8 36 00              3493 	ld	(hl),#0x00
   0BDA 23                 3494 	inc	hl
   0BDB 36 00              3495 	ld	(hl),#0x00
                           3496 ;	bustout.c 338
                           3497 ;	genCmpGt
                           3498 ;	AOP_HL for _lives
   0BDD 1E 80              3499 	ld	e,#0x80
   0BDF 21 0A 00           3500 	ld	hl,#_lives + 1
   0BE2 7E                 3501 	ld	a,(hl)
   0BE3 EE 80              3502 	xor	a,#0x80
   0BE5 57                 3503 	ld	d,a
   0BE6 3E 00              3504 	ld	a,#0x00
   0BE8 2B                 3505 	dec	hl
   0BE9 96                 3506 	sub	a,(hl)
   0BEA 7B                 3507 	ld	a,e
   0BEB 9A                 3508 	sbc	a,d
   0BEC DA F7 0B           3509 	jp	c,00135$
                           3510 ;	bustout.c 339
                           3511 ;	genAssign
                           3512 ;	AOP_HL for _game_over
   0BEF 21 0D 00           3513 	ld	hl,#_game_over
   0BF2 36 01              3514 	ld	(hl),#0x01
   0BF4 23                 3515 	inc	hl
   0BF5 36 00              3516 	ld	(hl),#0x00
                           3517 ;	genLabel
   0BF7                    3518 00135$:
                           3519 ;	bustout.c 343
                           3520 ;	genCast
                           3521 ;	AOP_HL for _ball_x
   0BF7 21 13 00           3522 	ld	hl,#_ball_x
   0BFA 4E                 3523 	ld	c,(hl)
   0BFB 06 00              3524 	ld	b,#0x00
                           3525 ;	genAssign
                           3526 ;	(operands are equal 3)
                           3527 ;	genCmpLt
                           3528 ;	AOP_HL for _SCREEN_WIDTH
   0BFD 79                 3529 	ld	a,c
   0BFE 21 00 00           3530 	ld	hl,#_SCREEN_WIDTH
   0C01 96                 3531 	sub	a,(hl)
   0C02 78                 3532 	ld	a,b
   0C03 23                 3533 	inc	hl
   0C04 9E                 3534 	sbc	a,(hl)
   0C05 DA 10 0C           3535 	jp	c,00139$
                           3536 ;	bustout.c 344
                           3537 ;	genAssign
                           3538 ;	AOP_HL for _ball_vel_x
   0C08 21 15 00           3539 	ld	hl,#_ball_vel_x
   0C0B 36 FF              3540 	ld	(hl),#0xFF
                           3541 ;	genGoto
   0C0D C3 30 0C           3542 	jp	00145$
                           3543 ;	genLabel
   0C10                    3544 00139$:
                           3545 ;	bustout.c 346
                           3546 ;	genRightShift
                           3547 ;	AOP_HL for _SPRITE_SIZE
                           3548 ;	AOP_STK for _collide_sloc2_1_0
   0C10 21 04 00           3549 	ld	hl,#_SPRITE_SIZE
   0C13 7E                 3550 	ld	a,(hl)
   0C14 F8 00              3551 	lda	hl,0(sp)
   0C16 77                 3552 	ld	(hl),a
   0C17 21 05 00           3553 	ld	hl,#_SPRITE_SIZE + 1
   0C1A 7E                 3554 	ld	a,(hl)
   0C1B F8 01              3555 	lda	hl,1(sp)
   0C1D 77                 3556 	ld	(hl),a
   0C1E CB 3E              3557 	srl	(hl)
   0C20 2B                 3558 	dec	hl
   0C21 CB 1E              3559 	rr	(hl)
                           3560 ;	genCmpGt
                           3561 ;	AOP_STK for _collide_sloc2_1_0
   0C23 7E                 3562 	ld	a,(hl)
   0C24 91                 3563 	sub	a,c
   0C25 23                 3564 	inc	hl
   0C26 7E                 3565 	ld	a,(hl)
   0C27 98                 3566 	sbc	a,b
   0C28 DA 30 0C           3567 	jp	c,00145$
                           3568 ;	bustout.c 347
                           3569 ;	genAssign
                           3570 ;	AOP_HL for _ball_vel_x
   0C2B 21 15 00           3571 	ld	hl,#_ball_vel_x
   0C2E 36 01              3572 	ld	(hl),#0x01
                           3573 ;	genLabel
   0C30                    3574 00145$:
                           3575 ;	genEndFunction
   0C30 E8 10              3576 	lda	sp,16(sp)
   0C32 C9                 3577 	ret
   0C33                    3578 ___collide_end:
                           3579 ;	bustout.c 353
                           3580 ;	genLabel
                           3581 ;	genFunction
                           3582 ;	---------------------------------
                           3583 ; Function move
                           3584 ; ---------------------------------
   0C33                    3585 ___move_start:
   0C33                    3586 _move:
                           3587 	
                           3588 ;	bustout.c 356
                           3589 ;	genIpush
                           3590 ; _saveRegsForCall: sendSetSize: 0 deInUse: 0 bcInUse: 0 deSending: 0
                           3591 ;	AOP_HL for _paddle_y
   0C33 21 10 00           3592 	ld	hl,#_paddle_y
   0C36 7E                 3593 	ld	a,(hl)
   0C37 F5                 3594 	push	af
   0C38 33                 3595 	inc	sp
                           3596 ;	genIpush
                           3597 ;	AOP_HL for _paddle_x
   0C39 21 0F 00           3598 	ld	hl,#_paddle_x
   0C3C 7E                 3599 	ld	a,(hl)
   0C3D F5                 3600 	push	af
   0C3E 33                 3601 	inc	sp
                           3602 ;	genIpush
   0C3F 3E 00              3603 	ld	a,#0x00
   0C41 F5                 3604 	push	af
   0C42 33                 3605 	inc	sp
                           3606 ;	genCall
   0C43 CD 00 00           3607 	call	_move_sprite
   0C46 E8 03              3608 	lda	sp,3(sp)
                           3609 ;	bustout.c 357
                           3610 ;	genPlus
                           3611 ;	AOP_HL for _paddle_x
                           3612 ;	genPlusIncr
                           3613 ;	Can't optimise plus by inc, falling back to the normal way
   0C48 21 0F 00           3614 	ld	hl,#_paddle_x
   0C4B 7E                 3615 	ld	a,(hl)
   0C4C C6 08              3616 	add	a,#0x08
   0C4E 4F                 3617 	ld	c,a
                           3618 ;	genIpush
                           3619 ; _saveRegsForCall: sendSetSize: 0 deInUse: 0 bcInUse: 0 deSending: 0
                           3620 ;	AOP_HL for _paddle_y
   0C4F 21 10 00           3621 	ld	hl,#_paddle_y
   0C52 7E                 3622 	ld	a,(hl)
   0C53 F5                 3623 	push	af
   0C54 33                 3624 	inc	sp
                           3625 ;	genIpush
   0C55 79                 3626 	ld	a,c
   0C56 F5                 3627 	push	af
   0C57 33                 3628 	inc	sp
                           3629 ;	genIpush
   0C58 3E 01              3630 	ld	a,#0x01
   0C5A F5                 3631 	push	af
   0C5B 33                 3632 	inc	sp
                           3633 ;	genCall
   0C5C CD 00 00           3634 	call	_move_sprite
   0C5F E8 03              3635 	lda	sp,3(sp)
                           3636 ;	bustout.c 359
                           3637 ;	genIpush
                           3638 ; _saveRegsForCall: sendSetSize: 0 deInUse: 0 bcInUse: 0 deSending: 0
                           3639 ;	AOP_HL for _ball_y
   0C61 21 14 00           3640 	ld	hl,#_ball_y
   0C64 7E                 3641 	ld	a,(hl)
   0C65 F5                 3642 	push	af
   0C66 33                 3643 	inc	sp
                           3644 ;	genIpush
                           3645 ;	AOP_HL for _ball_x
   0C67 21 13 00           3646 	ld	hl,#_ball_x
   0C6A 7E                 3647 	ld	a,(hl)
   0C6B F5                 3648 	push	af
   0C6C 33                 3649 	inc	sp
                           3650 ;	genIpush
   0C6D 3E 02              3651 	ld	a,#0x02
   0C6F F5                 3652 	push	af
   0C70 33                 3653 	inc	sp
                           3654 ;	genCall
   0C71 CD 00 00           3655 	call	_move_sprite
   0C74 E8 03              3656 	lda	sp,3(sp)
                           3657 ;	genLabel
   0C76                    3658 00101$:
                           3659 ;	genEndFunction
                           3660 	
   0C76 C9                 3661 	ret
   0C77                    3662 ___move_end:
                           3663 ;	bustout.c 362
                           3664 ;	genLabel
                           3665 ;	genFunction
                           3666 ;	---------------------------------
                           3667 ; Function score
                           3668 ; ---------------------------------
   0C77                    3669 ___score_start:
   0C77                    3670 _score:
                           3671 	
                           3672 ;	bustout.c 364
                           3673 ;	genIfx
                           3674 ;	AOP_HL for _game_over
   0C77 21 0D 00           3675 	ld	hl,#_game_over
   0C7A 2A                 3676 	ld	a,(hl+)
   0C7B B6                 3677 	or	a,(hl)
   0C7C CA 9B 0C           3678 	jp	z,00103$
                           3679 ;	bustout.c 365
                           3680 ;	genCall
                           3681 ; _saveRegsForCall: sendSetSize: 0 deInUse: 0 bcInUse: 0 deSending: 0
   0C7F CD 00 00           3682 	call	_set_paddle
                           3683 ;	bustout.c 366
                           3684 ;	genIpush
                           3685 ; _saveRegsForCall: sendSetSize: 0 deInUse: 0 bcInUse: 0 deSending: 0
   0C82 21 00 00           3686 	ld	hl,#0x0000
   0C85 E5                 3687 	push	hl
                           3688 ;	genCall
   0C86 CD 1A 02           3689 	call	_set_ball
   0C89 E8 02              3690 	lda	sp,2(sp)
                           3691 ;	bustout.c 367
                           3692 ;	genAssign
                           3693 ;	AOP_HL for _game_started
   0C8B 21 0B 00           3694 	ld	hl,#_game_started
   0C8E 36 00              3695 	ld	(hl),#0x00
   0C90 23                 3696 	inc	hl
   0C91 36 00              3697 	ld	(hl),#0x00
                           3698 ;	bustout.c 368
                           3699 ;	genAssign
                           3700 ;	AOP_HL for _game_over
   0C93 21 0D 00           3701 	ld	hl,#_game_over
   0C96 36 00              3702 	ld	(hl),#0x00
   0C98 23                 3703 	inc	hl
   0C99 36 00              3704 	ld	(hl),#0x00
                           3705 ;	genLabel
   0C9B                    3706 00103$:
                           3707 ;	genEndFunction
                           3708 	
   0C9B C9                 3709 	ret
   0C9C                    3710 ___score_end:
                           3711 ;	bustout.c 372
                           3712 ;	genLabel
                           3713 ;	genFunction
                           3714 ;	---------------------------------
                           3715 ; Function run
                           3716 ; ---------------------------------
   0C9C                    3717 ___run_start:
   0C9C                    3718 _run:
   0C9C E8 FD              3719 	lda	sp,-3(sp)
                           3720 ;	bustout.c 374
                           3721 ;	genLabel
   0C9E                    3722 00102$:
                           3723 ;	bustout.c 375
                           3724 ;	genCall
                           3725 ; _saveRegsForCall: sendSetSize: 0 deInUse: 0 bcInUse: 0 deSending: 0
   0C9E CD 00 00           3726 	call	_wait_vbl_done
                           3727 ;	bustout.c 377
                           3728 ;	genCall
                           3729 ; _saveRegsForCall: sendSetSize: 0 deInUse: 0 bcInUse: 0 deSending: 0
   0CA1 CD 00 00           3730 	call	_joypad
                           3731 ;	AOP_HL for _key
   0CA4 21 08 00           3732 	ld	hl,#_key
   0CA7 73                 3733 	ld	(hl),e
                           3734 ;	bustout.c 379
                           3735 ;	genCall
                           3736 ; _saveRegsForCall: sendSetSize: 0 deInUse: 0 bcInUse: 0 deSending: 0
   0CA8 CD E5 06           3737 	call	_input
                           3738 ;	bustout.c 381
                           3739 ;	genCall
                           3740 ; _saveRegsForCall: sendSetSize: 0 deInUse: 0 bcInUse: 0 deSending: 0
   0CAB CD E5 07           3741 	call	_physics
                           3742 ;	bustout.c 382
                           3743 ;	genCall
                           3744 ; _saveRegsForCall: sendSetSize: 0 deInUse: 0 bcInUse: 0 deSending: 0
   0CAE CD DC 08           3745 	call	_collide
                           3746 ;	bustout.c 383
                           3747 ;	genCall
                           3748 ; _saveRegsForCall: sendSetSize: 0 deInUse: 0 bcInUse: 0 deSending: 0
   0CB1 CD 33 0C           3749 	call	_move
                           3750 ;	bustout.c 384
                           3751 ;	genCall
                           3752 ; _saveRegsForCall: sendSetSize: 0 deInUse: 0 bcInUse: 0 deSending: 0
   0CB4 CD 77 0C           3753 	call	_score
                           3754 ;	bustout.c 387
                           3755 ;	genAssign
   0CB7 01 40 FF           3756 	ld	bc,#0xFF40
                           3757 ;	genAssign
                           3758 ;	AOP_STK for _run_sloc0_1_0
   0CBA F8 01              3759 	lda	hl,1(sp)
   0CBC 36 40              3760 	ld	(hl),#0x40
   0CBE 23                 3761 	inc	hl
   0CBF 36 FF              3762 	ld	(hl),#0xFF
                           3763 ;	genPointerGet
                           3764 ;	AOP_STK for _run_sloc0_1_0
                           3765 ;	AOP_STK for _run_sloc1_1_0
   0CC1 2B                 3766 	dec	hl
   0CC2 5E                 3767 	ld	e,(hl)
   0CC3 23                 3768 	inc	hl
   0CC4 56                 3769 	ld	d,(hl)
   0CC5 1A                 3770 	ld	a,(de)
   0CC6 2B                 3771 	dec	hl
   0CC7 2B                 3772 	dec	hl
                           3773 ;	genOr
                           3774 ;	AOP_STK for _run_sloc1_1_0
   0CC8 77                 3775 	ld      (hl),a
   0CC9 7F                 3776 	ld      a,a
   0CCA F6 02              3777 	or	a,#0x02
                           3778 ;	genAssign (pointer)
   0CCC 02                 3779 	ld	(bc),a
                           3780 ;	genGoto
   0CCD C3 9E 0C           3781 	jp	00102$
                           3782 ;	genLabel
   0CD0                    3783 00104$:
                           3784 ;	genEndFunction
   0CD0 E8 03              3785 	lda	sp,3(sp)
   0CD2 C9                 3786 	ret
   0CD3                    3787 ___run_end:
                           3788 ;	bustout.c 391
                           3789 ;	genLabel
                           3790 ;	genFunction
                           3791 ;	---------------------------------
                           3792 ; Function main
                           3793 ; ---------------------------------
   0CD3                    3794 ___main_start:
   0CD3                    3795 _main:
   0CD3 E8 FD              3796 	lda	sp,-3(sp)
                           3797 ;	bustout.c 393
                           3798 ;	genAssign
   0CD5 01 40 FF           3799 	ld	bc,#0xFF40
                           3800 ;	genAssign
                           3801 ;	AOP_STK for _main_sloc0_1_0
   0CD8 F8 01              3802 	lda	hl,1(sp)
   0CDA 36 40              3803 	ld	(hl),#0x40
   0CDC 23                 3804 	inc	hl
   0CDD 36 FF              3805 	ld	(hl),#0xFF
                           3806 ;	genPointerGet
                           3807 ;	AOP_STK for _main_sloc0_1_0
                           3808 ;	AOP_STK for _main_sloc1_1_0
   0CDF 2B                 3809 	dec	hl
   0CE0 5E                 3810 	ld	e,(hl)
   0CE1 23                 3811 	inc	hl
   0CE2 56                 3812 	ld	d,(hl)
   0CE3 1A                 3813 	ld	a,(de)
   0CE4 2B                 3814 	dec	hl
   0CE5 2B                 3815 	dec	hl
                           3816 ;	genOr
                           3817 ;	AOP_STK for _main_sloc1_1_0
   0CE6 77                 3818 	ld      (hl),a
   0CE7 7F                 3819 	ld      a,a
   0CE8 F6 04              3820 	or	a,#0x04
                           3821 ;	genAssign (pointer)
   0CEA 02                 3822 	ld	(bc),a
                           3823 ;	bustout.c 395
                           3824 ;	genCall
                           3825 ; _saveRegsForCall: sendSetSize: 0 deInUse: 0 bcInUse: 0 deSending: 0
   0CEB CD 00 00           3826 	call	_set_paddle
                           3827 ;	bustout.c 396
                           3828 ;	genIpush
                           3829 ; _saveRegsForCall: sendSetSize: 0 deInUse: 0 bcInUse: 0 deSending: 0
   0CEE 21 01 00           3830 	ld	hl,#0x0001
   0CF1 E5                 3831 	push	hl
                           3832 ;	genCall
   0CF2 CD 1A 02           3833 	call	_set_ball
   0CF5 E8 02              3834 	lda	sp,2(sp)
                           3835 ;	bustout.c 397
                           3836 ;	genCall
                           3837 ; _saveRegsForCall: sendSetSize: 0 deInUse: 0 bcInUse: 0 deSending: 0
   0CF7 CD AD 02           3838 	call	_set_lives
                           3839 ;	bustout.c 398
                           3840 ;	genCall
                           3841 ; _saveRegsForCall: sendSetSize: 0 deInUse: 0 bcInUse: 0 deSending: 0
   0CFA CD 78 04           3842 	call	_set_blocks
                           3843 ;	bustout.c 399
                           3844 ;	genCall
                           3845 ; _saveRegsForCall: sendSetSize: 0 deInUse: 0 bcInUse: 0 deSending: 0
   0CFD CD 9C 0C           3846 	call	_run
                           3847 ;	genLabel
   0D00                    3848 00101$:
                           3849 ;	genEndFunction
   0D00 E8 03              3850 	lda	sp,3(sp)
   0D02 C9                 3851 	ret
   0D03                    3852 ___main_end:
                           3853 	.area _CODE
ASxxxx Assembler V01.75  (GameBoy Z80-like CPU), page 1.

Symbol Table

  1 _BALL_SIZE                         0006 GR
  0 _INITIAL_LIVES                     020C GR
  1 _SCREEN_HEIGHT                     0002 GR
  1 _SCREEN_WIDTH                      0000 GR
  1 _SPRITE_SIZE                       0004 GR
  0 ___collide_end                     0C33 R
  0 ___collide_start                   08DC R
  0 ___input_end                       07E5 R
  0 ___input_start                     06E5 R
  0 ___main_end                        0D03 R
  0 ___main_start                      0CD3 R
  0 ___move_end                        0C77 R
  0 ___move_start                      0C33 R
  0 ___physics_end                     08DC R
  0 ___physics_start                   07E5 R
  0 ___run_end                         0CD3 R
  0 ___run_start                       0C9C R
  0 ___score_end                       0C9C R
  0 ___score_start                     0C77 R
  0 ___set_ball_end                    02AD R
  0 ___set_ball_start                  021A R
  0 ___set_blocks_end                  06E5 R
  0 ___set_blocks_start                0478 R
  0 ___set_lives_end                   0478 R
  0 ___set_lives_start                 02AD R
  0 ___set_paddle_end                  008C R
  0 ___set_paddle_start                0000 R
    __modsint_rrx_s                    **** GX
    __muluint_rrx_s                    **** GX
  0 _ball_speed                        0216 GR
  0 _ball_sprite                       0214 GR
  0 _ball_sprite_data                  010C GR
  1 _ball_vel_x                        0015 GR
  1 _ball_vel_y                        0016 GR
  1 _ball_x                            0013 GR
  1 _ball_y                            0014 GR
  0 _block_sprite_data                 01CC GR
  1 _block_sprites                     0017 GR
  0 _collide                           08DC GR
  0 _death_sprite_data                 018C GR
  1 _game_over                         000D GR
  1 _game_started                      000B GR
  0 _input                             06E5 GR
    _joypad                            **** GX
  1 _key                               0008 GR
  1 _lives                             0009 GR
  0 _lives_sprite_begin                0218 GR
  0 _main                              0CD3 GR
  0 _move                              0C33 GR
    _move_sprite                       **** GX
  0 _paddle_speed                      0212 GR
  0 _paddle_sprite_data                008C GR
  0 _paddle_sprite_left                020E GR
  0 _paddle_sprite_right               0210 GR
  1 _paddle_vel_x                      0011 GR
  1 _paddle_vel_y                      0012 GR
  1 _paddle_x                          000F GR
  1 _paddle_y                          0010 GR
  0 _physics                           07E5 GR
  0 _run                               0C9C GR
  0 _score                             0C77 GR
  0 _set_ball                          021A GR
  0 _set_blocks                        0478 GR
  0 _set_lives                         02AD GR
  0 _set_paddle                        0000 GR
    _set_sprite_data                   **** GX
    _set_sprite_tile                   **** GX
  0 _small_ball_sprite_data            00CC GR
  0 _smile_sprite_data                 014C GR
    _wait_vbl_done                     **** GX

ASxxxx Assembler V01.75  (GameBoy Z80-like CPU), page 2.

Area Table

   0 _CODE                              size  D03   flags 0
   1 _DATA                              size   A7   flags 0
   2 _OVERLAY                           size    0   flags 0
   3 _ISEG                              size    0   flags 0
   4 _BSEG                              size    0   flags 0
   5 _XSEG                              size    0   flags 0
   6 _GSINIT                            size   3A   flags 0
   7 _GSFINAL                           size    0   flags 0
   8 _HOME                              size    0   flags 0
