                              1 ;--------------------------------------------------------
                              2 ; File Created by SDCC : FreeWare ANSI-C Compiler
                              3 ; Version 2.3.1 Fri Dec 11 21:04:11 2020
                              4 
                              5 ;--------------------------------------------------------
                              6 	.module lcc92060
                              7 	
                              8 ;--------------------------------------------------------
                              9 ; Public variables in this module
                             10 ;--------------------------------------------------------
                             11 	.globl _main
                             12 	.globl _run
                             13 	.globl _state_game_init
                             14 	.globl _move
                             15 	.globl _collide
                             16 	.globl _physics
                             17 	.globl _input
                             18 	.globl _set_goop
                             19 	.globl _render_background
                             20 	.globl _goop_vel
                             21 	.globl _goop_coords
                             22 	.globl _bottom_wall_occupied
                             23 	.globl _top_wall_occupied
                             24 	.globl _right_wall_occupied
                             25 	.globl _left_wall_occupied
                             26 	.globl _seconds
                             27 	.globl _frames
                             28 	.globl _game_over
                             29 	.globl _game_started
                             30 	.globl _lives
                             31 	.globl _key
                             32 	.globl _SPRITE_SIZE
                             33 	.globl _SCREEN_HEIGHT
                             34 	.globl _SCREEN_WIDTH
                             35 	.globl _goop_speed
                             36 	.globl _goop_sprites
                             37 	.globl _disable_momentum
                             38 	.globl _INITIAL_LIVES
                             39 	.globl _FRAME_RATE
                             40 	.globl _goop_sprite_data
                             41 	.globl _numbers
                             42 	.globl _blank_screen
                             43 	.globl _alpha
                             44 ;--------------------------------------------------------
                             45 ; special function registers
                             46 ;--------------------------------------------------------
                             47 ;--------------------------------------------------------
                             48 ; special function bits 
                             49 ;--------------------------------------------------------
                             50 ;--------------------------------------------------------
                             51 ; internal ram data
                             52 ;--------------------------------------------------------
                             53 	.area _DATA
   0000                      54 _SCREEN_WIDTH::
   0000                      55 	.ds 2
   0002                      56 _SCREEN_HEIGHT::
   0002                      57 	.ds 2
   0004                      58 _SPRITE_SIZE::
   0004                      59 	.ds 2
   0006                      60 _key::
   0006                      61 	.ds 1
   0007                      62 _lives::
   0007                      63 	.ds 2
   0009                      64 _game_started::
   0009                      65 	.ds 2
   000B                      66 _game_over::
   000B                      67 	.ds 2
   000D                      68 _frames::
   000D                      69 	.ds 2
   000F                      70 _seconds::
   000F                      71 	.ds 2
   0011                      72 _left_wall_occupied::
   0011                      73 	.ds 2
   0013                      74 _right_wall_occupied::
   0013                      75 	.ds 2
   0015                      76 _top_wall_occupied::
   0015                      77 	.ds 2
   0017                      78 _bottom_wall_occupied::
   0017                      79 	.ds 2
   0019                      80 _goop_coords::
   0019                      81 	.ds 2
   001B                      82 _goop_vel::
   001B                      83 	.ds 2
                             84 ;--------------------------------------------------------
                             85 ; overlayable items in internal ram 
                             86 ;--------------------------------------------------------
                             87 	.area _OVERLAY
                             88 ;--------------------------------------------------------
                             89 ; indirectly addressable internal ram data
                             90 ;--------------------------------------------------------
                             91 	.area _ISEG
                             92 ;--------------------------------------------------------
                             93 ; bit data
                             94 ;--------------------------------------------------------
                             95 	.area _BSEG
                             96 ;--------------------------------------------------------
                             97 ; external ram data
                             98 ;--------------------------------------------------------
                             99 	.area _XSEG
                            100 ;--------------------------------------------------------
                            101 ; global & static initialisations
                            102 ;--------------------------------------------------------
                            103 	.area _GSINIT
                            104 	.area _GSFINAL
                            105 	.area _GSINIT
                            106 ;	goop.c 10
                            107 ;	genAssign
                            108 ;	AOP_HL for _SCREEN_WIDTH
   0000 21 00 00            109 	ld	hl,#_SCREEN_WIDTH
   0003 36 A0               110 	ld	(hl),#0xA0
   0005 23                  111 	inc	hl
   0006 36 00               112 	ld	(hl),#0x00
                            113 ;	goop.c 11
                            114 ;	genAssign
                            115 ;	AOP_HL for _SCREEN_HEIGHT
   0008 21 02 00            116 	ld	hl,#_SCREEN_HEIGHT
   000B 36 90               117 	ld	(hl),#0x90
   000D 23                  118 	inc	hl
   000E 36 00               119 	ld	(hl),#0x00
                            120 ;	goop.c 12
                            121 ;	genAssign
                            122 ;	AOP_HL for _SPRITE_SIZE
   0010 21 04 00            123 	ld	hl,#_SPRITE_SIZE
   0013 36 10               124 	ld	(hl),#0x10
   0015 23                  125 	inc	hl
   0016 36 00               126 	ld	(hl),#0x00
                            127 ;	goop.c 20
                            128 ;	genAssign
                            129 ;	AOP_HL for _INITIAL_LIVES
                            130 ;	AOP_HL for _lives
   0018 21 D3 04            131 	ld	hl,#_INITIAL_LIVES
   001B 2A                  132 	ld	a,(hl+)
   001C 5E                  133 	ld	e,(hl)
   001D 21 07 00            134 	ld	hl,#_lives
   0020 22                  135 	ld	(hl+),a
   0021 73                  136 	ld	(hl),e
                            137 ;	goop.c 21
                            138 ;	genAssign
                            139 ;	AOP_HL for _game_started
   0022 21 09 00            140 	ld	hl,#_game_started
   0025 36 00               141 	ld	(hl),#0x00
   0027 23                  142 	inc	hl
   0028 36 00               143 	ld	(hl),#0x00
                            144 ;	goop.c 22
                            145 ;	genAssign
                            146 ;	AOP_HL for _game_over
   002A 21 0B 00            147 	ld	hl,#_game_over
   002D 36 00               148 	ld	(hl),#0x00
   002F 23                  149 	inc	hl
   0030 36 00               150 	ld	(hl),#0x00
                            151 ;	goop.c 24
                            152 ;	genAssign
                            153 ;	AOP_HL for _frames
   0032 21 0D 00            154 	ld	hl,#_frames
   0035 36 00               155 	ld	(hl),#0x00
   0037 23                  156 	inc	hl
   0038 36 00               157 	ld	(hl),#0x00
                            158 ;	goop.c 26
                            159 ;	genAssign
                            160 ;	AOP_HL for _seconds
   003A 21 0F 00            161 	ld	hl,#_seconds
   003D 36 00               162 	ld	(hl),#0x00
   003F 23                  163 	inc	hl
   0040 36 00               164 	ld	(hl),#0x00
                            165 ;	goop.c 29
                            166 ;	genAssign
                            167 ;	AOP_HL for _left_wall_occupied
   0042 21 11 00            168 	ld	hl,#_left_wall_occupied
   0045 36 00               169 	ld	(hl),#0x00
   0047 23                  170 	inc	hl
   0048 36 00               171 	ld	(hl),#0x00
                            172 ;	goop.c 30
                            173 ;	genAssign
                            174 ;	AOP_HL for _right_wall_occupied
   004A 21 13 00            175 	ld	hl,#_right_wall_occupied
   004D 36 00               176 	ld	(hl),#0x00
   004F 23                  177 	inc	hl
   0050 36 00               178 	ld	(hl),#0x00
                            179 ;	goop.c 31
                            180 ;	genAssign
                            181 ;	AOP_HL for _top_wall_occupied
   0052 21 15 00            182 	ld	hl,#_top_wall_occupied
   0055 36 00               183 	ld	(hl),#0x00
   0057 23                  184 	inc	hl
   0058 36 00               185 	ld	(hl),#0x00
                            186 ;	goop.c 32
                            187 ;	genAssign
                            188 ;	AOP_HL for _bottom_wall_occupied
   005A 21 17 00            189 	ld	hl,#_bottom_wall_occupied
   005D 36 00               190 	ld	(hl),#0x00
   005F 23                  191 	inc	hl
   0060 36 00               192 	ld	(hl),#0x00
                            193 ;	goop.c 35
                            194 ;	goop.c 192
                            195 ;	genArrayInit
                            196 ; _saveRegsForCall: sendSetSize: 0 deInUse: 0 bcInUse: 0 deSending: 0
   0062 21 19 00            197 	ld	hl,#_goop_coords
   0065 CD 00 00            198 	call	__initrleblock
   0068 02                  199 	.db	2
   0069 00 00               200 	.db	0x00, 0x00
   006B 00                  201 	.db	0
                            202 ;	goop.c 36
                            203 ;	goop.c 192
                            204 ;	genArrayInit
                            205 ; _saveRegsForCall: sendSetSize: 0 deInUse: 0 bcInUse: 0 deSending: 0
   006C 21 1B 00            206 	ld	hl,#_goop_vel
   006F CD 00 00            207 	call	__initrleblock
   0072 02                  208 	.db	2
   0073 00 00               209 	.db	0x00, 0x00
   0075 00                  210 	.db	0
                            211 ;--------------------------------------------------------
                            212 ; Home
                            213 ;--------------------------------------------------------
                            214 	.area _HOME
                            215 	.area _CODE
                            216 ;--------------------------------------------------------
                            217 ; code
                            218 ;--------------------------------------------------------
                            219 	.area _CODE
                            220 ;	goop.c 40
                            221 ;	genLabel
                            222 ;	genFunction
                            223 ;	---------------------------------
                            224 ; Function render_background
                            225 ; ---------------------------------
   0000                     226 ___render_background_start:
   0000                     227 _render_background:
                            228 	
                            229 ;	goop.c 43
                            230 ;	genIpush
                            231 ; _saveRegsForCall: sendSetSize: 0 deInUse: 0 bcInUse: 0 deSending: 0
   0000 21 1F 00            232 	ld	hl,#_alpha
   0003 E5                  233 	push	hl
                            234 ;	genIpush
   0004 21 00 2F            235 	ld	hl,#0x2F00
   0007 E5                  236 	push	hl
                            237 ;	genCall
   0008 CD 00 00            238 	call	_set_bkg_data
   000B E8 04               239 	lda	sp,4(sp)
                            240 ;	goop.c 45
                            241 ;	genIpush
                            242 ; _saveRegsForCall: sendSetSize: 0 deInUse: 0 bcInUse: 0 deSending: 0
   000D 21 1F 03            243 	ld	hl,#_blank_screen
   0010 E5                  244 	push	hl
                            245 ;	genIpush
   0011 21 14 12            246 	ld	hl,#0x1214
   0014 E5                  247 	push	hl
                            248 ;	genIpush
   0015 21 00 00            249 	ld	hl,#0x0000
   0018 E5                  250 	push	hl
                            251 ;	genCall
   0019 CD 00 00            252 	call	_set_bkg_tiles
   001C E8 06               253 	lda	sp,6(sp)
                            254 ;	genLabel
   001E                     255 00101$:
                            256 ;	genEndFunction
                            257 	
   001E C9                  258 	ret
   001F                     259 ___render_background_end:
   001F                     260 _alpha:
   001F 7C                  261 	.db #0x7C
   0020 7C                  262 	.db #0x7C
   0021 86                  263 	.db #0x86
   0022 86                  264 	.db #0x86
   0023 8A                  265 	.db #0x8A
   0024 8A                  266 	.db #0x8A
   0025 92                  267 	.db #0x92
   0026 92                  268 	.db #0x92
   0027 A2                  269 	.db #0xA2
   0028 A2                  270 	.db #0xA2
   0029 C2                  271 	.db #0xC2
   002A C2                  272 	.db #0xC2
   002B 7C                  273 	.db #0x7C
   002C 7C                  274 	.db #0x7C
   002D 00                  275 	.db #0x00
   002E 00                  276 	.db #0x00
   002F 10                  277 	.db #0x10
   0030 10                  278 	.db #0x10
   0031 30                  279 	.db #0x30
   0032 30                  280 	.db #0x30
   0033 10                  281 	.db #0x10
   0034 10                  282 	.db #0x10
   0035 10                  283 	.db #0x10
   0036 10                  284 	.db #0x10
   0037 10                  285 	.db #0x10
   0038 10                  286 	.db #0x10
   0039 10                  287 	.db #0x10
   003A 10                  288 	.db #0x10
   003B 7C                  289 	.db #0x7C
   003C 7C                  290 	.db #0x7C
   003D 00                  291 	.db #0x00
   003E 00                  292 	.db #0x00
   003F 7C                  293 	.db #0x7C
   0040 7C                  294 	.db #0x7C
   0041 82                  295 	.db #0x82
   0042 82                  296 	.db #0x82
   0043 02                  297 	.db #0x02
   0044 02                  298 	.db #0x02
   0045 1C                  299 	.db #0x1C
   0046 1C                  300 	.db #0x1C
   0047 60                  301 	.db #0x60
   0048 60                  302 	.db #0x60
   0049 80                  303 	.db #0x80
   004A 80                  304 	.db #0x80
   004B FE                  305 	.db #0xFE
   004C FE                  306 	.db #0xFE
   004D 00                  307 	.db #0x00
   004E 00                  308 	.db #0x00
   004F FE                  309 	.db #0xFE
   0050 FE                  310 	.db #0xFE
   0051 04                  311 	.db #0x04
   0052 04                  312 	.db #0x04
   0053 18                  313 	.db #0x18
   0054 18                  314 	.db #0x18
   0055 04                  315 	.db #0x04
   0056 04                  316 	.db #0x04
   0057 02                  317 	.db #0x02
   0058 02                  318 	.db #0x02
   0059 82                  319 	.db #0x82
   005A 82                  320 	.db #0x82
   005B 7C                  321 	.db #0x7C
   005C 7C                  322 	.db #0x7C
   005D 00                  323 	.db #0x00
   005E 00                  324 	.db #0x00
   005F 0C                  325 	.db #0x0C
   0060 0C                  326 	.db #0x0C
   0061 14                  327 	.db #0x14
   0062 14                  328 	.db #0x14
   0063 24                  329 	.db #0x24
   0064 24                  330 	.db #0x24
   0065 44                  331 	.db #0x44
   0066 44                  332 	.db #0x44
   0067 84                  333 	.db #0x84
   0068 84                  334 	.db #0x84
   0069 FE                  335 	.db #0xFE
   006A FE                  336 	.db #0xFE
   006B 04                  337 	.db #0x04
   006C 04                  338 	.db #0x04
   006D 00                  339 	.db #0x00
   006E 00                  340 	.db #0x00
   006F FC                  341 	.db #0xFC
   0070 FC                  342 	.db #0xFC
   0071 80                  343 	.db #0x80
   0072 80                  344 	.db #0x80
   0073 FC                  345 	.db #0xFC
   0074 FC                  346 	.db #0xFC
   0075 02                  347 	.db #0x02
   0076 02                  348 	.db #0x02
   0077 02                  349 	.db #0x02
   0078 02                  350 	.db #0x02
   0079 82                  351 	.db #0x82
   007A 82                  352 	.db #0x82
   007B 7C                  353 	.db #0x7C
   007C 7C                  354 	.db #0x7C
   007D 00                  355 	.db #0x00
   007E 00                  356 	.db #0x00
   007F 7C                  357 	.db #0x7C
   0080 7C                  358 	.db #0x7C
   0081 80                  359 	.db #0x80
   0082 80                  360 	.db #0x80
   0083 80                  361 	.db #0x80
   0084 80                  362 	.db #0x80
   0085 FC                  363 	.db #0xFC
   0086 FC                  364 	.db #0xFC
   0087 82                  365 	.db #0x82
   0088 82                  366 	.db #0x82
   0089 82                  367 	.db #0x82
   008A 82                  368 	.db #0x82
   008B 7C                  369 	.db #0x7C
   008C 7C                  370 	.db #0x7C
   008D 00                  371 	.db #0x00
   008E 00                  372 	.db #0x00
   008F FE                  373 	.db #0xFE
   0090 FE                  374 	.db #0xFE
   0091 82                  375 	.db #0x82
   0092 82                  376 	.db #0x82
   0093 04                  377 	.db #0x04
   0094 04                  378 	.db #0x04
   0095 08                  379 	.db #0x08
   0096 08                  380 	.db #0x08
   0097 10                  381 	.db #0x10
   0098 10                  382 	.db #0x10
   0099 10                  383 	.db #0x10
   009A 10                  384 	.db #0x10
   009B 10                  385 	.db #0x10
   009C 10                  386 	.db #0x10
   009D 00                  387 	.db #0x00
   009E 00                  388 	.db #0x00
   009F 7C                  389 	.db #0x7C
   00A0 7C                  390 	.db #0x7C
   00A1 82                  391 	.db #0x82
   00A2 82                  392 	.db #0x82
   00A3 82                  393 	.db #0x82
   00A4 82                  394 	.db #0x82
   00A5 7C                  395 	.db #0x7C
   00A6 7C                  396 	.db #0x7C
   00A7 82                  397 	.db #0x82
   00A8 82                  398 	.db #0x82
   00A9 82                  399 	.db #0x82
   00AA 82                  400 	.db #0x82
   00AB 7C                  401 	.db #0x7C
   00AC 7C                  402 	.db #0x7C
   00AD 00                  403 	.db #0x00
   00AE 00                  404 	.db #0x00
   00AF 7C                  405 	.db #0x7C
   00B0 7C                  406 	.db #0x7C
   00B1 82                  407 	.db #0x82
   00B2 82                  408 	.db #0x82
   00B3 82                  409 	.db #0x82
   00B4 82                  410 	.db #0x82
   00B5 7E                  411 	.db #0x7E
   00B6 7E                  412 	.db #0x7E
   00B7 02                  413 	.db #0x02
   00B8 02                  414 	.db #0x02
   00B9 02                  415 	.db #0x02
   00BA 02                  416 	.db #0x02
   00BB 7C                  417 	.db #0x7C
   00BC 7C                  418 	.db #0x7C
   00BD 00                  419 	.db #0x00
   00BE 00                  420 	.db #0x00
   00BF 00                  421 	.db #0x00
   00C0 00                  422 	.db #0x00
   00C1 30                  423 	.db #0x30
   00C2 30                  424 	.db #0x30
   00C3 30                  425 	.db #0x30
   00C4 30                  426 	.db #0x30
   00C5 00                  427 	.db #0x00
   00C6 00                  428 	.db #0x00
   00C7 30                  429 	.db #0x30
   00C8 30                  430 	.db #0x30
   00C9 30                  431 	.db #0x30
   00CA 30                  432 	.db #0x30
   00CB 00                  433 	.db #0x00
   00CC 00                  434 	.db #0x00
   00CD 00                  435 	.db #0x00
   00CE 00                  436 	.db #0x00
   00CF 00                  437 	.db #0x00
   00D0 00                  438 	.db #0x00
   00D1 30                  439 	.db #0x30
   00D2 30                  440 	.db #0x30
   00D3 30                  441 	.db #0x30
   00D4 30                  442 	.db #0x30
   00D5 00                  443 	.db #0x00
   00D6 00                  444 	.db #0x00
   00D7 30                  445 	.db #0x30
   00D8 30                  446 	.db #0x30
   00D9 10                  447 	.db #0x10
   00DA 10                  448 	.db #0x10
   00DB 20                  449 	.db #0x20
   00DC 20                  450 	.db #0x20
   00DD 00                  451 	.db #0x00
   00DE 00                  452 	.db #0x00
   00DF 00                  453 	.db #0x00
   00E0 00                  454 	.db #0x00
   00E1 00                  455 	.db #0x00
   00E2 00                  456 	.db #0x00
   00E3 00                  457 	.db #0x00
   00E4 00                  458 	.db #0x00
   00E5 00                  459 	.db #0x00
   00E6 00                  460 	.db #0x00
   00E7 18                  461 	.db #0x18
   00E8 18                  462 	.db #0x18
   00E9 08                  463 	.db #0x08
   00EA 08                  464 	.db #0x08
   00EB 10                  465 	.db #0x10
   00EC 10                  466 	.db #0x10
   00ED 00                  467 	.db #0x00
   00EE 00                  468 	.db #0x00
   00EF 00                  469 	.db #0x00
   00F0 00                  470 	.db #0x00
   00F1 00                  471 	.db #0x00
   00F2 00                  472 	.db #0x00
   00F3 00                  473 	.db #0x00
   00F4 00                  474 	.db #0x00
   00F5 3E                  475 	.db #0x3E
   00F6 3E                  476 	.db #0x3E
   00F7 00                  477 	.db #0x00
   00F8 00                  478 	.db #0x00
   00F9 00                  479 	.db #0x00
   00FA 00                  480 	.db #0x00
   00FB 00                  481 	.db #0x00
   00FC 00                  482 	.db #0x00
   00FD 00                  483 	.db #0x00
   00FE 00                  484 	.db #0x00
   00FF 00                  485 	.db #0x00
   0100 00                  486 	.db #0x00
   0101 00                  487 	.db #0x00
   0102 00                  488 	.db #0x00
   0103 00                  489 	.db #0x00
   0104 00                  490 	.db #0x00
   0105 00                  491 	.db #0x00
   0106 00                  492 	.db #0x00
   0107 00                  493 	.db #0x00
   0108 00                  494 	.db #0x00
   0109 18                  495 	.db #0x18
   010A 18                  496 	.db #0x18
   010B 18                  497 	.db #0x18
   010C 18                  498 	.db #0x18
   010D 00                  499 	.db #0x00
   010E 00                  500 	.db #0x00
   010F 01                  501 	.db #0x01
   0110 01                  502 	.db #0x01
   0111 02                  503 	.db #0x02
   0112 02                  504 	.db #0x02
   0113 04                  505 	.db #0x04
   0114 04                  506 	.db #0x04
   0115 08                  507 	.db #0x08
   0116 08                  508 	.db #0x08
   0117 10                  509 	.db #0x10
   0118 10                  510 	.db #0x10
   0119 20                  511 	.db #0x20
   011A 20                  512 	.db #0x20
   011B 40                  513 	.db #0x40
   011C 40                  514 	.db #0x40
   011D 00                  515 	.db #0x00
   011E 00                  516 	.db #0x00
   011F 7C                  517 	.db #0x7C
   0120 7C                  518 	.db #0x7C
   0121 82                  519 	.db #0x82
   0122 82                  520 	.db #0x82
   0123 9A                  521 	.db #0x9A
   0124 9A                  522 	.db #0x9A
   0125 AA                  523 	.db #0xAA
   0126 AA                  524 	.db #0xAA
   0127 BC                  525 	.db #0xBC
   0128 BC                  526 	.db #0xBC
   0129 80                  527 	.db #0x80
   012A 80                  528 	.db #0x80
   012B 7C                  529 	.db #0x7C
   012C 7C                  530 	.db #0x7C
   012D 00                  531 	.db #0x00
   012E 00                  532 	.db #0x00
   012F 38                  533 	.db #0x38
   0130 38                  534 	.db #0x38
   0131 44                  535 	.db #0x44
   0132 44                  536 	.db #0x44
   0133 82                  537 	.db #0x82
   0134 82                  538 	.db #0x82
   0135 82                  539 	.db #0x82
   0136 82                  540 	.db #0x82
   0137 FE                  541 	.db #0xFE
   0138 FE                  542 	.db #0xFE
   0139 82                  543 	.db #0x82
   013A 82                  544 	.db #0x82
   013B 82                  545 	.db #0x82
   013C 82                  546 	.db #0x82
   013D 00                  547 	.db #0x00
   013E 00                  548 	.db #0x00
   013F FC                  549 	.db #0xFC
   0140 FC                  550 	.db #0xFC
   0141 82                  551 	.db #0x82
   0142 82                  552 	.db #0x82
   0143 82                  553 	.db #0x82
   0144 82                  554 	.db #0x82
   0145 FC                  555 	.db #0xFC
   0146 FC                  556 	.db #0xFC
   0147 82                  557 	.db #0x82
   0148 82                  558 	.db #0x82
   0149 82                  559 	.db #0x82
   014A 82                  560 	.db #0x82
   014B FC                  561 	.db #0xFC
   014C FC                  562 	.db #0xFC
   014D 00                  563 	.db #0x00
   014E 00                  564 	.db #0x00
   014F 7C                  565 	.db #0x7C
   0150 7C                  566 	.db #0x7C
   0151 82                  567 	.db #0x82
   0152 82                  568 	.db #0x82
   0153 80                  569 	.db #0x80
   0154 80                  570 	.db #0x80
   0155 80                  571 	.db #0x80
   0156 80                  572 	.db #0x80
   0157 80                  573 	.db #0x80
   0158 80                  574 	.db #0x80
   0159 82                  575 	.db #0x82
   015A 82                  576 	.db #0x82
   015B 7C                  577 	.db #0x7C
   015C 7C                  578 	.db #0x7C
   015D 00                  579 	.db #0x00
   015E 00                  580 	.db #0x00
   015F F8                  581 	.db #0xF8
   0160 F8                  582 	.db #0xF8
   0161 84                  583 	.db #0x84
   0162 84                  584 	.db #0x84
   0163 82                  585 	.db #0x82
   0164 82                  586 	.db #0x82
   0165 82                  587 	.db #0x82
   0166 82                  588 	.db #0x82
   0167 82                  589 	.db #0x82
   0168 82                  590 	.db #0x82
   0169 84                  591 	.db #0x84
   016A 84                  592 	.db #0x84
   016B F8                  593 	.db #0xF8
   016C F8                  594 	.db #0xF8
   016D 00                  595 	.db #0x00
   016E 00                  596 	.db #0x00
   016F FE                  597 	.db #0xFE
   0170 FE                  598 	.db #0xFE
   0171 80                  599 	.db #0x80
   0172 80                  600 	.db #0x80
   0173 80                  601 	.db #0x80
   0174 80                  602 	.db #0x80
   0175 FC                  603 	.db #0xFC
   0176 FC                  604 	.db #0xFC
   0177 80                  605 	.db #0x80
   0178 80                  606 	.db #0x80
   0179 80                  607 	.db #0x80
   017A 80                  608 	.db #0x80
   017B FE                  609 	.db #0xFE
   017C FE                  610 	.db #0xFE
   017D 00                  611 	.db #0x00
   017E 00                  612 	.db #0x00
   017F FE                  613 	.db #0xFE
   0180 FE                  614 	.db #0xFE
   0181 80                  615 	.db #0x80
   0182 80                  616 	.db #0x80
   0183 80                  617 	.db #0x80
   0184 80                  618 	.db #0x80
   0185 FC                  619 	.db #0xFC
   0186 FC                  620 	.db #0xFC
   0187 80                  621 	.db #0x80
   0188 80                  622 	.db #0x80
   0189 80                  623 	.db #0x80
   018A 80                  624 	.db #0x80
   018B 80                  625 	.db #0x80
   018C 80                  626 	.db #0x80
   018D 00                  627 	.db #0x00
   018E 00                  628 	.db #0x00
   018F 7C                  629 	.db #0x7C
   0190 7C                  630 	.db #0x7C
   0191 82                  631 	.db #0x82
   0192 82                  632 	.db #0x82
   0193 80                  633 	.db #0x80
   0194 80                  634 	.db #0x80
   0195 80                  635 	.db #0x80
   0196 80                  636 	.db #0x80
   0197 8E                  637 	.db #0x8E
   0198 8E                  638 	.db #0x8E
   0199 82                  639 	.db #0x82
   019A 82                  640 	.db #0x82
   019B 7E                  641 	.db #0x7E
   019C 7E                  642 	.db #0x7E
   019D 00                  643 	.db #0x00
   019E 00                  644 	.db #0x00
   019F 82                  645 	.db #0x82
   01A0 82                  646 	.db #0x82
   01A1 82                  647 	.db #0x82
   01A2 82                  648 	.db #0x82
   01A3 82                  649 	.db #0x82
   01A4 82                  650 	.db #0x82
   01A5 FE                  651 	.db #0xFE
   01A6 FE                  652 	.db #0xFE
   01A7 82                  653 	.db #0x82
   01A8 82                  654 	.db #0x82
   01A9 82                  655 	.db #0x82
   01AA 82                  656 	.db #0x82
   01AB 82                  657 	.db #0x82
   01AC 82                  658 	.db #0x82
   01AD 00                  659 	.db #0x00
   01AE 00                  660 	.db #0x00
   01AF 7C                  661 	.db #0x7C
   01B0 7C                  662 	.db #0x7C
   01B1 10                  663 	.db #0x10
   01B2 10                  664 	.db #0x10
   01B3 10                  665 	.db #0x10
   01B4 10                  666 	.db #0x10
   01B5 10                  667 	.db #0x10
   01B6 10                  668 	.db #0x10
   01B7 10                  669 	.db #0x10
   01B8 10                  670 	.db #0x10
   01B9 10                  671 	.db #0x10
   01BA 10                  672 	.db #0x10
   01BB 7C                  673 	.db #0x7C
   01BC 7C                  674 	.db #0x7C
   01BD 00                  675 	.db #0x00
   01BE 00                  676 	.db #0x00
   01BF 1E                  677 	.db #0x1E
   01C0 1E                  678 	.db #0x1E
   01C1 04                  679 	.db #0x04
   01C2 04                  680 	.db #0x04
   01C3 04                  681 	.db #0x04
   01C4 04                  682 	.db #0x04
   01C5 04                  683 	.db #0x04
   01C6 04                  684 	.db #0x04
   01C7 04                  685 	.db #0x04
   01C8 04                  686 	.db #0x04
   01C9 84                  687 	.db #0x84
   01CA 84                  688 	.db #0x84
   01CB 78                  689 	.db #0x78
   01CC 78                  690 	.db #0x78
   01CD 00                  691 	.db #0x00
   01CE 00                  692 	.db #0x00
   01CF 84                  693 	.db #0x84
   01D0 84                  694 	.db #0x84
   01D1 88                  695 	.db #0x88
   01D2 88                  696 	.db #0x88
   01D3 90                  697 	.db #0x90
   01D4 90                  698 	.db #0x90
   01D5 F0                  699 	.db #0xF0
   01D6 F0                  700 	.db #0xF0
   01D7 88                  701 	.db #0x88
   01D8 88                  702 	.db #0x88
   01D9 84                  703 	.db #0x84
   01DA 84                  704 	.db #0x84
   01DB 82                  705 	.db #0x82
   01DC 82                  706 	.db #0x82
   01DD 00                  707 	.db #0x00
   01DE 00                  708 	.db #0x00
   01DF 40                  709 	.db #0x40
   01E0 40                  710 	.db #0x40
   01E1 40                  711 	.db #0x40
   01E2 40                  712 	.db #0x40
   01E3 40                  713 	.db #0x40
   01E4 40                  714 	.db #0x40
   01E5 40                  715 	.db #0x40
   01E6 40                  716 	.db #0x40
   01E7 40                  717 	.db #0x40
   01E8 40                  718 	.db #0x40
   01E9 40                  719 	.db #0x40
   01EA 40                  720 	.db #0x40
   01EB 7E                  721 	.db #0x7E
   01EC 7E                  722 	.db #0x7E
   01ED 00                  723 	.db #0x00
   01EE 00                  724 	.db #0x00
   01EF 82                  725 	.db #0x82
   01F0 82                  726 	.db #0x82
   01F1 C6                  727 	.db #0xC6
   01F2 C6                  728 	.db #0xC6
   01F3 AA                  729 	.db #0xAA
   01F4 AA                  730 	.db #0xAA
   01F5 92                  731 	.db #0x92
   01F6 92                  732 	.db #0x92
   01F7 82                  733 	.db #0x82
   01F8 82                  734 	.db #0x82
   01F9 82                  735 	.db #0x82
   01FA 82                  736 	.db #0x82
   01FB 82                  737 	.db #0x82
   01FC 82                  738 	.db #0x82
   01FD 00                  739 	.db #0x00
   01FE 00                  740 	.db #0x00
   01FF 82                  741 	.db #0x82
   0200 82                  742 	.db #0x82
   0201 C2                  743 	.db #0xC2
   0202 C2                  744 	.db #0xC2
   0203 A2                  745 	.db #0xA2
   0204 A2                  746 	.db #0xA2
   0205 92                  747 	.db #0x92
   0206 92                  748 	.db #0x92
   0207 8A                  749 	.db #0x8A
   0208 8A                  750 	.db #0x8A
   0209 86                  751 	.db #0x86
   020A 86                  752 	.db #0x86
   020B 82                  753 	.db #0x82
   020C 82                  754 	.db #0x82
   020D 00                  755 	.db #0x00
   020E 00                  756 	.db #0x00
   020F 7C                  757 	.db #0x7C
   0210 7C                  758 	.db #0x7C
   0211 82                  759 	.db #0x82
   0212 82                  760 	.db #0x82
   0213 82                  761 	.db #0x82
   0214 82                  762 	.db #0x82
   0215 82                  763 	.db #0x82
   0216 82                  764 	.db #0x82
   0217 82                  765 	.db #0x82
   0218 82                  766 	.db #0x82
   0219 82                  767 	.db #0x82
   021A 82                  768 	.db #0x82
   021B 7C                  769 	.db #0x7C
   021C 7C                  770 	.db #0x7C
   021D 00                  771 	.db #0x00
   021E 00                  772 	.db #0x00
   021F FC                  773 	.db #0xFC
   0220 FC                  774 	.db #0xFC
   0221 82                  775 	.db #0x82
   0222 82                  776 	.db #0x82
   0223 82                  777 	.db #0x82
   0224 82                  778 	.db #0x82
   0225 82                  779 	.db #0x82
   0226 82                  780 	.db #0x82
   0227 FC                  781 	.db #0xFC
   0228 FC                  782 	.db #0xFC
   0229 80                  783 	.db #0x80
   022A 80                  784 	.db #0x80
   022B 80                  785 	.db #0x80
   022C 80                  786 	.db #0x80
   022D 00                  787 	.db #0x00
   022E 00                  788 	.db #0x00
   022F 7C                  789 	.db #0x7C
   0230 7C                  790 	.db #0x7C
   0231 82                  791 	.db #0x82
   0232 82                  792 	.db #0x82
   0233 82                  793 	.db #0x82
   0234 82                  794 	.db #0x82
   0235 92                  795 	.db #0x92
   0236 92                  796 	.db #0x92
   0237 8A                  797 	.db #0x8A
   0238 8A                  798 	.db #0x8A
   0239 84                  799 	.db #0x84
   023A 84                  800 	.db #0x84
   023B 7A                  801 	.db #0x7A
   023C 7A                  802 	.db #0x7A
   023D 00                  803 	.db #0x00
   023E 00                  804 	.db #0x00
   023F FC                  805 	.db #0xFC
   0240 FC                  806 	.db #0xFC
   0241 82                  807 	.db #0x82
   0242 82                  808 	.db #0x82
   0243 82                  809 	.db #0x82
   0244 82                  810 	.db #0x82
   0245 84                  811 	.db #0x84
   0246 84                  812 	.db #0x84
   0247 F8                  813 	.db #0xF8
   0248 F8                  814 	.db #0xF8
   0249 84                  815 	.db #0x84
   024A 84                  816 	.db #0x84
   024B 82                  817 	.db #0x82
   024C 82                  818 	.db #0x82
   024D 00                  819 	.db #0x00
   024E 00                  820 	.db #0x00
   024F 7C                  821 	.db #0x7C
   0250 7C                  822 	.db #0x7C
   0251 80                  823 	.db #0x80
   0252 80                  824 	.db #0x80
   0253 80                  825 	.db #0x80
   0254 80                  826 	.db #0x80
   0255 7C                  827 	.db #0x7C
   0256 7C                  828 	.db #0x7C
   0257 02                  829 	.db #0x02
   0258 02                  830 	.db #0x02
   0259 02                  831 	.db #0x02
   025A 02                  832 	.db #0x02
   025B FC                  833 	.db #0xFC
   025C FC                  834 	.db #0xFC
   025D 00                  835 	.db #0x00
   025E 00                  836 	.db #0x00
   025F FE                  837 	.db #0xFE
   0260 FE                  838 	.db #0xFE
   0261 10                  839 	.db #0x10
   0262 10                  840 	.db #0x10
   0263 10                  841 	.db #0x10
   0264 10                  842 	.db #0x10
   0265 10                  843 	.db #0x10
   0266 10                  844 	.db #0x10
   0267 10                  845 	.db #0x10
   0268 10                  846 	.db #0x10
   0269 10                  847 	.db #0x10
   026A 10                  848 	.db #0x10
   026B 10                  849 	.db #0x10
   026C 10                  850 	.db #0x10
   026D 00                  851 	.db #0x00
   026E 00                  852 	.db #0x00
   026F 82                  853 	.db #0x82
   0270 82                  854 	.db #0x82
   0271 82                  855 	.db #0x82
   0272 82                  856 	.db #0x82
   0273 82                  857 	.db #0x82
   0274 82                  858 	.db #0x82
   0275 82                  859 	.db #0x82
   0276 82                  860 	.db #0x82
   0277 82                  861 	.db #0x82
   0278 82                  862 	.db #0x82
   0279 82                  863 	.db #0x82
   027A 82                  864 	.db #0x82
   027B 7C                  865 	.db #0x7C
   027C 7C                  866 	.db #0x7C
   027D 00                  867 	.db #0x00
   027E 00                  868 	.db #0x00
   027F 82                  869 	.db #0x82
   0280 82                  870 	.db #0x82
   0281 82                  871 	.db #0x82
   0282 82                  872 	.db #0x82
   0283 82                  873 	.db #0x82
   0284 82                  874 	.db #0x82
   0285 82                  875 	.db #0x82
   0286 82                  876 	.db #0x82
   0287 44                  877 	.db #0x44
   0288 44                  878 	.db #0x44
   0289 28                  879 	.db #0x28
   028A 28                  880 	.db #0x28
   028B 10                  881 	.db #0x10
   028C 10                  882 	.db #0x10
   028D 00                  883 	.db #0x00
   028E 00                  884 	.db #0x00
   028F 82                  885 	.db #0x82
   0290 82                  886 	.db #0x82
   0291 82                  887 	.db #0x82
   0292 82                  888 	.db #0x82
   0293 82                  889 	.db #0x82
   0294 82                  890 	.db #0x82
   0295 92                  891 	.db #0x92
   0296 92                  892 	.db #0x92
   0297 AA                  893 	.db #0xAA
   0298 AA                  894 	.db #0xAA
   0299 C6                  895 	.db #0xC6
   029A C6                  896 	.db #0xC6
   029B 82                  897 	.db #0x82
   029C 82                  898 	.db #0x82
   029D 00                  899 	.db #0x00
   029E 00                  900 	.db #0x00
   029F 82                  901 	.db #0x82
   02A0 82                  902 	.db #0x82
   02A1 44                  903 	.db #0x44
   02A2 44                  904 	.db #0x44
   02A3 28                  905 	.db #0x28
   02A4 28                  906 	.db #0x28
   02A5 10                  907 	.db #0x10
   02A6 10                  908 	.db #0x10
   02A7 28                  909 	.db #0x28
   02A8 28                  910 	.db #0x28
   02A9 44                  911 	.db #0x44
   02AA 44                  912 	.db #0x44
   02AB 82                  913 	.db #0x82
   02AC 82                  914 	.db #0x82
   02AD 00                  915 	.db #0x00
   02AE 00                  916 	.db #0x00
   02AF 82                  917 	.db #0x82
   02B0 82                  918 	.db #0x82
   02B1 44                  919 	.db #0x44
   02B2 44                  920 	.db #0x44
   02B3 28                  921 	.db #0x28
   02B4 28                  922 	.db #0x28
   02B5 10                  923 	.db #0x10
   02B6 10                  924 	.db #0x10
   02B7 10                  925 	.db #0x10
   02B8 10                  926 	.db #0x10
   02B9 10                  927 	.db #0x10
   02BA 10                  928 	.db #0x10
   02BB 10                  929 	.db #0x10
   02BC 10                  930 	.db #0x10
   02BD 00                  931 	.db #0x00
   02BE 00                  932 	.db #0x00
   02BF FE                  933 	.db #0xFE
   02C0 FE                  934 	.db #0xFE
   02C1 04                  935 	.db #0x04
   02C2 04                  936 	.db #0x04
   02C3 08                  937 	.db #0x08
   02C4 08                  938 	.db #0x08
   02C5 10                  939 	.db #0x10
   02C6 10                  940 	.db #0x10
   02C7 20                  941 	.db #0x20
   02C8 20                  942 	.db #0x20
   02C9 40                  943 	.db #0x40
   02CA 40                  944 	.db #0x40
   02CB FE                  945 	.db #0xFE
   02CC FE                  946 	.db #0xFE
   02CD 00                  947 	.db #0x00
   02CE 00                  948 	.db #0x00
   02CF 1C                  949 	.db #0x1C
   02D0 1C                  950 	.db #0x1C
   02D1 10                  951 	.db #0x10
   02D2 10                  952 	.db #0x10
   02D3 10                  953 	.db #0x10
   02D4 10                  954 	.db #0x10
   02D5 10                  955 	.db #0x10
   02D6 10                  956 	.db #0x10
   02D7 10                  957 	.db #0x10
   02D8 10                  958 	.db #0x10
   02D9 10                  959 	.db #0x10
   02DA 10                  960 	.db #0x10
   02DB 1C                  961 	.db #0x1C
   02DC 1C                  962 	.db #0x1C
   02DD 00                  963 	.db #0x00
   02DE 00                  964 	.db #0x00
   02DF 80                  965 	.db #0x80
   02E0 80                  966 	.db #0x80
   02E1 40                  967 	.db #0x40
   02E2 40                  968 	.db #0x40
   02E3 20                  969 	.db #0x20
   02E4 20                  970 	.db #0x20
   02E5 10                  971 	.db #0x10
   02E6 10                  972 	.db #0x10
   02E7 08                  973 	.db #0x08
   02E8 08                  974 	.db #0x08
   02E9 04                  975 	.db #0x04
   02EA 04                  976 	.db #0x04
   02EB 02                  977 	.db #0x02
   02EC 02                  978 	.db #0x02
   02ED 00                  979 	.db #0x00
   02EE 00                  980 	.db #0x00
   02EF 70                  981 	.db #0x70
   02F0 70                  982 	.db #0x70
   02F1 10                  983 	.db #0x10
   02F2 10                  984 	.db #0x10
   02F3 10                  985 	.db #0x10
   02F4 10                  986 	.db #0x10
   02F5 10                  987 	.db #0x10
   02F6 10                  988 	.db #0x10
   02F7 10                  989 	.db #0x10
   02F8 10                  990 	.db #0x10
   02F9 10                  991 	.db #0x10
   02FA 10                  992 	.db #0x10
   02FB 70                  993 	.db #0x70
   02FC 70                  994 	.db #0x70
   02FD 00                  995 	.db #0x00
   02FE 00                  996 	.db #0x00
   02FF 10                  997 	.db #0x10
   0300 10                  998 	.db #0x10
   0301 28                  999 	.db #0x28
   0302 28                 1000 	.db #0x28
   0303 44                 1001 	.db #0x44
   0304 44                 1002 	.db #0x44
   0305 82                 1003 	.db #0x82
   0306 82                 1004 	.db #0x82
   0307 00                 1005 	.db #0x00
   0308 00                 1006 	.db #0x00
   0309 00                 1007 	.db #0x00
   030A 00                 1008 	.db #0x00
   030B 00                 1009 	.db #0x00
   030C 00                 1010 	.db #0x00
   030D 00                 1011 	.db #0x00
   030E 00                 1012 	.db #0x00
   030F 00                 1013 	.db #0x00
   0310 00                 1014 	.db #0x00
   0311 00                 1015 	.db #0x00
   0312 00                 1016 	.db #0x00
   0313 00                 1017 	.db #0x00
   0314 00                 1018 	.db #0x00
   0315 00                 1019 	.db #0x00
   0316 00                 1020 	.db #0x00
   0317 00                 1021 	.db #0x00
   0318 00                 1022 	.db #0x00
   0319 00                 1023 	.db #0x00
   031A 00                 1024 	.db #0x00
   031B FE                 1025 	.db #0xFE
   031C FE                 1026 	.db #0xFE
   031D 00                 1027 	.db #0x00
   031E 00                 1028 	.db #0x00
   031F                    1029 _blank_screen:
   031F 30                 1030 	.db #0x30
   0320 30                 1031 	.db #0x30
   0321 30                 1032 	.db #0x30
   0322 30                 1033 	.db #0x30
   0323 30                 1034 	.db #0x30
   0324 30                 1035 	.db #0x30
   0325 30                 1036 	.db #0x30
   0326 30                 1037 	.db #0x30
   0327 30                 1038 	.db #0x30
   0328 30                 1039 	.db #0x30
   0329 30                 1040 	.db #0x30
   032A 30                 1041 	.db #0x30
   032B 30                 1042 	.db #0x30
   032C 30                 1043 	.db #0x30
   032D 30                 1044 	.db #0x30
   032E 30                 1045 	.db #0x30
   032F 30                 1046 	.db #0x30
   0330 30                 1047 	.db #0x30
   0331 30                 1048 	.db #0x30
   0332 30                 1049 	.db #0x30
   0333 30                 1050 	.db #0x30
   0334 30                 1051 	.db #0x30
   0335 30                 1052 	.db #0x30
   0336 30                 1053 	.db #0x30
   0337 30                 1054 	.db #0x30
   0338 30                 1055 	.db #0x30
   0339 30                 1056 	.db #0x30
   033A 30                 1057 	.db #0x30
   033B 30                 1058 	.db #0x30
   033C 30                 1059 	.db #0x30
   033D 30                 1060 	.db #0x30
   033E 30                 1061 	.db #0x30
   033F 30                 1062 	.db #0x30
   0340 30                 1063 	.db #0x30
   0341 30                 1064 	.db #0x30
   0342 30                 1065 	.db #0x30
   0343 30                 1066 	.db #0x30
   0344 30                 1067 	.db #0x30
   0345 30                 1068 	.db #0x30
   0346 30                 1069 	.db #0x30
   0347 30                 1070 	.db #0x30
   0348 30                 1071 	.db #0x30
   0349 30                 1072 	.db #0x30
   034A 30                 1073 	.db #0x30
   034B 30                 1074 	.db #0x30
   034C 30                 1075 	.db #0x30
   034D 30                 1076 	.db #0x30
   034E 30                 1077 	.db #0x30
   034F 30                 1078 	.db #0x30
   0350 30                 1079 	.db #0x30
   0351 30                 1080 	.db #0x30
   0352 30                 1081 	.db #0x30
   0353 30                 1082 	.db #0x30
   0354 30                 1083 	.db #0x30
   0355 30                 1084 	.db #0x30
   0356 30                 1085 	.db #0x30
   0357 30                 1086 	.db #0x30
   0358 30                 1087 	.db #0x30
   0359 30                 1088 	.db #0x30
   035A 30                 1089 	.db #0x30
   035B 30                 1090 	.db #0x30
   035C 30                 1091 	.db #0x30
   035D 30                 1092 	.db #0x30
   035E 30                 1093 	.db #0x30
   035F 30                 1094 	.db #0x30
   0360 30                 1095 	.db #0x30
   0361 30                 1096 	.db #0x30
   0362 30                 1097 	.db #0x30
   0363 30                 1098 	.db #0x30
   0364 30                 1099 	.db #0x30
   0365 30                 1100 	.db #0x30
   0366 30                 1101 	.db #0x30
   0367 30                 1102 	.db #0x30
   0368 30                 1103 	.db #0x30
   0369 30                 1104 	.db #0x30
   036A 30                 1105 	.db #0x30
   036B 30                 1106 	.db #0x30
   036C 30                 1107 	.db #0x30
   036D 30                 1108 	.db #0x30
   036E 30                 1109 	.db #0x30
   036F 30                 1110 	.db #0x30
   0370 30                 1111 	.db #0x30
   0371 30                 1112 	.db #0x30
   0372 30                 1113 	.db #0x30
   0373 30                 1114 	.db #0x30
   0374 30                 1115 	.db #0x30
   0375 30                 1116 	.db #0x30
   0376 30                 1117 	.db #0x30
   0377 30                 1118 	.db #0x30
   0378 30                 1119 	.db #0x30
   0379 30                 1120 	.db #0x30
   037A 30                 1121 	.db #0x30
   037B 30                 1122 	.db #0x30
   037C 30                 1123 	.db #0x30
   037D 30                 1124 	.db #0x30
   037E 30                 1125 	.db #0x30
   037F 30                 1126 	.db #0x30
   0380 30                 1127 	.db #0x30
   0381 30                 1128 	.db #0x30
   0382 30                 1129 	.db #0x30
   0383 30                 1130 	.db #0x30
   0384 30                 1131 	.db #0x30
   0385 30                 1132 	.db #0x30
   0386 30                 1133 	.db #0x30
   0387 30                 1134 	.db #0x30
   0388 30                 1135 	.db #0x30
   0389 30                 1136 	.db #0x30
   038A 30                 1137 	.db #0x30
   038B 30                 1138 	.db #0x30
   038C 30                 1139 	.db #0x30
   038D 30                 1140 	.db #0x30
   038E 30                 1141 	.db #0x30
   038F 30                 1142 	.db #0x30
   0390 30                 1143 	.db #0x30
   0391 30                 1144 	.db #0x30
   0392 30                 1145 	.db #0x30
   0393 30                 1146 	.db #0x30
   0394 30                 1147 	.db #0x30
   0395 30                 1148 	.db #0x30
   0396 30                 1149 	.db #0x30
   0397 30                 1150 	.db #0x30
   0398 30                 1151 	.db #0x30
   0399 30                 1152 	.db #0x30
   039A 30                 1153 	.db #0x30
   039B 30                 1154 	.db #0x30
   039C 30                 1155 	.db #0x30
   039D 30                 1156 	.db #0x30
   039E 30                 1157 	.db #0x30
   039F 30                 1158 	.db #0x30
   03A0 30                 1159 	.db #0x30
   03A1 30                 1160 	.db #0x30
   03A2 30                 1161 	.db #0x30
   03A3 30                 1162 	.db #0x30
   03A4 30                 1163 	.db #0x30
   03A5 30                 1164 	.db #0x30
   03A6 30                 1165 	.db #0x30
   03A7 30                 1166 	.db #0x30
   03A8 30                 1167 	.db #0x30
   03A9 30                 1168 	.db #0x30
   03AA 30                 1169 	.db #0x30
   03AB 30                 1170 	.db #0x30
   03AC 30                 1171 	.db #0x30
   03AD 30                 1172 	.db #0x30
   03AE 30                 1173 	.db #0x30
   03AF 30                 1174 	.db #0x30
   03B0 30                 1175 	.db #0x30
   03B1 30                 1176 	.db #0x30
   03B2 30                 1177 	.db #0x30
   03B3 30                 1178 	.db #0x30
   03B4 30                 1179 	.db #0x30
   03B5 30                 1180 	.db #0x30
   03B6 30                 1181 	.db #0x30
   03B7 30                 1182 	.db #0x30
   03B8 30                 1183 	.db #0x30
   03B9 30                 1184 	.db #0x30
   03BA 30                 1185 	.db #0x30
   03BB 30                 1186 	.db #0x30
   03BC 30                 1187 	.db #0x30
   03BD 30                 1188 	.db #0x30
   03BE 30                 1189 	.db #0x30
   03BF 30                 1190 	.db #0x30
   03C0 30                 1191 	.db #0x30
   03C1 30                 1192 	.db #0x30
   03C2 30                 1193 	.db #0x30
   03C3 30                 1194 	.db #0x30
   03C4 30                 1195 	.db #0x30
   03C5 30                 1196 	.db #0x30
   03C6 30                 1197 	.db #0x30
   03C7 30                 1198 	.db #0x30
   03C8 30                 1199 	.db #0x30
   03C9 30                 1200 	.db #0x30
   03CA 30                 1201 	.db #0x30
   03CB 30                 1202 	.db #0x30
   03CC 30                 1203 	.db #0x30
   03CD 30                 1204 	.db #0x30
   03CE 30                 1205 	.db #0x30
   03CF 30                 1206 	.db #0x30
   03D0 30                 1207 	.db #0x30
   03D1 30                 1208 	.db #0x30
   03D2 30                 1209 	.db #0x30
   03D3 30                 1210 	.db #0x30
   03D4 30                 1211 	.db #0x30
   03D5 30                 1212 	.db #0x30
   03D6 30                 1213 	.db #0x30
   03D7 30                 1214 	.db #0x30
   03D8 30                 1215 	.db #0x30
   03D9 30                 1216 	.db #0x30
   03DA 30                 1217 	.db #0x30
   03DB 30                 1218 	.db #0x30
   03DC 30                 1219 	.db #0x30
   03DD 30                 1220 	.db #0x30
   03DE 30                 1221 	.db #0x30
   03DF 30                 1222 	.db #0x30
   03E0 30                 1223 	.db #0x30
   03E1 30                 1224 	.db #0x30
   03E2 30                 1225 	.db #0x30
   03E3 30                 1226 	.db #0x30
   03E4 30                 1227 	.db #0x30
   03E5 30                 1228 	.db #0x30
   03E6 30                 1229 	.db #0x30
   03E7 30                 1230 	.db #0x30
   03E8 30                 1231 	.db #0x30
   03E9 30                 1232 	.db #0x30
   03EA 30                 1233 	.db #0x30
   03EB 30                 1234 	.db #0x30
   03EC 30                 1235 	.db #0x30
   03ED 30                 1236 	.db #0x30
   03EE 30                 1237 	.db #0x30
   03EF 30                 1238 	.db #0x30
   03F0 30                 1239 	.db #0x30
   03F1 30                 1240 	.db #0x30
   03F2 30                 1241 	.db #0x30
   03F3 30                 1242 	.db #0x30
   03F4 30                 1243 	.db #0x30
   03F5 30                 1244 	.db #0x30
   03F6 30                 1245 	.db #0x30
   03F7 30                 1246 	.db #0x30
   03F8 30                 1247 	.db #0x30
   03F9 30                 1248 	.db #0x30
   03FA 30                 1249 	.db #0x30
   03FB 30                 1250 	.db #0x30
   03FC 30                 1251 	.db #0x30
   03FD 30                 1252 	.db #0x30
   03FE 30                 1253 	.db #0x30
   03FF 30                 1254 	.db #0x30
   0400 30                 1255 	.db #0x30
   0401 30                 1256 	.db #0x30
   0402 30                 1257 	.db #0x30
   0403 30                 1258 	.db #0x30
   0404 30                 1259 	.db #0x30
   0405 30                 1260 	.db #0x30
   0406 30                 1261 	.db #0x30
   0407 30                 1262 	.db #0x30
   0408 30                 1263 	.db #0x30
   0409 30                 1264 	.db #0x30
   040A 30                 1265 	.db #0x30
   040B 30                 1266 	.db #0x30
   040C 30                 1267 	.db #0x30
   040D 30                 1268 	.db #0x30
   040E 30                 1269 	.db #0x30
   040F 30                 1270 	.db #0x30
   0410 30                 1271 	.db #0x30
   0411 30                 1272 	.db #0x30
   0412 30                 1273 	.db #0x30
   0413 30                 1274 	.db #0x30
   0414 30                 1275 	.db #0x30
   0415 30                 1276 	.db #0x30
   0416 30                 1277 	.db #0x30
   0417 30                 1278 	.db #0x30
   0418 30                 1279 	.db #0x30
   0419 30                 1280 	.db #0x30
   041A 30                 1281 	.db #0x30
   041B 30                 1282 	.db #0x30
   041C 30                 1283 	.db #0x30
   041D 30                 1284 	.db #0x30
   041E 30                 1285 	.db #0x30
   041F 30                 1286 	.db #0x30
   0420 30                 1287 	.db #0x30
   0421 30                 1288 	.db #0x30
   0422 30                 1289 	.db #0x30
   0423 30                 1290 	.db #0x30
   0424 30                 1291 	.db #0x30
   0425 30                 1292 	.db #0x30
   0426 30                 1293 	.db #0x30
   0427 30                 1294 	.db #0x30
   0428 30                 1295 	.db #0x30
   0429 30                 1296 	.db #0x30
   042A 30                 1297 	.db #0x30
   042B 30                 1298 	.db #0x30
   042C 30                 1299 	.db #0x30
   042D 30                 1300 	.db #0x30
   042E 30                 1301 	.db #0x30
   042F 30                 1302 	.db #0x30
   0430 30                 1303 	.db #0x30
   0431 30                 1304 	.db #0x30
   0432 30                 1305 	.db #0x30
   0433 30                 1306 	.db #0x30
   0434 30                 1307 	.db #0x30
   0435 30                 1308 	.db #0x30
   0436 30                 1309 	.db #0x30
   0437 30                 1310 	.db #0x30
   0438 30                 1311 	.db #0x30
   0439 30                 1312 	.db #0x30
   043A 30                 1313 	.db #0x30
   043B 30                 1314 	.db #0x30
   043C 30                 1315 	.db #0x30
   043D 30                 1316 	.db #0x30
   043E 30                 1317 	.db #0x30
   043F 30                 1318 	.db #0x30
   0440 30                 1319 	.db #0x30
   0441 30                 1320 	.db #0x30
   0442 30                 1321 	.db #0x30
   0443 30                 1322 	.db #0x30
   0444 30                 1323 	.db #0x30
   0445 30                 1324 	.db #0x30
   0446 30                 1325 	.db #0x30
   0447 30                 1326 	.db #0x30
   0448 30                 1327 	.db #0x30
   0449 30                 1328 	.db #0x30
   044A 30                 1329 	.db #0x30
   044B 30                 1330 	.db #0x30
   044C 30                 1331 	.db #0x30
   044D 30                 1332 	.db #0x30
   044E 30                 1333 	.db #0x30
   044F 30                 1334 	.db #0x30
   0450 30                 1335 	.db #0x30
   0451 30                 1336 	.db #0x30
   0452 30                 1337 	.db #0x30
   0453 30                 1338 	.db #0x30
   0454 30                 1339 	.db #0x30
   0455 30                 1340 	.db #0x30
   0456 30                 1341 	.db #0x30
   0457 30                 1342 	.db #0x30
   0458 30                 1343 	.db #0x30
   0459 30                 1344 	.db #0x30
   045A 30                 1345 	.db #0x30
   045B 30                 1346 	.db #0x30
   045C 30                 1347 	.db #0x30
   045D 30                 1348 	.db #0x30
   045E 30                 1349 	.db #0x30
   045F 30                 1350 	.db #0x30
   0460 30                 1351 	.db #0x30
   0461 30                 1352 	.db #0x30
   0462 30                 1353 	.db #0x30
   0463 30                 1354 	.db #0x30
   0464 30                 1355 	.db #0x30
   0465 30                 1356 	.db #0x30
   0466 30                 1357 	.db #0x30
   0467 30                 1358 	.db #0x30
   0468 30                 1359 	.db #0x30
   0469 30                 1360 	.db #0x30
   046A 30                 1361 	.db #0x30
   046B 30                 1362 	.db #0x30
   046C 30                 1363 	.db #0x30
   046D 30                 1364 	.db #0x30
   046E 30                 1365 	.db #0x30
   046F 30                 1366 	.db #0x30
   0470 30                 1367 	.db #0x30
   0471 30                 1368 	.db #0x30
   0472 30                 1369 	.db #0x30
   0473 30                 1370 	.db #0x30
   0474 30                 1371 	.db #0x30
   0475 30                 1372 	.db #0x30
   0476 30                 1373 	.db #0x30
   0477 30                 1374 	.db #0x30
   0478 30                 1375 	.db #0x30
   0479 30                 1376 	.db #0x30
   047A 30                 1377 	.db #0x30
   047B 30                 1378 	.db #0x30
   047C 30                 1379 	.db #0x30
   047D 30                 1380 	.db #0x30
   047E 30                 1381 	.db #0x30
   047F 30                 1382 	.db #0x30
   0480 30                 1383 	.db #0x30
   0481 30                 1384 	.db #0x30
   0482 30                 1385 	.db #0x30
   0483 30                 1386 	.db #0x30
   0484 30                 1387 	.db #0x30
   0485 30                 1388 	.db #0x30
   0486 30                 1389 	.db #0x30
   0487                    1390 _numbers:
   0487 00                 1391 	.db #0x00
   0488 01                 1392 	.db #0x01
   0489 02                 1393 	.db #0x02
   048A 03                 1394 	.db #0x03
   048B 04                 1395 	.db #0x04
   048C 05                 1396 	.db #0x05
   048D 06                 1397 	.db #0x06
   048E 07                 1398 	.db #0x07
   048F 08                 1399 	.db #0x08
   0490 09                 1400 	.db #0x09
   0491                    1401 _goop_sprite_data:
   0491 7F                 1402 	.db #0x7F
   0492 7F                 1403 	.db #0x7F
   0493 FF                 1404 	.db #0xFF
   0494 C0                 1405 	.db #0xC0
   0495 FF                 1406 	.db #0xFF
   0496 81                 1407 	.db #0x81
   0497 FF                 1408 	.db #0xFF
   0498 87                 1409 	.db #0x87
   0499 FF                 1410 	.db #0xFF
   049A 8F                 1411 	.db #0x8F
   049B FF                 1412 	.db #0xFF
   049C 99                 1413 	.db #0x99
   049D FF                 1414 	.db #0xFF
   049E 99                 1415 	.db #0x99
   049F FF                 1416 	.db #0xFF
   04A0 8F                 1417 	.db #0x8F
   04A1 FF                 1418 	.db #0xFF
   04A2 87                 1419 	.db #0x87
   04A3 FF                 1420 	.db #0xFF
   04A4 81                 1421 	.db #0x81
   04A5 FF                 1422 	.db #0xFF
   04A6 81                 1423 	.db #0x81
   04A7 FF                 1424 	.db #0xFF
   04A8 8F                 1425 	.db #0x8F
   04A9 FF                 1426 	.db #0xFF
   04AA 8F                 1427 	.db #0x8F
   04AB FF                 1428 	.db #0xFF
   04AC 81                 1429 	.db #0x81
   04AD FF                 1430 	.db #0xFF
   04AE C0                 1431 	.db #0xC0
   04AF 7F                 1432 	.db #0x7F
   04B0 7F                 1433 	.db #0x7F
   04B1 FE                 1434 	.db #0xFE
   04B2 FE                 1435 	.db #0xFE
   04B3 FF                 1436 	.db #0xFF
   04B4 03                 1437 	.db #0x03
   04B5 FF                 1438 	.db #0xFF
   04B6 81                 1439 	.db #0x81
   04B7 FF                 1440 	.db #0xFF
   04B8 F1                 1441 	.db #0xF1
   04B9 FF                 1442 	.db #0xFF
   04BA F1                 1443 	.db #0xF1
   04BB FF                 1444 	.db #0xFF
   04BC 81                 1445 	.db #0x81
   04BD FF                 1446 	.db #0xFF
   04BE 81                 1447 	.db #0x81
   04BF FF                 1448 	.db #0xFF
   04C0 C1                 1449 	.db #0xC1
   04C1 FF                 1450 	.db #0xFF
   04C2 F1                 1451 	.db #0xF1
   04C3 FF                 1452 	.db #0xFF
   04C4 99                 1453 	.db #0x99
   04C5 FF                 1454 	.db #0xFF
   04C6 99                 1455 	.db #0x99
   04C7 FF                 1456 	.db #0xFF
   04C8 F1                 1457 	.db #0xF1
   04C9 FF                 1458 	.db #0xFF
   04CA E1                 1459 	.db #0xE1
   04CB FF                 1460 	.db #0xFF
   04CC 81                 1461 	.db #0x81
   04CD FF                 1462 	.db #0xFF
   04CE 03                 1463 	.db #0x03
   04CF FE                 1464 	.db #0xFE
   04D0 FE                 1465 	.db #0xFE
   04D1                    1466 _FRAME_RATE:
   04D1 3C 00              1467 	.dw #0x003C
   04D3                    1468 _INITIAL_LIVES:
   04D3 03 00              1469 	.dw #0x0003
   04D5                    1470 _disable_momentum:
   04D5 00 00              1471 	.dw #0x0000
   04D7                    1472 _goop_sprites:
   04D7 00 00              1473 	.dw #0x0000
   04D9 01 00              1474 	.dw #0x0001
   04DB                    1475 _goop_speed:
   04DB 03 00              1476 	.dw #0x0003
                           1477 ;	goop.c 48
                           1478 ;	genLabel
                           1479 ;	genFunction
                           1480 ;	---------------------------------
                           1481 ; Function set_goop
                           1482 ; ---------------------------------
   04DD                    1483 ___set_goop_start:
   04DD                    1484 _set_goop:
   04DD E8 F7              1485 	lda	sp,-9(sp)
                           1486 ;	goop.c 50
                           1487 ;	genRightShift
                           1488 ;	AOP_HL for _SCREEN_WIDTH
   04DF 21 00 00           1489 	ld	hl,#_SCREEN_WIDTH
   04E2 4E                 1490 	ld	c,(hl)
   04E3 23                 1491 	inc	hl
   04E4 46                 1492 	ld	b,(hl)
   04E5 CB 38              1493 	srl	b
   04E7 CB 19              1494 	rr	c
                           1495 ;	genCast
                           1496 ; Removed redundent load
                           1497 ;	genAssign (pointer)
   04E9 11 19 00           1498 	ld	de,#_goop_coords
   04EC 79                 1499 	ld	a,c
   04ED 12                 1500 	ld	(de),a
                           1501 ;	goop.c 51
                           1502 ;	genPlus
                           1503 ;	AOP_STK for _set_goop_sloc0_1_0
                           1504 ;	genPlusIncr
                           1505 ;	Can't optimise plus by inc, falling back to the normal way
   04EE 11 19 00           1506 	ld	de,#_goop_coords
   04F1 21 01 00           1507 	ld	hl,#0x0001
   04F4 19                 1508 	add	hl,de
   04F5 7D                 1509 	ld	a,l
   04F6 54                 1510 	ld	d,h
   04F7 F8 07              1511 	lda	hl,7(sp)
   04F9 22                 1512 	ld	(hl+),a
   04FA 72                 1513 	ld	(hl),d
                           1514 ;	genRightShift
                           1515 ;	AOP_HL for _SCREEN_HEIGHT
                           1516 ;	AOP_STK for _set_goop_sloc1_1_0
   04FB 21 02 00           1517 	ld	hl,#_SCREEN_HEIGHT
   04FE 7E                 1518 	ld	a,(hl)
   04FF F8 05              1519 	lda	hl,5(sp)
   0501 77                 1520 	ld	(hl),a
   0502 21 03 00           1521 	ld	hl,#_SCREEN_HEIGHT + 1
   0505 7E                 1522 	ld	a,(hl)
   0506 F8 06              1523 	lda	hl,6(sp)
   0508 77                 1524 	ld	(hl),a
   0509 CB 3E              1525 	srl	(hl)
   050B 2B                 1526 	dec	hl
   050C CB 1E              1527 	rr	(hl)
                           1528 ;	genCast
                           1529 ;	AOP_STK for _set_goop_sloc1_1_0
   050E 46                 1530 	ld	b,(hl)
                           1531 ;	genAssign (pointer)
                           1532 ;	AOP_STK for _set_goop_sloc0_1_0
   050F 23                 1533 	inc	hl
   0510 23                 1534 	inc	hl
   0511 5E                 1535 	ld	e,(hl)
   0512 23                 1536 	inc	hl
   0513 56                 1537 	ld	d,(hl)
   0514 78                 1538 	ld	a,b
   0515 12                 1539 	ld	(de),a
                           1540 ;	goop.c 53
                           1541 ;	genIpush
                           1542 ; _saveRegsForCall: sendSetSize: 0 deInUse: 0 bcInUse: 1 deSending: 0
   0516 C5                 1543 	push	bc
   0517 21 91 04           1544 	ld	hl,#_goop_sprite_data
   051A E5                 1545 	push	hl
                           1546 ;	genIpush
   051B 21 00 08           1547 	ld	hl,#0x0800
   051E E5                 1548 	push	hl
                           1549 ;	genCall
   051F CD 00 00           1550 	call	_set_sprite_data
   0522 E8 04              1551 	lda	sp,4(sp)
   0524 C1                 1552 	pop	bc
                           1553 ;	goop.c 54
                           1554 ;	genPointerGet
                           1555 ;	AOP_STK for _set_goop_sloc1_1_0
   0525 11 D7 04           1556 	ld	de,#_goop_sprites
   0528 1A                 1557 	ld	a,(de)
   0529 F8 05              1558 	lda	hl,5(sp)
   052B 77                 1559 	ld	(hl),a
   052C 13                 1560 	inc	de
   052D 1A                 1561 	ld	a,(de)
   052E 23                 1562 	inc	hl
                           1563 ;	genCast
                           1564 ;	AOP_STK for _set_goop_sloc1_1_0
                           1565 ;	AOP_STK for _set_goop_sloc0_1_0
   052F 32                 1566 	ld      (hl-),a
   0530 2A                 1567 	ld	a,(hl+)
   0531 23                 1568 	inc	hl
   0532 77                 1569 	ld	(hl),a
                           1570 ;	genIpush
                           1571 ; _saveRegsForCall: sendSetSize: 0 deInUse: 0 bcInUse: 1 deSending: 0
   0533 C5                 1572 	push	bc
   0534 3E 00              1573 	ld	a,#0x00
   0536 F5                 1574 	push	af
   0537 33                 1575 	inc	sp
                           1576 ;	genIpush
                           1577 ;	AOP_STK for _set_goop_sloc0_1_0
   0538 7E                 1578 	ld	a,(hl)
   0539 F5                 1579 	push	af
   053A 33                 1580 	inc	sp
                           1581 ;	genCall
   053B CD 00 00           1582 	call	_set_sprite_tile
   053E E8 02              1583 	lda	sp,2(sp)
   0540 C1                 1584 	pop	bc
                           1585 ;	goop.c 55
                           1586 ;	genPlus
                           1587 ;	AOP_STK for _set_goop_sloc1_1_0
                           1588 ;	genPlusIncr
                           1589 ;	Can't optimise plus by inc, falling back to the normal way
   0541 11 D7 04           1590 	ld	de,#_goop_sprites
   0544 21 02 00           1591 	ld	hl,#0x0002
   0547 19                 1592 	add	hl,de
   0548 7D                 1593 	ld	a,l
   0549 54                 1594 	ld	d,h
   054A F8 05              1595 	lda	hl,5(sp)
                           1596 ;	genPointerGet
                           1597 ;	AOP_STK for _set_goop_sloc1_1_0
                           1598 ;	AOP_STK for _set_goop_sloc0_1_0
   054C 22                 1599 	ld	(hl+),a
   054D 72                 1600 	ld	(hl),d
   054E 5F                 1601 	ld	e,a
   054F 1A                 1602 	ld	a,(de)
   0550 23                 1603 	inc	hl
   0551 77                 1604 	ld	(hl),a
   0552 13                 1605 	inc	de
   0553 1A                 1606 	ld	a,(de)
   0554 23                 1607 	inc	hl
                           1608 ;	genCast
                           1609 ;	AOP_STK for _set_goop_sloc0_1_0
                           1610 ;	AOP_STK for _set_goop_sloc2_1_0
   0555 32                 1611 	ld      (hl-),a
   0556 7E                 1612 	ld	a,(hl)
   0557 F8 04              1613 	lda	hl,4(sp)
   0559 77                 1614 	ld	(hl),a
                           1615 ;	genIpush
                           1616 ; _saveRegsForCall: sendSetSize: 0 deInUse: 0 bcInUse: 1 deSending: 0
   055A C5                 1617 	push	bc
   055B 3E 02              1618 	ld	a,#0x02
   055D F5                 1619 	push	af
   055E 33                 1620 	inc	sp
                           1621 ;	genIpush
                           1622 ;	AOP_STK for _set_goop_sloc2_1_0
   055F 7E                 1623 	ld	a,(hl)
   0560 F5                 1624 	push	af
   0561 33                 1625 	inc	sp
                           1626 ;	genCall
   0562 CD 00 00           1627 	call	_set_sprite_tile
   0565 E8 02              1628 	lda	sp,2(sp)
   0567 C1                 1629 	pop	bc
                           1630 ;	goop.c 56
                           1631 ;	genPointerGet
                           1632 ;	AOP_STK for _set_goop_sloc0_1_0
   0568 11 D7 04           1633 	ld	de,#_goop_sprites
   056B 1A                 1634 	ld	a,(de)
   056C F8 07              1635 	lda	hl,7(sp)
   056E 77                 1636 	ld	(hl),a
   056F 13                 1637 	inc	de
   0570 1A                 1638 	ld	a,(de)
   0571 23                 1639 	inc	hl
                           1640 ;	genCast
                           1641 ;	AOP_STK for _set_goop_sloc0_1_0
                           1642 ;	AOP_STK for _set_goop_sloc2_1_0
   0572 32                 1643 	ld      (hl-),a
   0573 7E                 1644 	ld	a,(hl)
   0574 F8 04              1645 	lda	hl,4(sp)
   0576 77                 1646 	ld	(hl),a
                           1647 ;	genIpush
                           1648 ; _saveRegsForCall: sendSetSize: 0 deInUse: 0 bcInUse: 1 deSending: 0
   0577 C5                 1649 	push	bc
   0578 78                 1650 	ld	a,b
   0579 F5                 1651 	push	af
   057A 33                 1652 	inc	sp
                           1653 ;	genIpush
   057B 79                 1654 	ld	a,c
   057C F5                 1655 	push	af
   057D 33                 1656 	inc	sp
                           1657 ;	genIpush
                           1658 ;	AOP_STK for _set_goop_sloc2_1_0
   057E 7E                 1659 	ld	a,(hl)
   057F F5                 1660 	push	af
   0580 33                 1661 	inc	sp
                           1662 ;	genCall
   0581 CD 00 00           1663 	call	_move_sprite
   0584 E8 03              1664 	lda	sp,3(sp)
   0586 C1                 1665 	pop	bc
                           1666 ;	goop.c 57
                           1667 ;	genRightShift
                           1668 ;	AOP_HL for _SPRITE_SIZE
                           1669 ;	AOP_STK for _set_goop_sloc0_1_0
   0587 21 04 00           1670 	ld	hl,#_SPRITE_SIZE
   058A 7E                 1671 	ld	a,(hl)
   058B F8 07              1672 	lda	hl,7(sp)
   058D 77                 1673 	ld	(hl),a
   058E 21 05 00           1674 	ld	hl,#_SPRITE_SIZE + 1
   0591 7E                 1675 	ld	a,(hl)
   0592 F8 08              1676 	lda	hl,8(sp)
   0594 77                 1677 	ld	(hl),a
   0595 CB 3E              1678 	srl	(hl)
   0597 2B                 1679 	dec	hl
   0598 CB 1E              1680 	rr	(hl)
                           1681 ;	genCast
                           1682 ;	AOP_STK for _set_goop_sloc3_1_0
   059A F8 02              1683 	lda	hl,2(sp)
   059C 71                 1684 	ld	(hl),c
   059D 23                 1685 	inc	hl
   059E 36 00              1686 	ld	(hl),#0x00
                           1687 ;	genPlus
                           1688 ;	AOP_STK for _set_goop_sloc3_1_0
                           1689 ;	AOP_STK for _set_goop_sloc0_1_0
                           1690 ;	AOP_STK for _set_goop_sloc4_1_0
                           1691 ;	Can't optimise plus by inc, falling back to the normal way
   05A0 2B                 1692 	dec	hl
   05A1 5E                 1693 	ld	e,(hl)
   05A2 23                 1694 	inc	hl
   05A3 56                 1695 	ld	d,(hl)
   05A4 F8 07              1696 	lda	hl,7(sp)
   05A6 2A                 1697 	ld	a,(hl+)
   05A7 66                 1698 	ld	h,(hl)
   05A8 6F                 1699 	ld	l,a
   05A9 19                 1700 	add	hl,de
   05AA 7D                 1701 	ld	a,l
   05AB 54                 1702 	ld	d,h
   05AC F8 00              1703 	lda	hl,0(sp)
   05AE 22                 1704 	ld	(hl+),a
   05AF 72                 1705 	ld	(hl),d
                           1706 ;	genCast
                           1707 ;	AOP_STK for _set_goop_sloc4_1_0
   05B0 2B                 1708 	dec	hl
   05B1 4E                 1709 	ld	c,(hl)
                           1710 ;	genPointerGet
                           1711 ;	AOP_STK for _set_goop_sloc1_1_0
                           1712 ;	AOP_STK for _set_goop_sloc4_1_0
   05B2 F8 05              1713 	lda	hl,5(sp)
   05B4 5E                 1714 	ld	e,(hl)
   05B5 23                 1715 	inc	hl
   05B6 56                 1716 	ld	d,(hl)
   05B7 1A                 1717 	ld	a,(de)
   05B8 F8 00              1718 	lda	hl,0(sp)
   05BA 77                 1719 	ld	(hl),a
   05BB 13                 1720 	inc	de
   05BC 1A                 1721 	ld	a,(de)
   05BD 23                 1722 	inc	hl
                           1723 ;	genCast
                           1724 ;	AOP_STK for _set_goop_sloc4_1_0
                           1725 ;	AOP_STK for _set_goop_sloc3_1_0
   05BE 32                 1726 	ld      (hl-),a
   05BF 2A                 1727 	ld	a,(hl+)
   05C0 23                 1728 	inc	hl
   05C1 77                 1729 	ld	(hl),a
                           1730 ;	genIpush
                           1731 ; _saveRegsForCall: sendSetSize: 0 deInUse: 0 bcInUse: 0 deSending: 0
   05C2 78                 1732 	ld	a,b
   05C3 F5                 1733 	push	af
   05C4 33                 1734 	inc	sp
                           1735 ;	genIpush
   05C5 79                 1736 	ld	a,c
   05C6 F5                 1737 	push	af
   05C7 33                 1738 	inc	sp
                           1739 ;	genIpush
                           1740 ;	AOP_STK for _set_goop_sloc3_1_0
   05C8 7E                 1741 	ld	a,(hl)
   05C9 F5                 1742 	push	af
   05CA 33                 1743 	inc	sp
                           1744 ;	genCall
   05CB CD 00 00           1745 	call	_move_sprite
   05CE E8 03              1746 	lda	sp,3(sp)
                           1747 ;	genLabel
   05D0                    1748 00101$:
                           1749 ;	genEndFunction
   05D0 E8 09              1750 	lda	sp,9(sp)
   05D2 C9                 1751 	ret
   05D3                    1752 ___set_goop_end:
                           1753 ;	goop.c 60
                           1754 ;	genLabel
                           1755 ;	genFunction
                           1756 ;	---------------------------------
                           1757 ; Function input
                           1758 ; ---------------------------------
   05D3                    1759 ___input_start:
   05D3                    1760 _input:
   05D3 E8 FC              1761 	lda	sp,-4(sp)
                           1762 ;	goop.c 63
                           1763 ;	genAnd
                           1764 ;	AOP_HL for _key
   05D5 21 06 00           1765 	ld	hl,#_key
   05D8 7E                 1766 	ld	a,(hl)
   05D9 E6 0F              1767 	and	a,#0x0F
   05DB 20 03              1768 	jr	nz,00126$
   05DD C3 AE 06           1769 	jp	00115$
   05E0                    1770 00126$:
                           1771 ;	goop.c 64
                           1772 ;	genAnd
                           1773 ;	AOP_HL for _key
   05E0 21 06 00           1774 	ld	hl,#_key
   05E3 7E                 1775 	ld	a,(hl)
   05E4 E6 02              1776 	and	a,#0x02
   05E6 20 03              1777 	jr	nz,00127$
   05E8 C3 22 06           1778 	jp	00102$
   05EB                    1779 00127$:
                           1780 ;	genIfx
                           1781 ;	AOP_HL for _left_wall_occupied
   05EB 21 11 00           1782 	ld	hl,#_left_wall_occupied
   05EE 2A                 1783 	ld	a,(hl+)
   05EF B6                 1784 	or	a,(hl)
   05F0 C2 22 06           1785 	jp	nz,00102$
                           1786 ;	goop.c 65
                           1787 ;	genAssign
                           1788 ;	AOP_HL for _goop_speed
   05F3 21 DB 04           1789 	ld	hl,#_goop_speed
   05F6 4E                 1790 	ld	c,(hl)
   05F7 23                 1791 	inc	hl
   05F8 46                 1792 	ld	b,(hl)
                           1793 ;	genMult
   05F9 59                 1794 	ld	e,c
   05FA 50                 1795 	ld	d,b
   05FB 6B                 1796 	ld	l,e
   05FC 62                 1797 	ld	h,d
   05FD 29                 1798 	add	hl,hl
   05FE 19                 1799 	add	hl,de
   05FF 29                 1800 	add	hl,hl
   0600 19                 1801 	add	hl,de
   0601 29                 1802 	add	hl,hl
   0602 19                 1803 	add	hl,de
   0603 29                 1804 	add	hl,hl
   0604 19                 1805 	add	hl,de
   0605 29                 1806 	add	hl,hl
   0606 19                 1807 	add	hl,de
   0607 29                 1808 	add	hl,hl
   0608 19                 1809 	add	hl,de
   0609 29                 1810 	add	hl,hl
   060A 19                 1811 	add	hl,de
   060B 29                 1812 	add	hl,hl
   060C 19                 1813 	add	hl,de
   060D 29                 1814 	add	hl,hl
   060E 19                 1815 	add	hl,de
   060F 29                 1816 	add	hl,hl
   0610 19                 1817 	add	hl,de
   0611 29                 1818 	add	hl,hl
   0612 19                 1819 	add	hl,de
   0613 29                 1820 	add	hl,hl
   0614 19                 1821 	add	hl,de
   0615 29                 1822 	add	hl,hl
   0616 19                 1823 	add	hl,de
   0617 29                 1824 	add	hl,hl
   0618 19                 1825 	add	hl,de
   0619 29                 1826 	add	hl,hl
   061A 19                 1827 	add	hl,de
   061B 4D                 1828 	ld	c,l
   061C 44                 1829 	ld	b,h
                           1830 ;	genCast
   061D 79                 1831 	ld	a,c
                           1832 ;	genAssign (pointer)
   061E 11 1B 00           1833 	ld	de,#_goop_vel
   0621 12                 1834 	ld	(de),a
                           1835 ;	genLabel
   0622                    1836 00102$:
                           1837 ;	goop.c 67
                           1838 ;	genAnd
                           1839 ;	AOP_HL for _key
   0622 21 06 00           1840 	ld	hl,#_key
   0625 7E                 1841 	ld	a,(hl)
   0626 E6 01              1842 	and	a,#0x01
   0628 20 03              1843 	jr	nz,00128$
   062A C3 40 06           1844 	jp	00105$
   062D                    1845 00128$:
                           1846 ;	genIfx
                           1847 ;	AOP_HL for _right_wall_occupied
   062D 21 13 00           1848 	ld	hl,#_right_wall_occupied
   0630 2A                 1849 	ld	a,(hl+)
   0631 B6                 1850 	or	a,(hl)
   0632 C2 40 06           1851 	jp	nz,00105$
                           1852 ;	goop.c 68
                           1853 ;	genAssign
                           1854 ;	AOP_HL for _goop_speed
   0635 21 DB 04           1855 	ld	hl,#_goop_speed
   0638 4E                 1856 	ld	c,(hl)
   0639 23                 1857 	inc	hl
   063A 46                 1858 	ld	b,(hl)
                           1859 ;	genCast
   063B 79                 1860 	ld	a,c
                           1861 ;	genAssign (pointer)
   063C 11 1B 00           1862 	ld	de,#_goop_vel
   063F 12                 1863 	ld	(de),a
                           1864 ;	genLabel
   0640                    1865 00105$:
                           1866 ;	goop.c 70
                           1867 ;	genAnd
                           1868 ;	AOP_HL for _key
   0640 21 06 00           1869 	ld	hl,#_key
   0643 7E                 1870 	ld	a,(hl)
   0644 E6 04              1871 	and	a,#0x04
   0646 20 03              1872 	jr	nz,00129$
   0648 C3 8C 06           1873 	jp	00108$
   064B                    1874 00129$:
                           1875 ;	genIfx
                           1876 ;	AOP_HL for _top_wall_occupied
   064B 21 15 00           1877 	ld	hl,#_top_wall_occupied
   064E 2A                 1878 	ld	a,(hl+)
   064F B6                 1879 	or	a,(hl)
   0650 C2 8C 06           1880 	jp	nz,00108$
                           1881 ;	goop.c 71
                           1882 ;	genPlus
                           1883 ;	genPlusIncr
   0653 01 1C 00           1884 	ld	bc,#_goop_vel + 1
                           1885 ;	genAssign
                           1886 ;	AOP_HL for _goop_speed
                           1887 ;	AOP_STK for _input_sloc0_1_0
   0656 21 DB 04           1888 	ld	hl,#_goop_speed
   0659 2A                 1889 	ld	a,(hl+)
   065A 5E                 1890 	ld	e,(hl)
   065B F8 02              1891 	lda	hl,2(sp)
   065D 22                 1892 	ld	(hl+),a
   065E 73                 1893 	ld	(hl),e
                           1894 ;	genMult
                           1895 ;	AOP_STK for _input_sloc0_1_0
                           1896 ;	AOP_STK for _input_sloc1_1_0
   065F 2B                 1897 	dec	hl
   0660 5E                 1898 	ld	e,(hl)
   0661 23                 1899 	inc	hl
   0662 56                 1900 	ld	d,(hl)
   0663 6B                 1901 	ld	l,e
   0664 62                 1902 	ld	h,d
   0665 29                 1903 	add	hl,hl
   0666 19                 1904 	add	hl,de
   0667 29                 1905 	add	hl,hl
   0668 19                 1906 	add	hl,de
   0669 29                 1907 	add	hl,hl
   066A 19                 1908 	add	hl,de
   066B 29                 1909 	add	hl,hl
   066C 19                 1910 	add	hl,de
   066D 29                 1911 	add	hl,hl
   066E 19                 1912 	add	hl,de
   066F 29                 1913 	add	hl,hl
   0670 19                 1914 	add	hl,de
   0671 29                 1915 	add	hl,hl
   0672 19                 1916 	add	hl,de
   0673 29                 1917 	add	hl,hl
   0674 19                 1918 	add	hl,de
   0675 29                 1919 	add	hl,hl
   0676 19                 1920 	add	hl,de
   0677 29                 1921 	add	hl,hl
   0678 19                 1922 	add	hl,de
   0679 29                 1923 	add	hl,hl
   067A 19                 1924 	add	hl,de
   067B 29                 1925 	add	hl,hl
   067C 19                 1926 	add	hl,de
   067D 29                 1927 	add	hl,hl
   067E 19                 1928 	add	hl,de
   067F 29                 1929 	add	hl,hl
   0680 19                 1930 	add	hl,de
   0681 29                 1931 	add	hl,hl
   0682 19                 1932 	add	hl,de
   0683 7D                 1933 	ld	a,l
   0684 54                 1934 	ld	d,h
   0685 F8 00              1935 	lda	hl,0(sp)
   0687 22                 1936 	ld	(hl+),a
   0688 72                 1937 	ld	(hl),d
                           1938 ;	genCast
                           1939 ;	AOP_STK for _input_sloc1_1_0
   0689 2B                 1940 	dec	hl
   068A 7E                 1941 	ld	a,(hl)
                           1942 ;	genAssign (pointer)
   068B 02                 1943 	ld	(bc),a
                           1944 ;	genLabel
   068C                    1945 00108$:
                           1946 ;	goop.c 73
                           1947 ;	genAnd
                           1948 ;	AOP_HL for _key
   068C 21 06 00           1949 	ld	hl,#_key
   068F 7E                 1950 	ld	a,(hl)
   0690 E6 08              1951 	and	a,#0x08
   0692 20 03              1952 	jr	nz,00130$
   0694 C3 AE 06           1953 	jp	00115$
   0697                    1954 00130$:
                           1955 ;	genIfx
                           1956 ;	AOP_HL for _bottom_wall_occupied
   0697 21 17 00           1957 	ld	hl,#_bottom_wall_occupied
   069A 2A                 1958 	ld	a,(hl+)
   069B B6                 1959 	or	a,(hl)
   069C C2 AE 06           1960 	jp	nz,00115$
                           1961 ;	goop.c 74
                           1962 ;	genPlus
                           1963 ;	genPlusIncr
   069F 01 1C 00           1964 	ld	bc,#_goop_vel + 1
                           1965 ;	genAssign
                           1966 ;	AOP_HL for _goop_speed
                           1967 ;	AOP_STK for _input_sloc1_1_0
   06A2 21 DB 04           1968 	ld	hl,#_goop_speed
   06A5 2A                 1969 	ld	a,(hl+)
   06A6 5E                 1970 	ld	e,(hl)
   06A7 F8 00              1971 	lda	hl,0(sp)
   06A9 22                 1972 	ld	(hl+),a
   06AA 73                 1973 	ld	(hl),e
                           1974 ;	genCast
                           1975 ;	AOP_STK for _input_sloc1_1_0
   06AB 2B                 1976 	dec	hl
   06AC 7E                 1977 	ld	a,(hl)
                           1978 ;	genAssign (pointer)
   06AD 02                 1979 	ld	(bc),a
                           1980 ;	goop.c 78
                           1981 ;	genLabel
   06AE                    1982 00115$:
                           1983 ;	genEndFunction
   06AE E8 04              1984 	lda	sp,4(sp)
   06B0 C9                 1985 	ret
   06B1                    1986 ___input_end:
                           1987 ;	goop.c 82
                           1988 ;	genLabel
                           1989 ;	genFunction
                           1990 ;	---------------------------------
                           1991 ; Function physics
                           1992 ; ---------------------------------
   06B1                    1993 ___physics_start:
   06B1                    1994 _physics:
   06B1 E8 FC              1995 	lda	sp,-4(sp)
                           1996 ;	goop.c 85
                           1997 ;	genAssign
                           1998 ;	AOP_HL for _disable_momentum
   06B3 21 D5 04           1999 	ld	hl,#_disable_momentum
   06B6 4E                 2000 	ld	c,(hl)
   06B7 23                 2001 	inc	hl
   06B8 46                 2002 	ld	b,(hl)
                           2003 ;	genIfx
   06B9 79                 2004 	ld	a,c
   06BA B0                 2005 	or	a,b
   06BB CA 07 07           2006 	jp	z,00106$
                           2007 ;	goop.c 86
                           2008 ;	genAnd
                           2009 ;	AOP_HL for _key
   06BE 21 06 00           2010 	ld	hl,#_key
   06C1 7E                 2011 	ld	a,(hl)
   06C2 E6 03              2012 	and	a,#0x03
   06C4 20 03              2013 	jr	nz,00113$
   06C6 C3 D9 06           2014 	jp	00102$
   06C9                    2015 00113$:
                           2016 ;	goop.c 87
                           2017 ;	genPointerGet
   06C9 11 19 00           2018 	ld	de,#_goop_coords
   06CC 1A                 2019 	ld	a,(de)
   06CD 4F                 2020 	ld	c,a
                           2021 ;	genPointerGet
   06CE 11 1B 00           2022 	ld	de,#_goop_vel
   06D1 1A                 2023 	ld	a,(de)
   06D2 47                 2024 	ld	b,a
                           2025 ;	genPlus
                           2026 ;	Can't optimise plus by inc, falling back to the normal way
   06D3 79                 2027 	ld	a,c
   06D4 80                 2028 	add	a,b
                           2029 ;	genAssign (pointer)
   06D5 11 19 00           2030 	ld	de,#_goop_coords
   06D8 12                 2031 	ld	(de),a
                           2032 ;	genLabel
   06D9                    2033 00102$:
                           2034 ;	goop.c 89
                           2035 ;	genAnd
                           2036 ;	AOP_HL for _key
   06D9 21 06 00           2037 	ld	hl,#_key
   06DC 7E                 2038 	ld	a,(hl)
   06DD E6 0C              2039 	and	a,#0x0C
   06DF 20 03              2040 	jr	nz,00114$
   06E1 C3 36 07           2041 	jp	00108$
   06E4                    2042 00114$:
                           2043 ;	goop.c 90
                           2044 ;	genPlus
                           2045 ;	genPlusIncr
   06E4 01 1A 00           2046 	ld	bc,#_goop_coords + 1
                           2047 ;	genPointerGet
                           2048 ;	AOP_STK for _physics_sloc0_1_0
   06E7 0A                 2049 	ld	a,(bc)
   06E8 F8 03              2050 	lda	hl,3(sp)
   06EA 77                 2051 	ld	(hl),a
                           2052 ;	genPlus
                           2053 ;	AOP_STK for _physics_sloc1_1_0
                           2054 ;	genPlusIncr
                           2055 ;	Can't optimise plus by inc, falling back to the normal way
   06EB 11 1B 00           2056 	ld	de,#_goop_vel
   06EE 21 01 00           2057 	ld	hl,#0x0001
   06F1 19                 2058 	add	hl,de
   06F2 7D                 2059 	ld	a,l
   06F3 54                 2060 	ld	d,h
   06F4 F8 01              2061 	lda	hl,1(sp)
                           2062 ;	genPointerGet
                           2063 ;	AOP_STK for _physics_sloc1_1_0
                           2064 ;	AOP_STK for _physics_sloc2_1_0
   06F6 22                 2065 	ld	(hl+),a
   06F7 72                 2066 	ld	(hl),d
   06F8 5F                 2067 	ld	e,a
   06F9 1A                 2068 	ld	a,(de)
   06FA 2B                 2069 	dec	hl
   06FB 2B                 2070 	dec	hl
   06FC 77                 2071 	ld	(hl),a
                           2072 ;	genPlus
                           2073 ;	AOP_STK for _physics_sloc0_1_0
                           2074 ;	AOP_STK for _physics_sloc2_1_0
                           2075 ;	Can't optimise plus by inc, falling back to the normal way
   06FD F8 03              2076 	lda	hl,3(sp)
   06FF 7E                 2077 	ld	a,(hl)
   0700 F8 00              2078 	lda	hl,0(sp)
   0702 86                 2079 	add	a,(hl)
                           2080 ;	genAssign (pointer)
   0703 02                 2081 	ld	(bc),a
                           2082 ;	genGoto
   0704 C3 36 07           2083 	jp	00108$
                           2084 ;	genLabel
   0707                    2085 00106$:
                           2086 ;	goop.c 93
                           2087 ;	genPointerGet
   0707 11 19 00           2088 	ld	de,#_goop_coords
   070A 1A                 2089 	ld	a,(de)
   070B 4F                 2090 	ld	c,a
                           2091 ;	genPointerGet
   070C 11 1B 00           2092 	ld	de,#_goop_vel
   070F 1A                 2093 	ld	a,(de)
   0710 47                 2094 	ld	b,a
                           2095 ;	genPlus
                           2096 ;	Can't optimise plus by inc, falling back to the normal way
   0711 79                 2097 	ld	a,c
   0712 80                 2098 	add	a,b
                           2099 ;	genAssign (pointer)
   0713 11 19 00           2100 	ld	de,#_goop_coords
   0716 12                 2101 	ld	(de),a
                           2102 ;	goop.c 94
                           2103 ;	genPlus
                           2104 ;	genPlusIncr
   0717 01 1A 00           2105 	ld	bc,#_goop_coords + 1
                           2106 ;	genPointerGet
                           2107 ;	AOP_STK for _physics_sloc2_1_0
   071A 0A                 2108 	ld	a,(bc)
   071B F8 00              2109 	lda	hl,0(sp)
   071D 77                 2110 	ld	(hl),a
                           2111 ;	genPlus
                           2112 ;	AOP_STK for _physics_sloc1_1_0
                           2113 ;	genPlusIncr
                           2114 ;	Can't optimise plus by inc, falling back to the normal way
   071E 11 1B 00           2115 	ld	de,#_goop_vel
   0721 21 01 00           2116 	ld	hl,#0x0001
   0724 19                 2117 	add	hl,de
   0725 7D                 2118 	ld	a,l
   0726 54                 2119 	ld	d,h
   0727 F8 01              2120 	lda	hl,1(sp)
                           2121 ;	genPointerGet
                           2122 ;	AOP_STK for _physics_sloc1_1_0
                           2123 ;	AOP_STK for _physics_sloc0_1_0
   0729 22                 2124 	ld	(hl+),a
   072A 72                 2125 	ld	(hl),d
   072B 5F                 2126 	ld	e,a
   072C 1A                 2127 	ld	a,(de)
   072D 23                 2128 	inc	hl
   072E 77                 2129 	ld	(hl),a
                           2130 ;	genPlus
                           2131 ;	AOP_STK for _physics_sloc2_1_0
                           2132 ;	AOP_STK for _physics_sloc0_1_0
                           2133 ;	Can't optimise plus by inc, falling back to the normal way
   072F F8 00              2134 	lda	hl,0(sp)
   0731 7E                 2135 	ld	a,(hl)
   0732 F8 03              2136 	lda	hl,3(sp)
   0734 86                 2137 	add	a,(hl)
                           2138 ;	genAssign (pointer)
   0735 02                 2139 	ld	(bc),a
                           2140 ;	genLabel
   0736                    2141 00108$:
                           2142 ;	genEndFunction
   0736 E8 04              2143 	lda	sp,4(sp)
   0738 C9                 2144 	ret
   0739                    2145 ___physics_end:
                           2146 ;	goop.c 98
                           2147 ;	genLabel
                           2148 ;	genFunction
                           2149 ;	---------------------------------
                           2150 ; Function collide
                           2151 ; ---------------------------------
   0739                    2152 ___collide_start:
   0739                    2153 _collide:
   0739 E8 FA              2154 	lda	sp,-6(sp)
                           2155 ;	goop.c 99
                           2156 ;	genAssign
                           2157 ;	AOP_STK for _collide_stop_1_1
   073B F8 04              2158 	lda	hl,4(sp)
   073D 36 00              2159 	ld	(hl),#0x00
   073F 23                 2160 	inc	hl
   0740 36 00              2161 	ld	(hl),#0x00
                           2162 ;	goop.c 101
                           2163 ;	genAssign
                           2164 ;	AOP_HL for _left_wall_occupied
   0742 21 11 00           2165 	ld	hl,#_left_wall_occupied
   0745 36 00              2166 	ld	(hl),#0x00
   0747 23                 2167 	inc	hl
   0748 36 00              2168 	ld	(hl),#0x00
                           2169 ;	goop.c 102
                           2170 ;	genAssign
                           2171 ;	AOP_HL for _right_wall_occupied
   074A 21 13 00           2172 	ld	hl,#_right_wall_occupied
   074D 36 00              2173 	ld	(hl),#0x00
   074F 23                 2174 	inc	hl
   0750 36 00              2175 	ld	(hl),#0x00
                           2176 ;	goop.c 103
                           2177 ;	genAssign
                           2178 ;	AOP_HL for _top_wall_occupied
   0752 21 15 00           2179 	ld	hl,#_top_wall_occupied
   0755 36 00              2180 	ld	(hl),#0x00
   0757 23                 2181 	inc	hl
   0758 36 00              2182 	ld	(hl),#0x00
                           2183 ;	goop.c 104
                           2184 ;	genAssign
                           2185 ;	AOP_HL for _bottom_wall_occupied
   075A 21 17 00           2186 	ld	hl,#_bottom_wall_occupied
   075D 36 00              2187 	ld	(hl),#0x00
   075F 23                 2188 	inc	hl
   0760 36 00              2189 	ld	(hl),#0x00
                           2190 ;	goop.c 107
                           2191 ;	genPointerGet
   0762 11 19 00           2192 	ld	de,#_goop_coords
   0765 1A                 2193 	ld	a,(de)
   0766 4F                 2194 	ld	c,a
                           2195 ;	genRightShift
                           2196 ;	AOP_HL for _SPRITE_SIZE
                           2197 ;	AOP_STK for _collide_sloc0_1_0
   0767 21 04 00           2198 	ld	hl,#_SPRITE_SIZE
   076A 7E                 2199 	ld	a,(hl)
   076B F8 02              2200 	lda	hl,2(sp)
   076D 77                 2201 	ld	(hl),a
   076E 21 05 00           2202 	ld	hl,#_SPRITE_SIZE + 1
   0771 7E                 2203 	ld	a,(hl)
   0772 F8 03              2204 	lda	hl,3(sp)
   0774 77                 2205 	ld	(hl),a
   0775 CB 3E              2206 	srl	(hl)
   0777 2B                 2207 	dec	hl
   0778 CB 1E              2208 	rr	(hl)
                           2209 ;	genMinus
                           2210 ;	AOP_HL for _SCREEN_WIDTH
                           2211 ;	AOP_STK for _collide_sloc0_1_0
                           2212 ;	AOP_STK for _collide_sloc1_1_0
   077A 21 00 00           2213 	ld	hl,#_SCREEN_WIDTH
   077D 5E                 2214 	ld	e,(hl)
   077E 23                 2215 	inc	hl
   077F 56                 2216 	ld	d,(hl)
   0780 F8 02              2217 	lda	hl,2(sp)
   0782 2A                 2218 	ld	a,(hl+)
   0783 66                 2219 	ld	h,(hl)
   0784 6F                 2220 	ld	l,a
   0785 7B                 2221 	ld	a,e
   0786 95                 2222 	sub	a,l
   0787 5F                 2223 	ld	e,a
   0788 7A                 2224 	ld	a,d
   0789 9C                 2225 	sbc	a,h
   078A F8 01              2226 	lda	hl,1(sp)
   078C 32                 2227 	ld      (hl-),a
   078D 73                 2228 	ld	(hl),e
                           2229 ;	genCast
                           2230 ; Removed redundent load
   078E 06 00              2231 	ld	b,#0x00
                           2232 ;	genCmpLt
                           2233 ;	AOP_STK for _collide_sloc1_1_0
   0790 79                 2234 	ld	a,c
   0791 96                 2235 	sub	a,(hl)
   0792 78                 2236 	ld	a,b
   0793 23                 2237 	inc	hl
   0794 9E                 2238 	sbc	a,(hl)
   0795 DA A7 07           2239 	jp	c,00102$
                           2240 ;	goop.c 108
                           2241 ;	genAssign
                           2242 ;	AOP_STK for _collide_stop_1_1
   0798 F8 04              2243 	lda	hl,4(sp)
   079A 36 01              2244 	ld	(hl),#0x01
   079C 23                 2245 	inc	hl
   079D 36 00              2246 	ld	(hl),#0x00
                           2247 ;	goop.c 109
                           2248 ;	genAssign
                           2249 ;	AOP_HL for _right_wall_occupied
   079F 21 13 00           2250 	ld	hl,#_right_wall_occupied
   07A2 36 01              2251 	ld	(hl),#0x01
   07A4 23                 2252 	inc	hl
   07A5 36 00              2253 	ld	(hl),#0x00
                           2254 ;	genLabel
   07A7                    2255 00102$:
                           2256 ;	goop.c 111
                           2257 ;	genCmpGt
                           2258 ;	AOP_STK for _collide_sloc0_1_0
   07A7 F8 02              2259 	lda	hl,2(sp)
   07A9 7E                 2260 	ld	a,(hl)
   07AA 91                 2261 	sub	a,c
   07AB 23                 2262 	inc	hl
   07AC 7E                 2263 	ld	a,(hl)
   07AD 98                 2264 	sbc	a,b
   07AE DA BF 07           2265 	jp	c,00104$
                           2266 ;	goop.c 112
                           2267 ;	genAssign
                           2268 ;	AOP_STK for _collide_stop_1_1
   07B1 23                 2269 	inc	hl
   07B2 36 01              2270 	ld	(hl),#0x01
   07B4 23                 2271 	inc	hl
   07B5 36 00              2272 	ld	(hl),#0x00
                           2273 ;	goop.c 113
                           2274 ;	genAssign
                           2275 ;	AOP_HL for _left_wall_occupied
   07B7 21 11 00           2276 	ld	hl,#_left_wall_occupied
   07BA 36 01              2277 	ld	(hl),#0x01
   07BC 23                 2278 	inc	hl
   07BD 36 00              2279 	ld	(hl),#0x00
                           2280 ;	genLabel
   07BF                    2281 00104$:
                           2282 ;	goop.c 115
                           2283 ;	genPlus
                           2284 ;	genPlusIncr
   07BF 01 1A 00           2285 	ld	bc,#_goop_coords + 1
                           2286 ;	genPointerGet
   07C2 0A                 2287 	ld	a,(bc)
   07C3 4F                 2288 	ld	c,a
                           2289 ;	genCast
                           2290 ; Removed redundent load
   07C4 06 00              2291 	ld	b,#0x00
                           2292 ;	genCmpLt
                           2293 ;	AOP_HL for _SCREEN_HEIGHT
   07C6 79                 2294 	ld	a,c
   07C7 21 02 00           2295 	ld	hl,#_SCREEN_HEIGHT
   07CA 96                 2296 	sub	a,(hl)
   07CB 78                 2297 	ld	a,b
   07CC 23                 2298 	inc	hl
   07CD 9E                 2299 	sbc	a,(hl)
   07CE DA E0 07           2300 	jp	c,00106$
                           2301 ;	goop.c 116
                           2302 ;	genAssign
                           2303 ;	AOP_STK for _collide_stop_1_1
   07D1 F8 04              2304 	lda	hl,4(sp)
   07D3 36 01              2305 	ld	(hl),#0x01
   07D5 23                 2306 	inc	hl
   07D6 36 00              2307 	ld	(hl),#0x00
                           2308 ;	goop.c 117
                           2309 ;	genAssign
                           2310 ;	AOP_HL for _bottom_wall_occupied
   07D8 21 17 00           2311 	ld	hl,#_bottom_wall_occupied
   07DB 36 01              2312 	ld	(hl),#0x01
   07DD 23                 2313 	inc	hl
   07DE 36 00              2314 	ld	(hl),#0x00
                           2315 ;	genLabel
   07E0                    2316 00106$:
                           2317 ;	goop.c 119
                           2318 ;	genCmpGt
                           2319 ;	AOP_HL for _SPRITE_SIZE
   07E0 21 04 00           2320 	ld	hl,#_SPRITE_SIZE
   07E3 7E                 2321 	ld	a,(hl)
   07E4 91                 2322 	sub	a,c
   07E5 23                 2323 	inc	hl
   07E6 7E                 2324 	ld	a,(hl)
   07E7 98                 2325 	sbc	a,b
   07E8 DA FA 07           2326 	jp	c,00108$
                           2327 ;	goop.c 120
                           2328 ;	genAssign
                           2329 ;	AOP_STK for _collide_stop_1_1
   07EB F8 04              2330 	lda	hl,4(sp)
   07ED 36 01              2331 	ld	(hl),#0x01
   07EF 23                 2332 	inc	hl
   07F0 36 00              2333 	ld	(hl),#0x00
                           2334 ;	goop.c 121
                           2335 ;	genAssign
                           2336 ;	AOP_HL for _top_wall_occupied
   07F2 21 15 00           2337 	ld	hl,#_top_wall_occupied
   07F5 36 01              2338 	ld	(hl),#0x01
   07F7 23                 2339 	inc	hl
   07F8 36 00              2340 	ld	(hl),#0x00
                           2341 ;	genLabel
   07FA                    2342 00108$:
                           2343 ;	goop.c 124
                           2344 ;	genIfx
                           2345 ;	AOP_STK for _collide_stop_1_1
   07FA F8 04              2346 	lda	hl,4(sp)
   07FC 2A                 2347 	ld	a,(hl+)
   07FD B6                 2348 	or	a,(hl)
   07FE CA 0C 08           2349 	jp	z,00111$
                           2350 ;	goop.c 125
                           2351 ;	genAssign (pointer)
   0801 11 1B 00           2352 	ld	de,#_goop_vel
   0804 3E 00              2353 	ld	a,#0x00
   0806 12                 2354 	ld	(de),a
                           2355 ;	goop.c 126
                           2356 ;	genPlus
                           2357 ;	genPlusIncr
   0807 21 1C 00           2358 	ld	hl,#_goop_vel + 1
                           2359 ;	genAssign (pointer)
   080A 36 00              2360 	ld	(hl),#0x00
                           2361 ;	genLabel
   080C                    2362 00111$:
                           2363 ;	genEndFunction
   080C E8 06              2364 	lda	sp,6(sp)
   080E C9                 2365 	ret
   080F                    2366 ___collide_end:
                           2367 ;	goop.c 130
                           2368 ;	genLabel
                           2369 ;	genFunction
                           2370 ;	---------------------------------
                           2371 ; Function move
                           2372 ; ---------------------------------
   080F                    2373 ___move_start:
   080F                    2374 _move:
   080F E8 F9              2375 	lda	sp,-7(sp)
                           2376 ;	goop.c 132
                           2377 ;	genPlus
                           2378 ;	genPlusIncr
   0811 01 1A 00           2379 	ld	bc,#_goop_coords + 1
                           2380 ;	genPointerGet
                           2381 ;	AOP_STK for _move_sloc0_1_0
   0814 0A                 2382 	ld	a,(bc)
   0815 F8 06              2383 	lda	hl,6(sp)
   0817 77                 2384 	ld	(hl),a
                           2385 ;	genPointerGet
                           2386 ;	AOP_STK for _move_sloc1_1_0
   0818 11 19 00           2387 	ld	de,#_goop_coords
   081B 1A                 2388 	ld	a,(de)
   081C 2B                 2389 	dec	hl
   081D 77                 2390 	ld	(hl),a
                           2391 ;	genPointerGet
                           2392 ;	AOP_STK for _move_sloc2_1_0
   081E 11 D7 04           2393 	ld	de,#_goop_sprites
   0821 1A                 2394 	ld	a,(de)
   0822 2B                 2395 	dec	hl
   0823 2B                 2396 	dec	hl
   0824 77                 2397 	ld	(hl),a
   0825 13                 2398 	inc	de
   0826 1A                 2399 	ld	a,(de)
   0827 23                 2400 	inc	hl
                           2401 ;	genCast
                           2402 ;	AOP_STK for _move_sloc2_1_0
                           2403 ;	AOP_STK for _move_sloc3_1_0
   0828 32                 2404 	ld      (hl-),a
   0829 7E                 2405 	ld	a,(hl)
   082A 2B                 2406 	dec	hl
   082B 77                 2407 	ld	(hl),a
                           2408 ;	genIpush
                           2409 ; _saveRegsForCall: sendSetSize: 0 deInUse: 0 bcInUse: 1 deSending: 0
   082C C5                 2410 	push	bc
                           2411 ;	AOP_STK for _move_sloc0_1_0
   082D F8 08              2412 	lda	hl,8(sp)
   082F 7E                 2413 	ld	a,(hl)
   0830 F5                 2414 	push	af
   0831 33                 2415 	inc	sp
                           2416 ;	genIpush
                           2417 ;	AOP_STK for _move_sloc1_1_0
   0832 2B                 2418 	dec	hl
   0833 7E                 2419 	ld	a,(hl)
   0834 F5                 2420 	push	af
   0835 33                 2421 	inc	sp
                           2422 ;	genIpush
                           2423 ;	AOP_STK for _move_sloc3_1_0
   0836 F8 06              2424 	lda	hl,6(sp)
   0838 7E                 2425 	ld	a,(hl)
   0839 F5                 2426 	push	af
   083A 33                 2427 	inc	sp
                           2428 ;	genCall
   083B CD 00 00           2429 	call	_move_sprite
   083E E8 03              2430 	lda	sp,3(sp)
   0840 C1                 2431 	pop	bc
                           2432 ;	goop.c 133
                           2433 ;	genPointerGet
   0841 0A                 2434 	ld	a,(bc)
   0842 4F                 2435 	ld	c,a
                           2436 ;	genPointerGet
   0843 11 19 00           2437 	ld	de,#_goop_coords
   0846 1A                 2438 	ld	a,(de)
                           2439 ;	genPlus
                           2440 ;	genPlusIncr
                           2441 ;	Can't optimise plus by inc, falling back to the normal way
   0847 47                 2442 	ld	b,a
   0848 C6 08              2443 	add	a,#0x08
   084A 47                 2444 	ld	b,a
                           2445 ;	genPlus
                           2446 ;	AOP_STK for _move_sloc2_1_0
                           2447 ;	genPlusIncr
                           2448 ;	Can't optimise plus by inc, falling back to the normal way
   084B 11 D7 04           2449 	ld	de,#_goop_sprites
   084E 21 02 00           2450 	ld	hl,#0x0002
   0851 19                 2451 	add	hl,de
   0852 7D                 2452 	ld	a,l
   0853 54                 2453 	ld	d,h
   0854 F8 03              2454 	lda	hl,3(sp)
                           2455 ;	genPointerGet
                           2456 ;	AOP_STK for _move_sloc2_1_0
                           2457 ;	AOP_STK for _move_sloc4_1_0
   0856 22                 2458 	ld	(hl+),a
   0857 72                 2459 	ld	(hl),d
   0858 5F                 2460 	ld	e,a
   0859 1A                 2461 	ld	a,(de)
   085A F8 00              2462 	lda	hl,0(sp)
   085C 77                 2463 	ld	(hl),a
   085D 13                 2464 	inc	de
   085E 1A                 2465 	ld	a,(de)
   085F 23                 2466 	inc	hl
                           2467 ;	genCast
                           2468 ;	AOP_STK for _move_sloc4_1_0
                           2469 ;	AOP_STK for _move_sloc3_1_0
   0860 32                 2470 	ld      (hl-),a
   0861 2A                 2471 	ld	a,(hl+)
   0862 23                 2472 	inc	hl
   0863 77                 2473 	ld	(hl),a
                           2474 ;	genIpush
                           2475 ; _saveRegsForCall: sendSetSize: 0 deInUse: 0 bcInUse: 0 deSending: 0
   0864 79                 2476 	ld	a,c
   0865 F5                 2477 	push	af
   0866 33                 2478 	inc	sp
                           2479 ;	genIpush
   0867 78                 2480 	ld	a,b
   0868 F5                 2481 	push	af
   0869 33                 2482 	inc	sp
                           2483 ;	genIpush
                           2484 ;	AOP_STK for _move_sloc3_1_0
   086A 7E                 2485 	ld	a,(hl)
   086B F5                 2486 	push	af
   086C 33                 2487 	inc	sp
                           2488 ;	genCall
   086D CD 00 00           2489 	call	_move_sprite
   0870 E8 03              2490 	lda	sp,3(sp)
                           2491 ;	genLabel
   0872                    2492 00101$:
                           2493 ;	genEndFunction
   0872 E8 07              2494 	lda	sp,7(sp)
   0874 C9                 2495 	ret
   0875                    2496 ___move_end:
                           2497 ;	goop.c 140
                           2498 ;	genLabel
                           2499 ;	genFunction
                           2500 ;	---------------------------------
                           2501 ; Function state_game_over
                           2502 ; ---------------------------------
   0875                    2503 ___state_game_over_start:
   0875                    2504 _state_game_over:
   0875 E8 FD              2505 	lda	sp,-3(sp)
                           2506 ;	goop.c 141
                           2507 ;	genAssign
                           2508 ;	AOP_HL for _game_over
   0877 21 0B 00           2509 	ld	hl,#_game_over
   087A 36 01              2510 	ld	(hl),#0x01
   087C 23                 2511 	inc	hl
   087D 36 00              2512 	ld	(hl),#0x00
                           2513 ;	goop.c 142
                           2514 ;	genAssign
   087F 01 40 FF           2515 	ld	bc,#0xFF40
                           2516 ;	genAssign
                           2517 ;	AOP_STK for _state_game_over_sloc0_1_0
   0882 F8 01              2518 	lda	hl,1(sp)
   0884 36 40              2519 	ld	(hl),#0x40
   0886 23                 2520 	inc	hl
   0887 36 FF              2521 	ld	(hl),#0xFF
                           2522 ;	genPointerGet
                           2523 ;	AOP_STK for _state_game_over_sloc0_1_0
                           2524 ;	AOP_STK for _state_game_over_sloc1_1_0
   0889 2B                 2525 	dec	hl
   088A 5E                 2526 	ld	e,(hl)
   088B 23                 2527 	inc	hl
   088C 56                 2528 	ld	d,(hl)
   088D 1A                 2529 	ld	a,(de)
   088E 2B                 2530 	dec	hl
   088F 2B                 2531 	dec	hl
                           2532 ;	genAnd
                           2533 ;	AOP_STK for _state_game_over_sloc1_1_0
   0890 77                 2534 	ld      (hl),a
   0891 7F                 2535 	ld      a,a
   0892 E6 FD              2536 	and	a,#0xFD
                           2537 ;	genAssign (pointer)
   0894 02                 2538 	ld	(bc),a
                           2539 ;	genLabel
   0895                    2540 00101$:
                           2541 ;	genEndFunction
   0895 E8 03              2542 	lda	sp,3(sp)
   0897 C9                 2543 	ret
   0898                    2544 ___state_game_over_end:
                           2545 ;	goop.c 145
                           2546 ;	genLabel
                           2547 ;	genFunction
                           2548 ;	---------------------------------
                           2549 ; Function state_game_init
                           2550 ; ---------------------------------
   0898                    2551 ___state_game_init_start:
   0898                    2552 _state_game_init:
   0898 E8 FD              2553 	lda	sp,-3(sp)
                           2554 ;	goop.c 146
                           2555 ;	genAssign
                           2556 ;	AOP_HL for _game_over
   089A 21 0B 00           2557 	ld	hl,#_game_over
   089D 36 00              2558 	ld	(hl),#0x00
   089F 23                 2559 	inc	hl
   08A0 36 00              2560 	ld	(hl),#0x00
                           2561 ;	goop.c 147
                           2562 ;	genCall
                           2563 ; _saveRegsForCall: sendSetSize: 0 deInUse: 0 bcInUse: 0 deSending: 0
   08A2 CD DD 04           2564 	call	_set_goop
                           2565 ;	goop.c 148
                           2566 ;	genAssign
   08A5 01 40 FF           2567 	ld	bc,#0xFF40
                           2568 ;	genAssign
                           2569 ;	AOP_STK for _state_game_init_sloc0_1_0
   08A8 F8 01              2570 	lda	hl,1(sp)
   08AA 36 40              2571 	ld	(hl),#0x40
   08AC 23                 2572 	inc	hl
   08AD 36 FF              2573 	ld	(hl),#0xFF
                           2574 ;	genPointerGet
                           2575 ;	AOP_STK for _state_game_init_sloc0_1_0
                           2576 ;	AOP_STK for _state_game_init_sloc1_1_0
   08AF 2B                 2577 	dec	hl
   08B0 5E                 2578 	ld	e,(hl)
   08B1 23                 2579 	inc	hl
   08B2 56                 2580 	ld	d,(hl)
   08B3 1A                 2581 	ld	a,(de)
   08B4 2B                 2582 	dec	hl
   08B5 2B                 2583 	dec	hl
                           2584 ;	genOr
                           2585 ;	AOP_STK for _state_game_init_sloc1_1_0
   08B6 77                 2586 	ld      (hl),a
   08B7 7F                 2587 	ld      a,a
   08B8 F6 02              2588 	or	a,#0x02
                           2589 ;	genAssign (pointer)
   08BA 02                 2590 	ld	(bc),a
                           2591 ;	genLabel
   08BB                    2592 00101$:
                           2593 ;	genEndFunction
   08BB E8 03              2594 	lda	sp,3(sp)
   08BD C9                 2595 	ret
   08BE                    2596 ___state_game_init_end:
                           2597 ;	goop.c 155
                           2598 ;	genLabel
                           2599 ;	genFunction
                           2600 ;	---------------------------------
                           2601 ; Function run
                           2602 ; ---------------------------------
   08BE                    2603 ___run_start:
   08BE                    2604 _run:
   08BE E8 FD              2605 	lda	sp,-3(sp)
                           2606 ;	goop.c 158
                           2607 ;	genLabel
   08C0                    2608 00109$:
                           2609 ;	goop.c 160
                           2610 ;	genAssign
                           2611 ;	AOP_HL for _FRAME_RATE
   08C0 21 D1 04           2612 	ld	hl,#_FRAME_RATE
   08C3 4E                 2613 	ld	c,(hl)
   08C4 23                 2614 	inc	hl
   08C5 46                 2615 	ld	b,(hl)
                           2616 ;	genCmpEq
                           2617 ;	AOP_HL for _frames
                           2618 ; genCmpEq: left 2, right 2, result 0
   08C6 21 0D 00           2619 	ld	hl,#_frames
   08C9 7E                 2620 	ld	a,(hl)
   08CA B9                 2621 	cp	c
   08CB C2 D6 08           2622 	jp	nz,00117$
   08CE 23                 2623 	inc	hl
   08CF 7E                 2624 	ld	a,(hl)
   08D0 B8                 2625 	cp	b
   08D1 C2 E9 08           2626 	jp	nz,00102$
   08D4 18 03              2627 	jr	00118$
   08D6                    2628 00117$:
   08D6 C3 E9 08           2629 	jp	00102$
   08D9                    2630 00118$:
                           2631 ;	goop.c 162
                           2632 ;	genAssign
                           2633 ;	AOP_HL for _frames
   08D9 21 0D 00           2634 	ld	hl,#_frames
   08DC 36 00              2635 	ld	(hl),#0x00
   08DE 23                 2636 	inc	hl
   08DF 36 00              2637 	ld	(hl),#0x00
                           2638 ;	goop.c 163
                           2639 ;	genPlus
                           2640 ;	AOP_HL for _seconds
                           2641 ;	genPlusIncr
   08E1 21 0F 00           2642 	ld	hl,#_seconds
   08E4 34                 2643 	inc	(hl)
   08E5 20 02              2644 	jr	nz,00119$
   08E7 23                 2645 	inc	hl
   08E8 34                 2646 	inc	(hl)
   08E9                    2647 00119$:
                           2648 ;	genLabel
   08E9                    2649 00102$:
                           2650 ;	goop.c 166
                           2651 ;	genCall
                           2652 ; _saveRegsForCall: sendSetSize: 0 deInUse: 0 bcInUse: 0 deSending: 0
   08E9 CD 00 00           2653 	call	_wait_vbl_done
                           2654 ;	goop.c 168
                           2655 ;	genCall
                           2656 ; _saveRegsForCall: sendSetSize: 0 deInUse: 0 bcInUse: 0 deSending: 0
   08EC CD 00 00           2657 	call	_joypad
                           2658 ;	AOP_HL for _key
   08EF 21 06 00           2659 	ld	hl,#_key
   08F2 73                 2660 	ld	(hl),e
                           2661 ;	goop.c 170
                           2662 ;	genCall
                           2663 ; _saveRegsForCall: sendSetSize: 0 deInUse: 0 bcInUse: 0 deSending: 0
   08F3 CD D3 05           2664 	call	_input
                           2665 ;	goop.c 171
                           2666 ;	genIfx
                           2667 ;	AOP_HL for _game_over
   08F6 21 0B 00           2668 	ld	hl,#_game_over
   08F9 2A                 2669 	ld	a,(hl+)
   08FA B6                 2670 	or	a,(hl)
   08FB C2 07 09           2671 	jp	nz,00104$
                           2672 ;	goop.c 172
                           2673 ;	genCall
                           2674 ; _saveRegsForCall: sendSetSize: 0 deInUse: 0 bcInUse: 0 deSending: 0
   08FE CD B1 06           2675 	call	_physics
                           2676 ;	goop.c 173
                           2677 ;	genCall
                           2678 ; _saveRegsForCall: sendSetSize: 0 deInUse: 0 bcInUse: 0 deSending: 0
   0901 CD 0F 08           2679 	call	_move
                           2680 ;	goop.c 174
                           2681 ;	genCall
                           2682 ; _saveRegsForCall: sendSetSize: 0 deInUse: 0 bcInUse: 0 deSending: 0
   0904 CD 39 07           2683 	call	_collide
                           2684 ;	genLabel
   0907                    2685 00104$:
                           2686 ;	goop.c 177
                           2687 ;	genAssign
   0907 01 40 FF           2688 	ld	bc,#0xFF40
                           2689 ;	genAssign
                           2690 ;	AOP_STK for _run_sloc0_1_0
   090A F8 01              2691 	lda	hl,1(sp)
   090C 36 40              2692 	ld	(hl),#0x40
   090E 23                 2693 	inc	hl
   090F 36 FF              2694 	ld	(hl),#0xFF
                           2695 ;	genPointerGet
                           2696 ;	AOP_STK for _run_sloc0_1_0
                           2697 ;	AOP_STK for _run_sloc1_1_0
   0911 2B                 2698 	dec	hl
   0912 5E                 2699 	ld	e,(hl)
   0913 23                 2700 	inc	hl
   0914 56                 2701 	ld	d,(hl)
   0915 1A                 2702 	ld	a,(de)
   0916 2B                 2703 	dec	hl
   0917 2B                 2704 	dec	hl
                           2705 ;	genOr
                           2706 ;	AOP_STK for _run_sloc1_1_0
   0918 77                 2707 	ld      (hl),a
                           2708 ; Removed redundent load
   0919 F6 01              2709 	or	a,#0x01
                           2710 ;	genAssign (pointer)
   091B 02                 2711 	ld	(bc),a
                           2712 ;	goop.c 178
                           2713 ;	genIfx
                           2714 ;	AOP_HL for _game_over
   091C 21 0B 00           2715 	ld	hl,#_game_over
   091F 2A                 2716 	ld	a,(hl+)
   0920 B6                 2717 	or	a,(hl)
   0921 CA 3C 09           2718 	jp	z,00106$
                           2719 ;	goop.c 179
                           2720 ;	genAssign
   0924 01 40 FF           2721 	ld	bc,#0xFF40
                           2722 ;	genAssign
                           2723 ;	AOP_STK for _run_sloc0_1_0
   0927 F8 01              2724 	lda	hl,1(sp)
   0929 36 40              2725 	ld	(hl),#0x40
   092B 23                 2726 	inc	hl
   092C 36 FF              2727 	ld	(hl),#0xFF
                           2728 ;	genPointerGet
                           2729 ;	AOP_STK for _run_sloc0_1_0
                           2730 ;	AOP_STK for _run_sloc1_1_0
   092E 2B                 2731 	dec	hl
   092F 5E                 2732 	ld	e,(hl)
   0930 23                 2733 	inc	hl
   0931 56                 2734 	ld	d,(hl)
   0932 1A                 2735 	ld	a,(de)
   0933 2B                 2736 	dec	hl
   0934 2B                 2737 	dec	hl
                           2738 ;	genAnd
                           2739 ;	AOP_STK for _run_sloc1_1_0
   0935 77                 2740 	ld      (hl),a
                           2741 ; Removed redundent load
   0936 E6 FD              2742 	and	a,#0xFD
                           2743 ;	genAssign (pointer)
   0938 02                 2744 	ld	(bc),a
                           2745 ;	genGoto
   0939 C3 C0 08           2746 	jp	00109$
                           2747 ;	genLabel
   093C                    2748 00106$:
                           2749 ;	goop.c 181
                           2750 ;	genAssign
   093C 01 40 FF           2751 	ld	bc,#0xFF40
                           2752 ;	genAssign
                           2753 ;	AOP_STK for _run_sloc0_1_0
   093F F8 01              2754 	lda	hl,1(sp)
   0941 36 40              2755 	ld	(hl),#0x40
   0943 23                 2756 	inc	hl
   0944 36 FF              2757 	ld	(hl),#0xFF
                           2758 ;	genPointerGet
                           2759 ;	AOP_STK for _run_sloc0_1_0
                           2760 ;	AOP_STK for _run_sloc1_1_0
   0946 2B                 2761 	dec	hl
   0947 5E                 2762 	ld	e,(hl)
   0948 23                 2763 	inc	hl
   0949 56                 2764 	ld	d,(hl)
   094A 1A                 2765 	ld	a,(de)
   094B 2B                 2766 	dec	hl
   094C 2B                 2767 	dec	hl
                           2768 ;	genOr
                           2769 ;	AOP_STK for _run_sloc1_1_0
   094D 77                 2770 	ld      (hl),a
                           2771 ; Removed redundent load
   094E F6 02              2772 	or	a,#0x02
                           2773 ;	genAssign (pointer)
   0950 02                 2774 	ld	(bc),a
                           2775 ;	genGoto
   0951 C3 C0 08           2776 	jp	00109$
                           2777 ;	genLabel
   0954                    2778 00111$:
                           2779 ;	genEndFunction
   0954 E8 03              2780 	lda	sp,3(sp)
   0956 C9                 2781 	ret
   0957                    2782 ___run_end:
                           2783 ;	goop.c 186
                           2784 ;	genLabel
                           2785 ;	genFunction
                           2786 ;	---------------------------------
                           2787 ; Function main
                           2788 ; ---------------------------------
   0957                    2789 ___main_start:
   0957                    2790 _main:
   0957 E8 FD              2791 	lda	sp,-3(sp)
                           2792 ;	goop.c 188
                           2793 ;	genAssign
   0959 01 40 FF           2794 	ld	bc,#0xFF40
                           2795 ;	genAssign
                           2796 ;	AOP_STK for _main_sloc0_1_0
   095C F8 01              2797 	lda	hl,1(sp)
   095E 36 40              2798 	ld	(hl),#0x40
   0960 23                 2799 	inc	hl
   0961 36 FF              2800 	ld	(hl),#0xFF
                           2801 ;	genPointerGet
                           2802 ;	AOP_STK for _main_sloc0_1_0
                           2803 ;	AOP_STK for _main_sloc1_1_0
   0963 2B                 2804 	dec	hl
   0964 5E                 2805 	ld	e,(hl)
   0965 23                 2806 	inc	hl
   0966 56                 2807 	ld	d,(hl)
   0967 1A                 2808 	ld	a,(de)
   0968 2B                 2809 	dec	hl
   0969 2B                 2810 	dec	hl
                           2811 ;	genOr
                           2812 ;	AOP_STK for _main_sloc1_1_0
   096A 77                 2813 	ld      (hl),a
   096B 7F                 2814 	ld      a,a
   096C F6 04              2815 	or	a,#0x04
                           2816 ;	genAssign (pointer)
   096E 02                 2817 	ld	(bc),a
                           2818 ;	goop.c 189
                           2819 ;	genCall
                           2820 ; _saveRegsForCall: sendSetSize: 0 deInUse: 0 bcInUse: 0 deSending: 0
   096F CD 98 08           2821 	call	_state_game_init
                           2822 ;	goop.c 190
                           2823 ;	genCall
                           2824 ; _saveRegsForCall: sendSetSize: 0 deInUse: 0 bcInUse: 0 deSending: 0
   0972 CD BE 08           2825 	call	_run
                           2826 ;	genLabel
   0975                    2827 00101$:
                           2828 ;	genEndFunction
   0975 E8 03              2829 	lda	sp,3(sp)
   0977 C9                 2830 	ret
   0978                    2831 ___main_end:
                           2832 	.area _CODE
ASxxxx Assembler V01.75  (GameBoy Z80-like CPU), page 1.

Symbol Table

  0 _FRAME_RATE                        04D1 GR
  0 _INITIAL_LIVES                     04D3 GR
  1 _SCREEN_HEIGHT                     0002 GR
  1 _SCREEN_WIDTH                      0000 GR
  1 _SPRITE_SIZE                       0004 GR
  0 ___collide_end                     080F R
  0 ___collide_start                   0739 R
  0 ___input_end                       06B1 R
  0 ___input_start                     05D3 R
  0 ___main_end                        0978 R
  0 ___main_start                      0957 R
  0 ___move_end                        0875 R
  0 ___move_start                      080F R
  0 ___physics_end                     0739 R
  0 ___physics_start                   06B1 R
  0 ___render_background_end           001F R
  0 ___render_background_start         0000 R
  0 ___run_end                         0957 R
  0 ___run_start                       08BE R
  0 ___set_goop_end                    05D3 R
  0 ___set_goop_start                  04DD R
  0 ___state_game_init_end             08BE R
  0 ___state_game_init_start           0898 R
  0 ___state_game_over_end             0898 R
  0 ___state_game_over_start           0875 R
    __initrleblock                     **** GX
  0 _alpha                             001F GR
  0 _blank_screen                      031F GR
  1 _bottom_wall_occupied              0017 GR
  0 _collide                           0739 GR
  0 _disable_momentum                  04D5 GR
  1 _frames                            000D GR
  1 _game_over                         000B GR
  1 _game_started                      0009 GR
  1 _goop_coords                       0019 GR
  0 _goop_speed                        04DB GR
  0 _goop_sprite_data                  0491 GR
  0 _goop_sprites                      04D7 GR
  1 _goop_vel                          001B GR
  0 _input                             05D3 GR
    _joypad                            **** GX
  1 _key                               0006 GR
  1 _left_wall_occupied                0011 GR
  1 _lives                             0007 GR
  0 _main                              0957 GR
  0 _move                              080F GR
    _move_sprite                       **** GX
  0 _numbers                           0487 GR
  0 _physics                           06B1 GR
  0 _render_background                 0000 GR
  1 _right_wall_occupied               0013 GR
  0 _run                               08BE GR
  1 _seconds                           000F GR
    _set_bkg_data                      **** GX
    _set_bkg_tiles                     **** GX
  0 _set_goop                          04DD GR
    _set_sprite_data                   **** GX
    _set_sprite_tile                   **** GX
  0 _state_game_init                   0898 GR
  0 _state_game_over                   0875 R
  1 _top_wall_occupied                 0015 GR
    _wait_vbl_done                     **** GX

ASxxxx Assembler V01.75  (GameBoy Z80-like CPU), page 2.

Area Table

   0 _CODE                              size  978   flags 0
   1 _DATA                              size   1D   flags 0
   2 _OVERLAY                           size    0   flags 0
   3 _ISEG                              size    0   flags 0
   4 _BSEG                              size    0   flags 0
   5 _XSEG                              size    0   flags 0
   6 _GSINIT                            size   76   flags 0
   7 _GSFINAL                           size    0   flags 0
   8 _HOME                              size    0   flags 0
