                              1 ;--------------------------------------------------------
                              2 ; File Created by SDCC : FreeWare ANSI-C Compiler
                              3 ; Version 2.3.1 Fri Dec 11 19:52:39 2020
                              4 
                              5 ;--------------------------------------------------------
                              6 	.module lcc61720
                              7 	
                              8 ;--------------------------------------------------------
                              9 ; Public variables in this module
                             10 ;--------------------------------------------------------
                             11 	.globl _main
                             12 	.globl _run
                             13 	.globl _state_game_init
                             14 	.globl _render_score
                             15 	.globl _score
                             16 	.globl _move
                             17 	.globl _collide
                             18 	.globl _physics
                             19 	.globl _input
                             20 	.globl _set_paddle
                             21 	.globl _render_background
                             22 	.globl _restart_game
                             23 	.globl _score_array
                             24 	.globl _seconds
                             25 	.globl _frames
                             26 	.globl _game_score
                             27 	.globl _vertical_paddle_movement
                             28 	.globl _paddle_vel_y
                             29 	.globl _paddle_vel_x
                             30 	.globl _paddle_y
                             31 	.globl _paddle_x
                             32 	.globl _current_level
                             33 	.globl _game_over
                             34 	.globl _game_started
                             35 	.globl _lives
                             36 	.globl _key
                             37 	.globl _SPRITE_SIZE
                             38 	.globl _SCREEN_HEIGHT
                             39 	.globl _SCREEN_WIDTH
                             40 	.globl _lives_sprite_begin
                             41 	.globl _paddle_speed
                             42 	.globl _paddle_sprite_right
                             43 	.globl _paddle_sprite_left
                             44 	.globl _framerate
                             45 	.globl _INITIAL_LIVES
                             46 	.globl _paddle_sprite_data
                             47 	.globl _numbers
                             48 	.globl _blank_screen
                             49 	.globl _alpha
                             50 ;--------------------------------------------------------
                             51 ; special function registers
                             52 ;--------------------------------------------------------
                             53 ;--------------------------------------------------------
                             54 ; special function bits 
                             55 ;--------------------------------------------------------
                             56 ;--------------------------------------------------------
                             57 ; internal ram data
                             58 ;--------------------------------------------------------
                             59 	.area _DATA
   0000                      60 _SCREEN_WIDTH::
   0000                      61 	.ds 2
   0002                      62 _SCREEN_HEIGHT::
   0002                      63 	.ds 2
   0004                      64 _SPRITE_SIZE::
   0004                      65 	.ds 2
   0006                      66 _key::
   0006                      67 	.ds 1
   0007                      68 _lives::
   0007                      69 	.ds 2
   0009                      70 _game_started::
   0009                      71 	.ds 2
   000B                      72 _game_over::
   000B                      73 	.ds 2
   000D                      74 _current_level::
   000D                      75 	.ds 2
   000F                      76 _paddle_x::
   000F                      77 	.ds 1
   0010                      78 _paddle_y::
   0010                      79 	.ds 1
   0011                      80 _paddle_vel_x::
   0011                      81 	.ds 1
   0012                      82 _paddle_vel_y::
   0012                      83 	.ds 1
   0013                      84 _vertical_paddle_movement::
   0013                      85 	.ds 2
   0015                      86 _game_score::
   0015                      87 	.ds 2
   0017                      88 _frames::
   0017                      89 	.ds 2
   0019                      90 _seconds::
   0019                      91 	.ds 2
   001B                      92 _score_array::
   001B                      93 	.ds 4
                             94 ;--------------------------------------------------------
                             95 ; overlayable items in internal ram 
                             96 ;--------------------------------------------------------
                             97 	.area _OVERLAY
                             98 ;--------------------------------------------------------
                             99 ; indirectly addressable internal ram data
                            100 ;--------------------------------------------------------
                            101 	.area _ISEG
                            102 ;--------------------------------------------------------
                            103 ; bit data
                            104 ;--------------------------------------------------------
                            105 	.area _BSEG
                            106 ;--------------------------------------------------------
                            107 ; external ram data
                            108 ;--------------------------------------------------------
                            109 	.area _XSEG
                            110 ;--------------------------------------------------------
                            111 ; global & static initialisations
                            112 ;--------------------------------------------------------
                            113 	.area _GSINIT
                            114 	.area _GSFINAL
                            115 	.area _GSINIT
                            116 ;	goop.c 9
                            117 ;	genAssign
                            118 ;	AOP_HL for _SCREEN_WIDTH
   0000 21 00 00            119 	ld	hl,#_SCREEN_WIDTH
   0003 36 A0               120 	ld	(hl),#0xA0
   0005 23                  121 	inc	hl
   0006 36 00               122 	ld	(hl),#0x00
                            123 ;	goop.c 10
                            124 ;	genAssign
                            125 ;	AOP_HL for _SCREEN_HEIGHT
   0008 21 02 00            126 	ld	hl,#_SCREEN_HEIGHT
   000B 36 90               127 	ld	(hl),#0x90
   000D 23                  128 	inc	hl
   000E 36 00               129 	ld	(hl),#0x00
                            130 ;	goop.c 11
                            131 ;	genAssign
                            132 ;	AOP_HL for _SPRITE_SIZE
   0010 21 04 00            133 	ld	hl,#_SPRITE_SIZE
   0013 36 10               134 	ld	(hl),#0x10
   0015 23                  135 	inc	hl
   0016 36 00               136 	ld	(hl),#0x00
                            137 ;	goop.c 17
                            138 ;	genAssign
                            139 ;	AOP_HL for _INITIAL_LIVES
                            140 ;	AOP_HL for _lives
   0018 21 DD 04            141 	ld	hl,#_INITIAL_LIVES
   001B 2A                  142 	ld	a,(hl+)
   001C 5E                  143 	ld	e,(hl)
   001D 21 07 00            144 	ld	hl,#_lives
   0020 22                  145 	ld	(hl+),a
   0021 73                  146 	ld	(hl),e
                            147 ;	goop.c 18
                            148 ;	genAssign
                            149 ;	AOP_HL for _game_started
   0022 21 09 00            150 	ld	hl,#_game_started
   0025 36 00               151 	ld	(hl),#0x00
   0027 23                  152 	inc	hl
   0028 36 00               153 	ld	(hl),#0x00
                            154 ;	goop.c 19
                            155 ;	genAssign
                            156 ;	AOP_HL for _game_over
   002A 21 0B 00            157 	ld	hl,#_game_over
   002D 36 00               158 	ld	(hl),#0x00
   002F 23                  159 	inc	hl
   0030 36 00               160 	ld	(hl),#0x00
                            161 ;	goop.c 20
                            162 ;	genAssign
                            163 ;	AOP_HL for _current_level
   0032 21 0D 00            164 	ld	hl,#_current_level
   0035 36 00               165 	ld	(hl),#0x00
   0037 23                  166 	inc	hl
   0038 36 00               167 	ld	(hl),#0x00
                            168 ;	goop.c 31
                            169 ;	genAssign
                            170 ;	AOP_HL for _vertical_paddle_movement
   003A 21 13 00            171 	ld	hl,#_vertical_paddle_movement
   003D 36 01               172 	ld	(hl),#0x01
   003F 23                  173 	inc	hl
   0040 36 00               174 	ld	(hl),#0x00
                            175 ;	goop.c 33
                            176 ;	genAssign
                            177 ;	AOP_HL for _game_score
   0042 21 15 00            178 	ld	hl,#_game_score
   0045 36 00               179 	ld	(hl),#0x00
   0047 23                  180 	inc	hl
   0048 36 00               181 	ld	(hl),#0x00
                            182 ;	goop.c 35
                            183 ;	genAssign
                            184 ;	AOP_HL for _frames
   004A 21 17 00            185 	ld	hl,#_frames
   004D 36 00               186 	ld	(hl),#0x00
   004F 23                  187 	inc	hl
   0050 36 00               188 	ld	(hl),#0x00
                            189 ;	goop.c 37
                            190 ;	genAssign
                            191 ;	AOP_HL for _seconds
   0052 21 19 00            192 	ld	hl,#_seconds
   0055 36 00               193 	ld	(hl),#0x00
   0057 23                  194 	inc	hl
   0058 36 00               195 	ld	(hl),#0x00
                            196 ;	goop.c 42
                            197 ;	goop.c 190
                            198 ;	genArrayInit
                            199 ; _saveRegsForCall: sendSetSize: 0 deInUse: 0 bcInUse: 0 deSending: 0
   005A 21 1B 00            200 	ld	hl,#_score_array
   005D CD 00 00            201 	call	__initrleblock
   0060 04                  202 	.db	4
   0061 30 30 30 30         203 	.db	0x30, 0x30, 0x30, 0x30
   0065 00                  204 	.db	0
                            205 ;--------------------------------------------------------
                            206 ; Home
                            207 ;--------------------------------------------------------
                            208 	.area _HOME
                            209 	.area _CODE
                            210 ;--------------------------------------------------------
                            211 ; code
                            212 ;--------------------------------------------------------
                            213 	.area _CODE
                            214 ;	goop.c 44
                            215 ;	genLabel
                            216 ;	genFunction
                            217 ;	---------------------------------
                            218 ; Function restart_game
                            219 ; ---------------------------------
   0000                     220 ___restart_game_start:
   0000                     221 _restart_game:
                            222 	
                            223 ;	goop.c 45
                            224 ;	genAssign
                            225 ;	AOP_HL for _game_score
   0000 21 15 00            226 	ld	hl,#_game_score
   0003 36 00               227 	ld	(hl),#0x00
   0005 23                  228 	inc	hl
   0006 36 00               229 	ld	(hl),#0x00
                            230 ;	goop.c 46
                            231 ;	genAssign
                            232 ;	AOP_HL for _game_started
   0008 21 09 00            233 	ld	hl,#_game_started
   000B 36 00               234 	ld	(hl),#0x00
   000D 23                  235 	inc	hl
   000E 36 00               236 	ld	(hl),#0x00
                            237 ;	goop.c 47
                            238 ;	genAssign
                            239 ;	AOP_HL for _game_over
   0010 21 0B 00            240 	ld	hl,#_game_over
   0013 36 00               241 	ld	(hl),#0x00
   0015 23                  242 	inc	hl
   0016 36 00               243 	ld	(hl),#0x00
                            244 ;	goop.c 48
                            245 ;	genAssign
                            246 ;	AOP_HL for _current_level
   0018 21 0D 00            247 	ld	hl,#_current_level
   001B 36 00               248 	ld	(hl),#0x00
   001D 23                  249 	inc	hl
   001E 36 00               250 	ld	(hl),#0x00
                            251 ;	goop.c 49
                            252 ;	genAssign
                            253 ;	AOP_HL for _INITIAL_LIVES
                            254 ;	AOP_HL for _lives
   0020 21 DD 04            255 	ld	hl,#_INITIAL_LIVES
   0023 2A                  256 	ld	a,(hl+)
   0024 5E                  257 	ld	e,(hl)
   0025 21 07 00            258 	ld	hl,#_lives
   0028 22                  259 	ld	(hl+),a
   0029 73                  260 	ld	(hl),e
                            261 ;	genLabel
   002A                     262 00101$:
                            263 ;	genEndFunction
                            264 	
   002A C9                  265 	ret
   002B                     266 ___restart_game_end:
   002B                     267 _alpha:
   002B 7C                  268 	.db #0x7C
   002C 7C                  269 	.db #0x7C
   002D 86                  270 	.db #0x86
   002E 86                  271 	.db #0x86
   002F 8A                  272 	.db #0x8A
   0030 8A                  273 	.db #0x8A
   0031 92                  274 	.db #0x92
   0032 92                  275 	.db #0x92
   0033 A2                  276 	.db #0xA2
   0034 A2                  277 	.db #0xA2
   0035 C2                  278 	.db #0xC2
   0036 C2                  279 	.db #0xC2
   0037 7C                  280 	.db #0x7C
   0038 7C                  281 	.db #0x7C
   0039 00                  282 	.db #0x00
   003A 00                  283 	.db #0x00
   003B 10                  284 	.db #0x10
   003C 10                  285 	.db #0x10
   003D 30                  286 	.db #0x30
   003E 30                  287 	.db #0x30
   003F 10                  288 	.db #0x10
   0040 10                  289 	.db #0x10
   0041 10                  290 	.db #0x10
   0042 10                  291 	.db #0x10
   0043 10                  292 	.db #0x10
   0044 10                  293 	.db #0x10
   0045 10                  294 	.db #0x10
   0046 10                  295 	.db #0x10
   0047 7C                  296 	.db #0x7C
   0048 7C                  297 	.db #0x7C
   0049 00                  298 	.db #0x00
   004A 00                  299 	.db #0x00
   004B 7C                  300 	.db #0x7C
   004C 7C                  301 	.db #0x7C
   004D 82                  302 	.db #0x82
   004E 82                  303 	.db #0x82
   004F 02                  304 	.db #0x02
   0050 02                  305 	.db #0x02
   0051 1C                  306 	.db #0x1C
   0052 1C                  307 	.db #0x1C
   0053 60                  308 	.db #0x60
   0054 60                  309 	.db #0x60
   0055 80                  310 	.db #0x80
   0056 80                  311 	.db #0x80
   0057 FE                  312 	.db #0xFE
   0058 FE                  313 	.db #0xFE
   0059 00                  314 	.db #0x00
   005A 00                  315 	.db #0x00
   005B FE                  316 	.db #0xFE
   005C FE                  317 	.db #0xFE
   005D 04                  318 	.db #0x04
   005E 04                  319 	.db #0x04
   005F 18                  320 	.db #0x18
   0060 18                  321 	.db #0x18
   0061 04                  322 	.db #0x04
   0062 04                  323 	.db #0x04
   0063 02                  324 	.db #0x02
   0064 02                  325 	.db #0x02
   0065 82                  326 	.db #0x82
   0066 82                  327 	.db #0x82
   0067 7C                  328 	.db #0x7C
   0068 7C                  329 	.db #0x7C
   0069 00                  330 	.db #0x00
   006A 00                  331 	.db #0x00
   006B 0C                  332 	.db #0x0C
   006C 0C                  333 	.db #0x0C
   006D 14                  334 	.db #0x14
   006E 14                  335 	.db #0x14
   006F 24                  336 	.db #0x24
   0070 24                  337 	.db #0x24
   0071 44                  338 	.db #0x44
   0072 44                  339 	.db #0x44
   0073 84                  340 	.db #0x84
   0074 84                  341 	.db #0x84
   0075 FE                  342 	.db #0xFE
   0076 FE                  343 	.db #0xFE
   0077 04                  344 	.db #0x04
   0078 04                  345 	.db #0x04
   0079 00                  346 	.db #0x00
   007A 00                  347 	.db #0x00
   007B FC                  348 	.db #0xFC
   007C FC                  349 	.db #0xFC
   007D 80                  350 	.db #0x80
   007E 80                  351 	.db #0x80
   007F FC                  352 	.db #0xFC
   0080 FC                  353 	.db #0xFC
   0081 02                  354 	.db #0x02
   0082 02                  355 	.db #0x02
   0083 02                  356 	.db #0x02
   0084 02                  357 	.db #0x02
   0085 82                  358 	.db #0x82
   0086 82                  359 	.db #0x82
   0087 7C                  360 	.db #0x7C
   0088 7C                  361 	.db #0x7C
   0089 00                  362 	.db #0x00
   008A 00                  363 	.db #0x00
   008B 7C                  364 	.db #0x7C
   008C 7C                  365 	.db #0x7C
   008D 80                  366 	.db #0x80
   008E 80                  367 	.db #0x80
   008F 80                  368 	.db #0x80
   0090 80                  369 	.db #0x80
   0091 FC                  370 	.db #0xFC
   0092 FC                  371 	.db #0xFC
   0093 82                  372 	.db #0x82
   0094 82                  373 	.db #0x82
   0095 82                  374 	.db #0x82
   0096 82                  375 	.db #0x82
   0097 7C                  376 	.db #0x7C
   0098 7C                  377 	.db #0x7C
   0099 00                  378 	.db #0x00
   009A 00                  379 	.db #0x00
   009B FE                  380 	.db #0xFE
   009C FE                  381 	.db #0xFE
   009D 82                  382 	.db #0x82
   009E 82                  383 	.db #0x82
   009F 04                  384 	.db #0x04
   00A0 04                  385 	.db #0x04
   00A1 08                  386 	.db #0x08
   00A2 08                  387 	.db #0x08
   00A3 10                  388 	.db #0x10
   00A4 10                  389 	.db #0x10
   00A5 10                  390 	.db #0x10
   00A6 10                  391 	.db #0x10
   00A7 10                  392 	.db #0x10
   00A8 10                  393 	.db #0x10
   00A9 00                  394 	.db #0x00
   00AA 00                  395 	.db #0x00
   00AB 7C                  396 	.db #0x7C
   00AC 7C                  397 	.db #0x7C
   00AD 82                  398 	.db #0x82
   00AE 82                  399 	.db #0x82
   00AF 82                  400 	.db #0x82
   00B0 82                  401 	.db #0x82
   00B1 7C                  402 	.db #0x7C
   00B2 7C                  403 	.db #0x7C
   00B3 82                  404 	.db #0x82
   00B4 82                  405 	.db #0x82
   00B5 82                  406 	.db #0x82
   00B6 82                  407 	.db #0x82
   00B7 7C                  408 	.db #0x7C
   00B8 7C                  409 	.db #0x7C
   00B9 00                  410 	.db #0x00
   00BA 00                  411 	.db #0x00
   00BB 7C                  412 	.db #0x7C
   00BC 7C                  413 	.db #0x7C
   00BD 82                  414 	.db #0x82
   00BE 82                  415 	.db #0x82
   00BF 82                  416 	.db #0x82
   00C0 82                  417 	.db #0x82
   00C1 7E                  418 	.db #0x7E
   00C2 7E                  419 	.db #0x7E
   00C3 02                  420 	.db #0x02
   00C4 02                  421 	.db #0x02
   00C5 02                  422 	.db #0x02
   00C6 02                  423 	.db #0x02
   00C7 7C                  424 	.db #0x7C
   00C8 7C                  425 	.db #0x7C
   00C9 00                  426 	.db #0x00
   00CA 00                  427 	.db #0x00
   00CB 00                  428 	.db #0x00
   00CC 00                  429 	.db #0x00
   00CD 30                  430 	.db #0x30
   00CE 30                  431 	.db #0x30
   00CF 30                  432 	.db #0x30
   00D0 30                  433 	.db #0x30
   00D1 00                  434 	.db #0x00
   00D2 00                  435 	.db #0x00
   00D3 30                  436 	.db #0x30
   00D4 30                  437 	.db #0x30
   00D5 30                  438 	.db #0x30
   00D6 30                  439 	.db #0x30
   00D7 00                  440 	.db #0x00
   00D8 00                  441 	.db #0x00
   00D9 00                  442 	.db #0x00
   00DA 00                  443 	.db #0x00
   00DB 00                  444 	.db #0x00
   00DC 00                  445 	.db #0x00
   00DD 30                  446 	.db #0x30
   00DE 30                  447 	.db #0x30
   00DF 30                  448 	.db #0x30
   00E0 30                  449 	.db #0x30
   00E1 00                  450 	.db #0x00
   00E2 00                  451 	.db #0x00
   00E3 30                  452 	.db #0x30
   00E4 30                  453 	.db #0x30
   00E5 10                  454 	.db #0x10
   00E6 10                  455 	.db #0x10
   00E7 20                  456 	.db #0x20
   00E8 20                  457 	.db #0x20
   00E9 00                  458 	.db #0x00
   00EA 00                  459 	.db #0x00
   00EB 00                  460 	.db #0x00
   00EC 00                  461 	.db #0x00
   00ED 00                  462 	.db #0x00
   00EE 00                  463 	.db #0x00
   00EF 00                  464 	.db #0x00
   00F0 00                  465 	.db #0x00
   00F1 00                  466 	.db #0x00
   00F2 00                  467 	.db #0x00
   00F3 18                  468 	.db #0x18
   00F4 18                  469 	.db #0x18
   00F5 08                  470 	.db #0x08
   00F6 08                  471 	.db #0x08
   00F7 10                  472 	.db #0x10
   00F8 10                  473 	.db #0x10
   00F9 00                  474 	.db #0x00
   00FA 00                  475 	.db #0x00
   00FB 00                  476 	.db #0x00
   00FC 00                  477 	.db #0x00
   00FD 00                  478 	.db #0x00
   00FE 00                  479 	.db #0x00
   00FF 00                  480 	.db #0x00
   0100 00                  481 	.db #0x00
   0101 3E                  482 	.db #0x3E
   0102 3E                  483 	.db #0x3E
   0103 00                  484 	.db #0x00
   0104 00                  485 	.db #0x00
   0105 00                  486 	.db #0x00
   0106 00                  487 	.db #0x00
   0107 00                  488 	.db #0x00
   0108 00                  489 	.db #0x00
   0109 00                  490 	.db #0x00
   010A 00                  491 	.db #0x00
   010B 00                  492 	.db #0x00
   010C 00                  493 	.db #0x00
   010D 00                  494 	.db #0x00
   010E 00                  495 	.db #0x00
   010F 00                  496 	.db #0x00
   0110 00                  497 	.db #0x00
   0111 00                  498 	.db #0x00
   0112 00                  499 	.db #0x00
   0113 00                  500 	.db #0x00
   0114 00                  501 	.db #0x00
   0115 18                  502 	.db #0x18
   0116 18                  503 	.db #0x18
   0117 18                  504 	.db #0x18
   0118 18                  505 	.db #0x18
   0119 00                  506 	.db #0x00
   011A 00                  507 	.db #0x00
   011B 01                  508 	.db #0x01
   011C 01                  509 	.db #0x01
   011D 02                  510 	.db #0x02
   011E 02                  511 	.db #0x02
   011F 04                  512 	.db #0x04
   0120 04                  513 	.db #0x04
   0121 08                  514 	.db #0x08
   0122 08                  515 	.db #0x08
   0123 10                  516 	.db #0x10
   0124 10                  517 	.db #0x10
   0125 20                  518 	.db #0x20
   0126 20                  519 	.db #0x20
   0127 40                  520 	.db #0x40
   0128 40                  521 	.db #0x40
   0129 00                  522 	.db #0x00
   012A 00                  523 	.db #0x00
   012B 7C                  524 	.db #0x7C
   012C 7C                  525 	.db #0x7C
   012D 82                  526 	.db #0x82
   012E 82                  527 	.db #0x82
   012F 9A                  528 	.db #0x9A
   0130 9A                  529 	.db #0x9A
   0131 AA                  530 	.db #0xAA
   0132 AA                  531 	.db #0xAA
   0133 BC                  532 	.db #0xBC
   0134 BC                  533 	.db #0xBC
   0135 80                  534 	.db #0x80
   0136 80                  535 	.db #0x80
   0137 7C                  536 	.db #0x7C
   0138 7C                  537 	.db #0x7C
   0139 00                  538 	.db #0x00
   013A 00                  539 	.db #0x00
   013B 38                  540 	.db #0x38
   013C 38                  541 	.db #0x38
   013D 44                  542 	.db #0x44
   013E 44                  543 	.db #0x44
   013F 82                  544 	.db #0x82
   0140 82                  545 	.db #0x82
   0141 82                  546 	.db #0x82
   0142 82                  547 	.db #0x82
   0143 FE                  548 	.db #0xFE
   0144 FE                  549 	.db #0xFE
   0145 82                  550 	.db #0x82
   0146 82                  551 	.db #0x82
   0147 82                  552 	.db #0x82
   0148 82                  553 	.db #0x82
   0149 00                  554 	.db #0x00
   014A 00                  555 	.db #0x00
   014B FC                  556 	.db #0xFC
   014C FC                  557 	.db #0xFC
   014D 82                  558 	.db #0x82
   014E 82                  559 	.db #0x82
   014F 82                  560 	.db #0x82
   0150 82                  561 	.db #0x82
   0151 FC                  562 	.db #0xFC
   0152 FC                  563 	.db #0xFC
   0153 82                  564 	.db #0x82
   0154 82                  565 	.db #0x82
   0155 82                  566 	.db #0x82
   0156 82                  567 	.db #0x82
   0157 FC                  568 	.db #0xFC
   0158 FC                  569 	.db #0xFC
   0159 00                  570 	.db #0x00
   015A 00                  571 	.db #0x00
   015B 7C                  572 	.db #0x7C
   015C 7C                  573 	.db #0x7C
   015D 82                  574 	.db #0x82
   015E 82                  575 	.db #0x82
   015F 80                  576 	.db #0x80
   0160 80                  577 	.db #0x80
   0161 80                  578 	.db #0x80
   0162 80                  579 	.db #0x80
   0163 80                  580 	.db #0x80
   0164 80                  581 	.db #0x80
   0165 82                  582 	.db #0x82
   0166 82                  583 	.db #0x82
   0167 7C                  584 	.db #0x7C
   0168 7C                  585 	.db #0x7C
   0169 00                  586 	.db #0x00
   016A 00                  587 	.db #0x00
   016B F8                  588 	.db #0xF8
   016C F8                  589 	.db #0xF8
   016D 84                  590 	.db #0x84
   016E 84                  591 	.db #0x84
   016F 82                  592 	.db #0x82
   0170 82                  593 	.db #0x82
   0171 82                  594 	.db #0x82
   0172 82                  595 	.db #0x82
   0173 82                  596 	.db #0x82
   0174 82                  597 	.db #0x82
   0175 84                  598 	.db #0x84
   0176 84                  599 	.db #0x84
   0177 F8                  600 	.db #0xF8
   0178 F8                  601 	.db #0xF8
   0179 00                  602 	.db #0x00
   017A 00                  603 	.db #0x00
   017B FE                  604 	.db #0xFE
   017C FE                  605 	.db #0xFE
   017D 80                  606 	.db #0x80
   017E 80                  607 	.db #0x80
   017F 80                  608 	.db #0x80
   0180 80                  609 	.db #0x80
   0181 FC                  610 	.db #0xFC
   0182 FC                  611 	.db #0xFC
   0183 80                  612 	.db #0x80
   0184 80                  613 	.db #0x80
   0185 80                  614 	.db #0x80
   0186 80                  615 	.db #0x80
   0187 FE                  616 	.db #0xFE
   0188 FE                  617 	.db #0xFE
   0189 00                  618 	.db #0x00
   018A 00                  619 	.db #0x00
   018B FE                  620 	.db #0xFE
   018C FE                  621 	.db #0xFE
   018D 80                  622 	.db #0x80
   018E 80                  623 	.db #0x80
   018F 80                  624 	.db #0x80
   0190 80                  625 	.db #0x80
   0191 FC                  626 	.db #0xFC
   0192 FC                  627 	.db #0xFC
   0193 80                  628 	.db #0x80
   0194 80                  629 	.db #0x80
   0195 80                  630 	.db #0x80
   0196 80                  631 	.db #0x80
   0197 80                  632 	.db #0x80
   0198 80                  633 	.db #0x80
   0199 00                  634 	.db #0x00
   019A 00                  635 	.db #0x00
   019B 7C                  636 	.db #0x7C
   019C 7C                  637 	.db #0x7C
   019D 82                  638 	.db #0x82
   019E 82                  639 	.db #0x82
   019F 80                  640 	.db #0x80
   01A0 80                  641 	.db #0x80
   01A1 80                  642 	.db #0x80
   01A2 80                  643 	.db #0x80
   01A3 8E                  644 	.db #0x8E
   01A4 8E                  645 	.db #0x8E
   01A5 82                  646 	.db #0x82
   01A6 82                  647 	.db #0x82
   01A7 7E                  648 	.db #0x7E
   01A8 7E                  649 	.db #0x7E
   01A9 00                  650 	.db #0x00
   01AA 00                  651 	.db #0x00
   01AB 82                  652 	.db #0x82
   01AC 82                  653 	.db #0x82
   01AD 82                  654 	.db #0x82
   01AE 82                  655 	.db #0x82
   01AF 82                  656 	.db #0x82
   01B0 82                  657 	.db #0x82
   01B1 FE                  658 	.db #0xFE
   01B2 FE                  659 	.db #0xFE
   01B3 82                  660 	.db #0x82
   01B4 82                  661 	.db #0x82
   01B5 82                  662 	.db #0x82
   01B6 82                  663 	.db #0x82
   01B7 82                  664 	.db #0x82
   01B8 82                  665 	.db #0x82
   01B9 00                  666 	.db #0x00
   01BA 00                  667 	.db #0x00
   01BB 7C                  668 	.db #0x7C
   01BC 7C                  669 	.db #0x7C
   01BD 10                  670 	.db #0x10
   01BE 10                  671 	.db #0x10
   01BF 10                  672 	.db #0x10
   01C0 10                  673 	.db #0x10
   01C1 10                  674 	.db #0x10
   01C2 10                  675 	.db #0x10
   01C3 10                  676 	.db #0x10
   01C4 10                  677 	.db #0x10
   01C5 10                  678 	.db #0x10
   01C6 10                  679 	.db #0x10
   01C7 7C                  680 	.db #0x7C
   01C8 7C                  681 	.db #0x7C
   01C9 00                  682 	.db #0x00
   01CA 00                  683 	.db #0x00
   01CB 1E                  684 	.db #0x1E
   01CC 1E                  685 	.db #0x1E
   01CD 04                  686 	.db #0x04
   01CE 04                  687 	.db #0x04
   01CF 04                  688 	.db #0x04
   01D0 04                  689 	.db #0x04
   01D1 04                  690 	.db #0x04
   01D2 04                  691 	.db #0x04
   01D3 04                  692 	.db #0x04
   01D4 04                  693 	.db #0x04
   01D5 84                  694 	.db #0x84
   01D6 84                  695 	.db #0x84
   01D7 78                  696 	.db #0x78
   01D8 78                  697 	.db #0x78
   01D9 00                  698 	.db #0x00
   01DA 00                  699 	.db #0x00
   01DB 84                  700 	.db #0x84
   01DC 84                  701 	.db #0x84
   01DD 88                  702 	.db #0x88
   01DE 88                  703 	.db #0x88
   01DF 90                  704 	.db #0x90
   01E0 90                  705 	.db #0x90
   01E1 F0                  706 	.db #0xF0
   01E2 F0                  707 	.db #0xF0
   01E3 88                  708 	.db #0x88
   01E4 88                  709 	.db #0x88
   01E5 84                  710 	.db #0x84
   01E6 84                  711 	.db #0x84
   01E7 82                  712 	.db #0x82
   01E8 82                  713 	.db #0x82
   01E9 00                  714 	.db #0x00
   01EA 00                  715 	.db #0x00
   01EB 40                  716 	.db #0x40
   01EC 40                  717 	.db #0x40
   01ED 40                  718 	.db #0x40
   01EE 40                  719 	.db #0x40
   01EF 40                  720 	.db #0x40
   01F0 40                  721 	.db #0x40
   01F1 40                  722 	.db #0x40
   01F2 40                  723 	.db #0x40
   01F3 40                  724 	.db #0x40
   01F4 40                  725 	.db #0x40
   01F5 40                  726 	.db #0x40
   01F6 40                  727 	.db #0x40
   01F7 7E                  728 	.db #0x7E
   01F8 7E                  729 	.db #0x7E
   01F9 00                  730 	.db #0x00
   01FA 00                  731 	.db #0x00
   01FB 82                  732 	.db #0x82
   01FC 82                  733 	.db #0x82
   01FD C6                  734 	.db #0xC6
   01FE C6                  735 	.db #0xC6
   01FF AA                  736 	.db #0xAA
   0200 AA                  737 	.db #0xAA
   0201 92                  738 	.db #0x92
   0202 92                  739 	.db #0x92
   0203 82                  740 	.db #0x82
   0204 82                  741 	.db #0x82
   0205 82                  742 	.db #0x82
   0206 82                  743 	.db #0x82
   0207 82                  744 	.db #0x82
   0208 82                  745 	.db #0x82
   0209 00                  746 	.db #0x00
   020A 00                  747 	.db #0x00
   020B 82                  748 	.db #0x82
   020C 82                  749 	.db #0x82
   020D C2                  750 	.db #0xC2
   020E C2                  751 	.db #0xC2
   020F A2                  752 	.db #0xA2
   0210 A2                  753 	.db #0xA2
   0211 92                  754 	.db #0x92
   0212 92                  755 	.db #0x92
   0213 8A                  756 	.db #0x8A
   0214 8A                  757 	.db #0x8A
   0215 86                  758 	.db #0x86
   0216 86                  759 	.db #0x86
   0217 82                  760 	.db #0x82
   0218 82                  761 	.db #0x82
   0219 00                  762 	.db #0x00
   021A 00                  763 	.db #0x00
   021B 7C                  764 	.db #0x7C
   021C 7C                  765 	.db #0x7C
   021D 82                  766 	.db #0x82
   021E 82                  767 	.db #0x82
   021F 82                  768 	.db #0x82
   0220 82                  769 	.db #0x82
   0221 82                  770 	.db #0x82
   0222 82                  771 	.db #0x82
   0223 82                  772 	.db #0x82
   0224 82                  773 	.db #0x82
   0225 82                  774 	.db #0x82
   0226 82                  775 	.db #0x82
   0227 7C                  776 	.db #0x7C
   0228 7C                  777 	.db #0x7C
   0229 00                  778 	.db #0x00
   022A 00                  779 	.db #0x00
   022B FC                  780 	.db #0xFC
   022C FC                  781 	.db #0xFC
   022D 82                  782 	.db #0x82
   022E 82                  783 	.db #0x82
   022F 82                  784 	.db #0x82
   0230 82                  785 	.db #0x82
   0231 82                  786 	.db #0x82
   0232 82                  787 	.db #0x82
   0233 FC                  788 	.db #0xFC
   0234 FC                  789 	.db #0xFC
   0235 80                  790 	.db #0x80
   0236 80                  791 	.db #0x80
   0237 80                  792 	.db #0x80
   0238 80                  793 	.db #0x80
   0239 00                  794 	.db #0x00
   023A 00                  795 	.db #0x00
   023B 7C                  796 	.db #0x7C
   023C 7C                  797 	.db #0x7C
   023D 82                  798 	.db #0x82
   023E 82                  799 	.db #0x82
   023F 82                  800 	.db #0x82
   0240 82                  801 	.db #0x82
   0241 92                  802 	.db #0x92
   0242 92                  803 	.db #0x92
   0243 8A                  804 	.db #0x8A
   0244 8A                  805 	.db #0x8A
   0245 84                  806 	.db #0x84
   0246 84                  807 	.db #0x84
   0247 7A                  808 	.db #0x7A
   0248 7A                  809 	.db #0x7A
   0249 00                  810 	.db #0x00
   024A 00                  811 	.db #0x00
   024B FC                  812 	.db #0xFC
   024C FC                  813 	.db #0xFC
   024D 82                  814 	.db #0x82
   024E 82                  815 	.db #0x82
   024F 82                  816 	.db #0x82
   0250 82                  817 	.db #0x82
   0251 84                  818 	.db #0x84
   0252 84                  819 	.db #0x84
   0253 F8                  820 	.db #0xF8
   0254 F8                  821 	.db #0xF8
   0255 84                  822 	.db #0x84
   0256 84                  823 	.db #0x84
   0257 82                  824 	.db #0x82
   0258 82                  825 	.db #0x82
   0259 00                  826 	.db #0x00
   025A 00                  827 	.db #0x00
   025B 7C                  828 	.db #0x7C
   025C 7C                  829 	.db #0x7C
   025D 80                  830 	.db #0x80
   025E 80                  831 	.db #0x80
   025F 80                  832 	.db #0x80
   0260 80                  833 	.db #0x80
   0261 7C                  834 	.db #0x7C
   0262 7C                  835 	.db #0x7C
   0263 02                  836 	.db #0x02
   0264 02                  837 	.db #0x02
   0265 02                  838 	.db #0x02
   0266 02                  839 	.db #0x02
   0267 FC                  840 	.db #0xFC
   0268 FC                  841 	.db #0xFC
   0269 00                  842 	.db #0x00
   026A 00                  843 	.db #0x00
   026B FE                  844 	.db #0xFE
   026C FE                  845 	.db #0xFE
   026D 10                  846 	.db #0x10
   026E 10                  847 	.db #0x10
   026F 10                  848 	.db #0x10
   0270 10                  849 	.db #0x10
   0271 10                  850 	.db #0x10
   0272 10                  851 	.db #0x10
   0273 10                  852 	.db #0x10
   0274 10                  853 	.db #0x10
   0275 10                  854 	.db #0x10
   0276 10                  855 	.db #0x10
   0277 10                  856 	.db #0x10
   0278 10                  857 	.db #0x10
   0279 00                  858 	.db #0x00
   027A 00                  859 	.db #0x00
   027B 82                  860 	.db #0x82
   027C 82                  861 	.db #0x82
   027D 82                  862 	.db #0x82
   027E 82                  863 	.db #0x82
   027F 82                  864 	.db #0x82
   0280 82                  865 	.db #0x82
   0281 82                  866 	.db #0x82
   0282 82                  867 	.db #0x82
   0283 82                  868 	.db #0x82
   0284 82                  869 	.db #0x82
   0285 82                  870 	.db #0x82
   0286 82                  871 	.db #0x82
   0287 7C                  872 	.db #0x7C
   0288 7C                  873 	.db #0x7C
   0289 00                  874 	.db #0x00
   028A 00                  875 	.db #0x00
   028B 82                  876 	.db #0x82
   028C 82                  877 	.db #0x82
   028D 82                  878 	.db #0x82
   028E 82                  879 	.db #0x82
   028F 82                  880 	.db #0x82
   0290 82                  881 	.db #0x82
   0291 82                  882 	.db #0x82
   0292 82                  883 	.db #0x82
   0293 44                  884 	.db #0x44
   0294 44                  885 	.db #0x44
   0295 28                  886 	.db #0x28
   0296 28                  887 	.db #0x28
   0297 10                  888 	.db #0x10
   0298 10                  889 	.db #0x10
   0299 00                  890 	.db #0x00
   029A 00                  891 	.db #0x00
   029B 82                  892 	.db #0x82
   029C 82                  893 	.db #0x82
   029D 82                  894 	.db #0x82
   029E 82                  895 	.db #0x82
   029F 82                  896 	.db #0x82
   02A0 82                  897 	.db #0x82
   02A1 92                  898 	.db #0x92
   02A2 92                  899 	.db #0x92
   02A3 AA                  900 	.db #0xAA
   02A4 AA                  901 	.db #0xAA
   02A5 C6                  902 	.db #0xC6
   02A6 C6                  903 	.db #0xC6
   02A7 82                  904 	.db #0x82
   02A8 82                  905 	.db #0x82
   02A9 00                  906 	.db #0x00
   02AA 00                  907 	.db #0x00
   02AB 82                  908 	.db #0x82
   02AC 82                  909 	.db #0x82
   02AD 44                  910 	.db #0x44
   02AE 44                  911 	.db #0x44
   02AF 28                  912 	.db #0x28
   02B0 28                  913 	.db #0x28
   02B1 10                  914 	.db #0x10
   02B2 10                  915 	.db #0x10
   02B3 28                  916 	.db #0x28
   02B4 28                  917 	.db #0x28
   02B5 44                  918 	.db #0x44
   02B6 44                  919 	.db #0x44
   02B7 82                  920 	.db #0x82
   02B8 82                  921 	.db #0x82
   02B9 00                  922 	.db #0x00
   02BA 00                  923 	.db #0x00
   02BB 82                  924 	.db #0x82
   02BC 82                  925 	.db #0x82
   02BD 44                  926 	.db #0x44
   02BE 44                  927 	.db #0x44
   02BF 28                  928 	.db #0x28
   02C0 28                  929 	.db #0x28
   02C1 10                  930 	.db #0x10
   02C2 10                  931 	.db #0x10
   02C3 10                  932 	.db #0x10
   02C4 10                  933 	.db #0x10
   02C5 10                  934 	.db #0x10
   02C6 10                  935 	.db #0x10
   02C7 10                  936 	.db #0x10
   02C8 10                  937 	.db #0x10
   02C9 00                  938 	.db #0x00
   02CA 00                  939 	.db #0x00
   02CB FE                  940 	.db #0xFE
   02CC FE                  941 	.db #0xFE
   02CD 04                  942 	.db #0x04
   02CE 04                  943 	.db #0x04
   02CF 08                  944 	.db #0x08
   02D0 08                  945 	.db #0x08
   02D1 10                  946 	.db #0x10
   02D2 10                  947 	.db #0x10
   02D3 20                  948 	.db #0x20
   02D4 20                  949 	.db #0x20
   02D5 40                  950 	.db #0x40
   02D6 40                  951 	.db #0x40
   02D7 FE                  952 	.db #0xFE
   02D8 FE                  953 	.db #0xFE
   02D9 00                  954 	.db #0x00
   02DA 00                  955 	.db #0x00
   02DB 1C                  956 	.db #0x1C
   02DC 1C                  957 	.db #0x1C
   02DD 10                  958 	.db #0x10
   02DE 10                  959 	.db #0x10
   02DF 10                  960 	.db #0x10
   02E0 10                  961 	.db #0x10
   02E1 10                  962 	.db #0x10
   02E2 10                  963 	.db #0x10
   02E3 10                  964 	.db #0x10
   02E4 10                  965 	.db #0x10
   02E5 10                  966 	.db #0x10
   02E6 10                  967 	.db #0x10
   02E7 1C                  968 	.db #0x1C
   02E8 1C                  969 	.db #0x1C
   02E9 00                  970 	.db #0x00
   02EA 00                  971 	.db #0x00
   02EB 80                  972 	.db #0x80
   02EC 80                  973 	.db #0x80
   02ED 40                  974 	.db #0x40
   02EE 40                  975 	.db #0x40
   02EF 20                  976 	.db #0x20
   02F0 20                  977 	.db #0x20
   02F1 10                  978 	.db #0x10
   02F2 10                  979 	.db #0x10
   02F3 08                  980 	.db #0x08
   02F4 08                  981 	.db #0x08
   02F5 04                  982 	.db #0x04
   02F6 04                  983 	.db #0x04
   02F7 02                  984 	.db #0x02
   02F8 02                  985 	.db #0x02
   02F9 00                  986 	.db #0x00
   02FA 00                  987 	.db #0x00
   02FB 70                  988 	.db #0x70
   02FC 70                  989 	.db #0x70
   02FD 10                  990 	.db #0x10
   02FE 10                  991 	.db #0x10
   02FF 10                  992 	.db #0x10
   0300 10                  993 	.db #0x10
   0301 10                  994 	.db #0x10
   0302 10                  995 	.db #0x10
   0303 10                  996 	.db #0x10
   0304 10                  997 	.db #0x10
   0305 10                  998 	.db #0x10
   0306 10                  999 	.db #0x10
   0307 70                 1000 	.db #0x70
   0308 70                 1001 	.db #0x70
   0309 00                 1002 	.db #0x00
   030A 00                 1003 	.db #0x00
   030B 10                 1004 	.db #0x10
   030C 10                 1005 	.db #0x10
   030D 28                 1006 	.db #0x28
   030E 28                 1007 	.db #0x28
   030F 44                 1008 	.db #0x44
   0310 44                 1009 	.db #0x44
   0311 82                 1010 	.db #0x82
   0312 82                 1011 	.db #0x82
   0313 00                 1012 	.db #0x00
   0314 00                 1013 	.db #0x00
   0315 00                 1014 	.db #0x00
   0316 00                 1015 	.db #0x00
   0317 00                 1016 	.db #0x00
   0318 00                 1017 	.db #0x00
   0319 00                 1018 	.db #0x00
   031A 00                 1019 	.db #0x00
   031B 00                 1020 	.db #0x00
   031C 00                 1021 	.db #0x00
   031D 00                 1022 	.db #0x00
   031E 00                 1023 	.db #0x00
   031F 00                 1024 	.db #0x00
   0320 00                 1025 	.db #0x00
   0321 00                 1026 	.db #0x00
   0322 00                 1027 	.db #0x00
   0323 00                 1028 	.db #0x00
   0324 00                 1029 	.db #0x00
   0325 00                 1030 	.db #0x00
   0326 00                 1031 	.db #0x00
   0327 FE                 1032 	.db #0xFE
   0328 FE                 1033 	.db #0xFE
   0329 00                 1034 	.db #0x00
   032A 00                 1035 	.db #0x00
   032B                    1036 _blank_screen:
   032B 30                 1037 	.db #0x30
   032C 30                 1038 	.db #0x30
   032D 30                 1039 	.db #0x30
   032E 30                 1040 	.db #0x30
   032F 30                 1041 	.db #0x30
   0330 30                 1042 	.db #0x30
   0331 30                 1043 	.db #0x30
   0332 30                 1044 	.db #0x30
   0333 30                 1045 	.db #0x30
   0334 30                 1046 	.db #0x30
   0335 30                 1047 	.db #0x30
   0336 30                 1048 	.db #0x30
   0337 30                 1049 	.db #0x30
   0338 30                 1050 	.db #0x30
   0339 30                 1051 	.db #0x30
   033A 30                 1052 	.db #0x30
   033B 30                 1053 	.db #0x30
   033C 30                 1054 	.db #0x30
   033D 30                 1055 	.db #0x30
   033E 30                 1056 	.db #0x30
   033F 30                 1057 	.db #0x30
   0340 30                 1058 	.db #0x30
   0341 30                 1059 	.db #0x30
   0342 30                 1060 	.db #0x30
   0343 30                 1061 	.db #0x30
   0344 30                 1062 	.db #0x30
   0345 30                 1063 	.db #0x30
   0346 30                 1064 	.db #0x30
   0347 30                 1065 	.db #0x30
   0348 30                 1066 	.db #0x30
   0349 30                 1067 	.db #0x30
   034A 30                 1068 	.db #0x30
   034B 30                 1069 	.db #0x30
   034C 30                 1070 	.db #0x30
   034D 30                 1071 	.db #0x30
   034E 30                 1072 	.db #0x30
   034F 30                 1073 	.db #0x30
   0350 30                 1074 	.db #0x30
   0351 30                 1075 	.db #0x30
   0352 30                 1076 	.db #0x30
   0353 30                 1077 	.db #0x30
   0354 30                 1078 	.db #0x30
   0355 30                 1079 	.db #0x30
   0356 30                 1080 	.db #0x30
   0357 30                 1081 	.db #0x30
   0358 30                 1082 	.db #0x30
   0359 30                 1083 	.db #0x30
   035A 30                 1084 	.db #0x30
   035B 30                 1085 	.db #0x30
   035C 30                 1086 	.db #0x30
   035D 30                 1087 	.db #0x30
   035E 30                 1088 	.db #0x30
   035F 30                 1089 	.db #0x30
   0360 30                 1090 	.db #0x30
   0361 30                 1091 	.db #0x30
   0362 30                 1092 	.db #0x30
   0363 30                 1093 	.db #0x30
   0364 30                 1094 	.db #0x30
   0365 30                 1095 	.db #0x30
   0366 30                 1096 	.db #0x30
   0367 30                 1097 	.db #0x30
   0368 30                 1098 	.db #0x30
   0369 30                 1099 	.db #0x30
   036A 30                 1100 	.db #0x30
   036B 30                 1101 	.db #0x30
   036C 30                 1102 	.db #0x30
   036D 30                 1103 	.db #0x30
   036E 30                 1104 	.db #0x30
   036F 30                 1105 	.db #0x30
   0370 30                 1106 	.db #0x30
   0371 30                 1107 	.db #0x30
   0372 30                 1108 	.db #0x30
   0373 30                 1109 	.db #0x30
   0374 30                 1110 	.db #0x30
   0375 30                 1111 	.db #0x30
   0376 30                 1112 	.db #0x30
   0377 30                 1113 	.db #0x30
   0378 30                 1114 	.db #0x30
   0379 30                 1115 	.db #0x30
   037A 30                 1116 	.db #0x30
   037B 30                 1117 	.db #0x30
   037C 30                 1118 	.db #0x30
   037D 30                 1119 	.db #0x30
   037E 30                 1120 	.db #0x30
   037F 30                 1121 	.db #0x30
   0380 30                 1122 	.db #0x30
   0381 30                 1123 	.db #0x30
   0382 30                 1124 	.db #0x30
   0383 30                 1125 	.db #0x30
   0384 30                 1126 	.db #0x30
   0385 30                 1127 	.db #0x30
   0386 30                 1128 	.db #0x30
   0387 30                 1129 	.db #0x30
   0388 30                 1130 	.db #0x30
   0389 30                 1131 	.db #0x30
   038A 30                 1132 	.db #0x30
   038B 30                 1133 	.db #0x30
   038C 30                 1134 	.db #0x30
   038D 30                 1135 	.db #0x30
   038E 30                 1136 	.db #0x30
   038F 30                 1137 	.db #0x30
   0390 30                 1138 	.db #0x30
   0391 30                 1139 	.db #0x30
   0392 30                 1140 	.db #0x30
   0393 30                 1141 	.db #0x30
   0394 30                 1142 	.db #0x30
   0395 30                 1143 	.db #0x30
   0396 30                 1144 	.db #0x30
   0397 30                 1145 	.db #0x30
   0398 30                 1146 	.db #0x30
   0399 30                 1147 	.db #0x30
   039A 30                 1148 	.db #0x30
   039B 30                 1149 	.db #0x30
   039C 30                 1150 	.db #0x30
   039D 30                 1151 	.db #0x30
   039E 30                 1152 	.db #0x30
   039F 30                 1153 	.db #0x30
   03A0 30                 1154 	.db #0x30
   03A1 30                 1155 	.db #0x30
   03A2 30                 1156 	.db #0x30
   03A3 30                 1157 	.db #0x30
   03A4 30                 1158 	.db #0x30
   03A5 30                 1159 	.db #0x30
   03A6 30                 1160 	.db #0x30
   03A7 30                 1161 	.db #0x30
   03A8 30                 1162 	.db #0x30
   03A9 30                 1163 	.db #0x30
   03AA 30                 1164 	.db #0x30
   03AB 30                 1165 	.db #0x30
   03AC 30                 1166 	.db #0x30
   03AD 30                 1167 	.db #0x30
   03AE 30                 1168 	.db #0x30
   03AF 30                 1169 	.db #0x30
   03B0 30                 1170 	.db #0x30
   03B1 30                 1171 	.db #0x30
   03B2 30                 1172 	.db #0x30
   03B3 30                 1173 	.db #0x30
   03B4 30                 1174 	.db #0x30
   03B5 30                 1175 	.db #0x30
   03B6 30                 1176 	.db #0x30
   03B7 30                 1177 	.db #0x30
   03B8 30                 1178 	.db #0x30
   03B9 30                 1179 	.db #0x30
   03BA 30                 1180 	.db #0x30
   03BB 30                 1181 	.db #0x30
   03BC 30                 1182 	.db #0x30
   03BD 30                 1183 	.db #0x30
   03BE 30                 1184 	.db #0x30
   03BF 30                 1185 	.db #0x30
   03C0 30                 1186 	.db #0x30
   03C1 30                 1187 	.db #0x30
   03C2 30                 1188 	.db #0x30
   03C3 30                 1189 	.db #0x30
   03C4 30                 1190 	.db #0x30
   03C5 30                 1191 	.db #0x30
   03C6 30                 1192 	.db #0x30
   03C7 30                 1193 	.db #0x30
   03C8 30                 1194 	.db #0x30
   03C9 30                 1195 	.db #0x30
   03CA 30                 1196 	.db #0x30
   03CB 30                 1197 	.db #0x30
   03CC 30                 1198 	.db #0x30
   03CD 30                 1199 	.db #0x30
   03CE 30                 1200 	.db #0x30
   03CF 30                 1201 	.db #0x30
   03D0 30                 1202 	.db #0x30
   03D1 30                 1203 	.db #0x30
   03D2 30                 1204 	.db #0x30
   03D3 30                 1205 	.db #0x30
   03D4 30                 1206 	.db #0x30
   03D5 30                 1207 	.db #0x30
   03D6 30                 1208 	.db #0x30
   03D7 30                 1209 	.db #0x30
   03D8 30                 1210 	.db #0x30
   03D9 30                 1211 	.db #0x30
   03DA 30                 1212 	.db #0x30
   03DB 30                 1213 	.db #0x30
   03DC 30                 1214 	.db #0x30
   03DD 30                 1215 	.db #0x30
   03DE 30                 1216 	.db #0x30
   03DF 30                 1217 	.db #0x30
   03E0 30                 1218 	.db #0x30
   03E1 30                 1219 	.db #0x30
   03E2 30                 1220 	.db #0x30
   03E3 30                 1221 	.db #0x30
   03E4 30                 1222 	.db #0x30
   03E5 30                 1223 	.db #0x30
   03E6 30                 1224 	.db #0x30
   03E7 30                 1225 	.db #0x30
   03E8 30                 1226 	.db #0x30
   03E9 30                 1227 	.db #0x30
   03EA 30                 1228 	.db #0x30
   03EB 30                 1229 	.db #0x30
   03EC 30                 1230 	.db #0x30
   03ED 30                 1231 	.db #0x30
   03EE 30                 1232 	.db #0x30
   03EF 30                 1233 	.db #0x30
   03F0 30                 1234 	.db #0x30
   03F1 30                 1235 	.db #0x30
   03F2 30                 1236 	.db #0x30
   03F3 30                 1237 	.db #0x30
   03F4 30                 1238 	.db #0x30
   03F5 30                 1239 	.db #0x30
   03F6 30                 1240 	.db #0x30
   03F7 30                 1241 	.db #0x30
   03F8 30                 1242 	.db #0x30
   03F9 30                 1243 	.db #0x30
   03FA 30                 1244 	.db #0x30
   03FB 30                 1245 	.db #0x30
   03FC 30                 1246 	.db #0x30
   03FD 30                 1247 	.db #0x30
   03FE 30                 1248 	.db #0x30
   03FF 30                 1249 	.db #0x30
   0400 30                 1250 	.db #0x30
   0401 30                 1251 	.db #0x30
   0402 30                 1252 	.db #0x30
   0403 30                 1253 	.db #0x30
   0404 30                 1254 	.db #0x30
   0405 30                 1255 	.db #0x30
   0406 30                 1256 	.db #0x30
   0407 30                 1257 	.db #0x30
   0408 30                 1258 	.db #0x30
   0409 30                 1259 	.db #0x30
   040A 30                 1260 	.db #0x30
   040B 30                 1261 	.db #0x30
   040C 30                 1262 	.db #0x30
   040D 30                 1263 	.db #0x30
   040E 30                 1264 	.db #0x30
   040F 30                 1265 	.db #0x30
   0410 30                 1266 	.db #0x30
   0411 30                 1267 	.db #0x30
   0412 30                 1268 	.db #0x30
   0413 30                 1269 	.db #0x30
   0414 30                 1270 	.db #0x30
   0415 30                 1271 	.db #0x30
   0416 30                 1272 	.db #0x30
   0417 30                 1273 	.db #0x30
   0418 30                 1274 	.db #0x30
   0419 30                 1275 	.db #0x30
   041A 30                 1276 	.db #0x30
   041B 30                 1277 	.db #0x30
   041C 30                 1278 	.db #0x30
   041D 30                 1279 	.db #0x30
   041E 30                 1280 	.db #0x30
   041F 30                 1281 	.db #0x30
   0420 30                 1282 	.db #0x30
   0421 30                 1283 	.db #0x30
   0422 30                 1284 	.db #0x30
   0423 30                 1285 	.db #0x30
   0424 30                 1286 	.db #0x30
   0425 30                 1287 	.db #0x30
   0426 30                 1288 	.db #0x30
   0427 30                 1289 	.db #0x30
   0428 30                 1290 	.db #0x30
   0429 30                 1291 	.db #0x30
   042A 30                 1292 	.db #0x30
   042B 30                 1293 	.db #0x30
   042C 30                 1294 	.db #0x30
   042D 30                 1295 	.db #0x30
   042E 30                 1296 	.db #0x30
   042F 30                 1297 	.db #0x30
   0430 30                 1298 	.db #0x30
   0431 30                 1299 	.db #0x30
   0432 30                 1300 	.db #0x30
   0433 30                 1301 	.db #0x30
   0434 30                 1302 	.db #0x30
   0435 30                 1303 	.db #0x30
   0436 30                 1304 	.db #0x30
   0437 30                 1305 	.db #0x30
   0438 30                 1306 	.db #0x30
   0439 30                 1307 	.db #0x30
   043A 30                 1308 	.db #0x30
   043B 30                 1309 	.db #0x30
   043C 30                 1310 	.db #0x30
   043D 30                 1311 	.db #0x30
   043E 30                 1312 	.db #0x30
   043F 30                 1313 	.db #0x30
   0440 30                 1314 	.db #0x30
   0441 30                 1315 	.db #0x30
   0442 30                 1316 	.db #0x30
   0443 30                 1317 	.db #0x30
   0444 30                 1318 	.db #0x30
   0445 30                 1319 	.db #0x30
   0446 30                 1320 	.db #0x30
   0447 30                 1321 	.db #0x30
   0448 30                 1322 	.db #0x30
   0449 30                 1323 	.db #0x30
   044A 30                 1324 	.db #0x30
   044B 30                 1325 	.db #0x30
   044C 30                 1326 	.db #0x30
   044D 30                 1327 	.db #0x30
   044E 30                 1328 	.db #0x30
   044F 30                 1329 	.db #0x30
   0450 30                 1330 	.db #0x30
   0451 30                 1331 	.db #0x30
   0452 30                 1332 	.db #0x30
   0453 30                 1333 	.db #0x30
   0454 30                 1334 	.db #0x30
   0455 30                 1335 	.db #0x30
   0456 30                 1336 	.db #0x30
   0457 30                 1337 	.db #0x30
   0458 30                 1338 	.db #0x30
   0459 30                 1339 	.db #0x30
   045A 30                 1340 	.db #0x30
   045B 30                 1341 	.db #0x30
   045C 30                 1342 	.db #0x30
   045D 30                 1343 	.db #0x30
   045E 30                 1344 	.db #0x30
   045F 30                 1345 	.db #0x30
   0460 30                 1346 	.db #0x30
   0461 30                 1347 	.db #0x30
   0462 30                 1348 	.db #0x30
   0463 30                 1349 	.db #0x30
   0464 30                 1350 	.db #0x30
   0465 30                 1351 	.db #0x30
   0466 30                 1352 	.db #0x30
   0467 30                 1353 	.db #0x30
   0468 30                 1354 	.db #0x30
   0469 30                 1355 	.db #0x30
   046A 30                 1356 	.db #0x30
   046B 30                 1357 	.db #0x30
   046C 30                 1358 	.db #0x30
   046D 30                 1359 	.db #0x30
   046E 30                 1360 	.db #0x30
   046F 30                 1361 	.db #0x30
   0470 30                 1362 	.db #0x30
   0471 30                 1363 	.db #0x30
   0472 30                 1364 	.db #0x30
   0473 30                 1365 	.db #0x30
   0474 30                 1366 	.db #0x30
   0475 30                 1367 	.db #0x30
   0476 30                 1368 	.db #0x30
   0477 30                 1369 	.db #0x30
   0478 30                 1370 	.db #0x30
   0479 30                 1371 	.db #0x30
   047A 30                 1372 	.db #0x30
   047B 30                 1373 	.db #0x30
   047C 30                 1374 	.db #0x30
   047D 30                 1375 	.db #0x30
   047E 30                 1376 	.db #0x30
   047F 30                 1377 	.db #0x30
   0480 30                 1378 	.db #0x30
   0481 30                 1379 	.db #0x30
   0482 30                 1380 	.db #0x30
   0483 30                 1381 	.db #0x30
   0484 30                 1382 	.db #0x30
   0485 30                 1383 	.db #0x30
   0486 30                 1384 	.db #0x30
   0487 30                 1385 	.db #0x30
   0488 30                 1386 	.db #0x30
   0489 30                 1387 	.db #0x30
   048A 30                 1388 	.db #0x30
   048B 30                 1389 	.db #0x30
   048C 30                 1390 	.db #0x30
   048D 30                 1391 	.db #0x30
   048E 30                 1392 	.db #0x30
   048F 30                 1393 	.db #0x30
   0490 30                 1394 	.db #0x30
   0491 30                 1395 	.db #0x30
   0492 30                 1396 	.db #0x30
   0493                    1397 _numbers:
   0493 00                 1398 	.db #0x00
   0494 01                 1399 	.db #0x01
   0495 02                 1400 	.db #0x02
   0496 03                 1401 	.db #0x03
   0497 04                 1402 	.db #0x04
   0498 05                 1403 	.db #0x05
   0499 06                 1404 	.db #0x06
   049A 07                 1405 	.db #0x07
   049B 08                 1406 	.db #0x08
   049C 09                 1407 	.db #0x09
   049D                    1408 _paddle_sprite_data:
   049D 00                 1409 	.db #0x00
   049E 00                 1410 	.db #0x00
   049F 00                 1411 	.db #0x00
   04A0 00                 1412 	.db #0x00
   04A1 00                 1413 	.db #0x00
   04A2 00                 1414 	.db #0x00
   04A3 00                 1415 	.db #0x00
   04A4 00                 1416 	.db #0x00
   04A5 00                 1417 	.db #0x00
   04A6 00                 1418 	.db #0x00
   04A7 00                 1419 	.db #0x00
   04A8 00                 1420 	.db #0x00
   04A9 00                 1421 	.db #0x00
   04AA 00                 1422 	.db #0x00
   04AB 00                 1423 	.db #0x00
   04AC 00                 1424 	.db #0x00
   04AD 00                 1425 	.db #0x00
   04AE 00                 1426 	.db #0x00
   04AF 00                 1427 	.db #0x00
   04B0 00                 1428 	.db #0x00
   04B1 00                 1429 	.db #0x00
   04B2 00                 1430 	.db #0x00
   04B3 00                 1431 	.db #0x00
   04B4 00                 1432 	.db #0x00
   04B5 FF                 1433 	.db #0xFF
   04B6 FF                 1434 	.db #0xFF
   04B7 FF                 1435 	.db #0xFF
   04B8 FF                 1436 	.db #0xFF
   04B9 7F                 1437 	.db #0x7F
   04BA 7F                 1438 	.db #0x7F
   04BB 3F                 1439 	.db #0x3F
   04BC 3F                 1440 	.db #0x3F
   04BD 00                 1441 	.db #0x00
   04BE 00                 1442 	.db #0x00
   04BF 00                 1443 	.db #0x00
   04C0 00                 1444 	.db #0x00
   04C1 00                 1445 	.db #0x00
   04C2 00                 1446 	.db #0x00
   04C3 00                 1447 	.db #0x00
   04C4 00                 1448 	.db #0x00
   04C5 00                 1449 	.db #0x00
   04C6 00                 1450 	.db #0x00
   04C7 00                 1451 	.db #0x00
   04C8 00                 1452 	.db #0x00
   04C9 00                 1453 	.db #0x00
   04CA 00                 1454 	.db #0x00
   04CB 00                 1455 	.db #0x00
   04CC 00                 1456 	.db #0x00
   04CD 00                 1457 	.db #0x00
   04CE 00                 1458 	.db #0x00
   04CF 00                 1459 	.db #0x00
   04D0 00                 1460 	.db #0x00
   04D1 00                 1461 	.db #0x00
   04D2 00                 1462 	.db #0x00
   04D3 00                 1463 	.db #0x00
   04D4 00                 1464 	.db #0x00
   04D5 FF                 1465 	.db #0xFF
   04D6 FF                 1466 	.db #0xFF
   04D7 FF                 1467 	.db #0xFF
   04D8 FF                 1468 	.db #0xFF
   04D9 FE                 1469 	.db #0xFE
   04DA FE                 1470 	.db #0xFE
   04DB FC                 1471 	.db #0xFC
   04DC FC                 1472 	.db #0xFC
   04DD                    1473 _INITIAL_LIVES:
   04DD 03 00              1474 	.dw #0x0003
   04DF                    1475 _framerate:
   04DF 3C 00              1476 	.dw #0x003C
   04E1                    1477 _paddle_sprite_left:
   04E1 00 00              1478 	.dw #0x0000
   04E3                    1479 _paddle_sprite_right:
   04E3 01 00              1480 	.dw #0x0001
   04E5                    1481 _paddle_speed:
   04E5 03 00              1482 	.dw #0x0003
   04E7                    1483 _lives_sprite_begin:
   04E7 03 00              1484 	.dw #0x0003
                           1485 ;	goop.c 53
                           1486 ;	genLabel
                           1487 ;	genFunction
                           1488 ;	---------------------------------
                           1489 ; Function render_background
                           1490 ; ---------------------------------
   04E9                    1491 ___render_background_start:
   04E9                    1492 _render_background:
                           1493 	
                           1494 ;	goop.c 56
                           1495 ;	genIpush
                           1496 ; _saveRegsForCall: sendSetSize: 0 deInUse: 0 bcInUse: 0 deSending: 0
   04E9 21 2B 00           1497 	ld	hl,#_alpha
   04EC E5                 1498 	push	hl
                           1499 ;	genIpush
   04ED 21 00 2F           1500 	ld	hl,#0x2F00
   04F0 E5                 1501 	push	hl
                           1502 ;	genCall
   04F1 CD 00 00           1503 	call	_set_bkg_data
   04F4 E8 04              1504 	lda	sp,4(sp)
                           1505 ;	goop.c 58
                           1506 ;	genIpush
                           1507 ; _saveRegsForCall: sendSetSize: 0 deInUse: 0 bcInUse: 0 deSending: 0
   04F6 21 2B 03           1508 	ld	hl,#_blank_screen
   04F9 E5                 1509 	push	hl
                           1510 ;	genIpush
   04FA 21 14 12           1511 	ld	hl,#0x1214
   04FD E5                 1512 	push	hl
                           1513 ;	genIpush
   04FE 21 00 00           1514 	ld	hl,#0x0000
   0501 E5                 1515 	push	hl
                           1516 ;	genCall
   0502 CD 00 00           1517 	call	_set_bkg_tiles
   0505 E8 06              1518 	lda	sp,6(sp)
                           1519 ;	genLabel
   0507                    1520 00101$:
                           1521 ;	genEndFunction
                           1522 	
   0507 C9                 1523 	ret
   0508                    1524 ___render_background_end:
                           1525 ;	goop.c 61
                           1526 ;	genLabel
                           1527 ;	genFunction
                           1528 ;	---------------------------------
                           1529 ; Function set_paddle
                           1530 ; ---------------------------------
   0508                    1531 ___set_paddle_start:
   0508                    1532 _set_paddle:
   0508 E8 FE              1533 	lda	sp,-2(sp)
                           1534 ;	goop.c 63
                           1535 ;	genRightShift
                           1536 ;	AOP_HL for _SCREEN_WIDTH
   050A 21 00 00           1537 	ld	hl,#_SCREEN_WIDTH
   050D 4E                 1538 	ld	c,(hl)
   050E 23                 1539 	inc	hl
   050F 46                 1540 	ld	b,(hl)
   0510 CB 28              1541 	sra	b
   0512 CB 19              1542 	rr	c
                           1543 ;	genCast
                           1544 ;	AOP_HL for _paddle_x
   0514 21 0F 00           1545 	ld	hl,#_paddle_x
   0517 71                 1546 	ld	(hl),c
                           1547 ;	goop.c 64
                           1548 ;	genMinus
                           1549 ;	AOP_HL for _SCREEN_HEIGHT
   0518 21 02 00           1550 	ld	hl,#_SCREEN_HEIGHT
   051B 4E                 1551 	ld	c,(hl)
   051C 23                 1552 	inc	hl
   051D 46                 1553 	ld	b,(hl)
   051E 0B                 1554 	dec	bc
                           1555 ;	genCast
                           1556 ;	AOP_HL for _paddle_y
   051F 21 10 00           1557 	ld	hl,#_paddle_y
   0522 71                 1558 	ld	(hl),c
                           1559 ;	goop.c 66
                           1560 ;	genIpush
                           1561 ; _saveRegsForCall: sendSetSize: 0 deInUse: 0 bcInUse: 0 deSending: 0
   0523 21 9D 04           1562 	ld	hl,#_paddle_sprite_data
   0526 E5                 1563 	push	hl
                           1564 ;	genIpush
   0527 21 00 08           1565 	ld	hl,#0x0800
   052A E5                 1566 	push	hl
                           1567 ;	genCall
   052B CD 00 00           1568 	call	_set_sprite_data
   052E E8 04              1569 	lda	sp,4(sp)
                           1570 ;	goop.c 67
                           1571 ;	genAssign
                           1572 ;	AOP_HL for _paddle_sprite_left
   0530 21 E1 04           1573 	ld	hl,#_paddle_sprite_left
   0533 4E                 1574 	ld	c,(hl)
   0534 23                 1575 	inc	hl
   0535 46                 1576 	ld	b,(hl)
                           1577 ;	genCast
                           1578 ; Removed redundent load
                           1579 ;	genIpush
                           1580 ; _saveRegsForCall: sendSetSize: 0 deInUse: 0 bcInUse: 0 deSending: 0
   0536 3E 00              1581 	ld	a,#0x00
   0538 F5                 1582 	push	af
   0539 33                 1583 	inc	sp
                           1584 ;	genIpush
   053A 79                 1585 	ld	a,c
   053B F5                 1586 	push	af
   053C 33                 1587 	inc	sp
                           1588 ;	genCall
   053D CD 00 00           1589 	call	_set_sprite_tile
   0540 E8 02              1590 	lda	sp,2(sp)
                           1591 ;	goop.c 68
                           1592 ;	genAssign
                           1593 ;	AOP_HL for _paddle_sprite_right
   0542 21 E3 04           1594 	ld	hl,#_paddle_sprite_right
   0545 4E                 1595 	ld	c,(hl)
   0546 23                 1596 	inc	hl
   0547 46                 1597 	ld	b,(hl)
                           1598 ;	genCast
                           1599 ; Removed redundent load
                           1600 ;	genIpush
                           1601 ; _saveRegsForCall: sendSetSize: 0 deInUse: 0 bcInUse: 0 deSending: 0
   0548 3E 02              1602 	ld	a,#0x02
   054A F5                 1603 	push	af
   054B 33                 1604 	inc	sp
                           1605 ;	genIpush
   054C 79                 1606 	ld	a,c
   054D F5                 1607 	push	af
   054E 33                 1608 	inc	sp
                           1609 ;	genCall
   054F CD 00 00           1610 	call	_set_sprite_tile
   0552 E8 02              1611 	lda	sp,2(sp)
                           1612 ;	goop.c 69
                           1613 ;	genAssign
                           1614 ;	AOP_HL for _paddle_sprite_left
   0554 21 E1 04           1615 	ld	hl,#_paddle_sprite_left
   0557 4E                 1616 	ld	c,(hl)
   0558 23                 1617 	inc	hl
   0559 46                 1618 	ld	b,(hl)
                           1619 ;	genCast
                           1620 ; Removed redundent load
                           1621 ;	genIpush
                           1622 ; _saveRegsForCall: sendSetSize: 0 deInUse: 0 bcInUse: 0 deSending: 0
                           1623 ;	AOP_HL for _paddle_y
   055A 21 10 00           1624 	ld	hl,#_paddle_y
   055D 7E                 1625 	ld	a,(hl)
   055E F5                 1626 	push	af
   055F 33                 1627 	inc	sp
                           1628 ;	genIpush
                           1629 ;	AOP_HL for _paddle_x
   0560 21 0F 00           1630 	ld	hl,#_paddle_x
   0563 7E                 1631 	ld	a,(hl)
   0564 F5                 1632 	push	af
   0565 33                 1633 	inc	sp
                           1634 ;	genIpush
   0566 79                 1635 	ld	a,c
   0567 F5                 1636 	push	af
   0568 33                 1637 	inc	sp
                           1638 ;	genCall
   0569 CD 00 00           1639 	call	_move_sprite
   056C E8 03              1640 	lda	sp,3(sp)
                           1641 ;	goop.c 70
                           1642 ;	genPlus
                           1643 ;	AOP_HL for _paddle_x
                           1644 ;	genPlusIncr
                           1645 ;	Can't optimise plus by inc, falling back to the normal way
   056E 21 0F 00           1646 	ld	hl,#_paddle_x
   0571 7E                 1647 	ld	a,(hl)
   0572 C6 08              1648 	add	a,#0x08
   0574 4F                 1649 	ld	c,a
                           1650 ;	genAssign
                           1651 ;	AOP_HL for _paddle_sprite_right
                           1652 ;	AOP_STK for _set_paddle_sloc0_1_0
   0575 21 E3 04           1653 	ld	hl,#_paddle_sprite_right
   0578 2A                 1654 	ld	a,(hl+)
   0579 5E                 1655 	ld	e,(hl)
   057A F8 00              1656 	lda	hl,0(sp)
   057C 22                 1657 	ld	(hl+),a
   057D 73                 1658 	ld	(hl),e
                           1659 ;	genCast
                           1660 ;	AOP_STK for _set_paddle_sloc0_1_0
   057E 2B                 1661 	dec	hl
   057F 46                 1662 	ld	b,(hl)
                           1663 ;	genIpush
                           1664 ; _saveRegsForCall: sendSetSize: 0 deInUse: 0 bcInUse: 0 deSending: 0
                           1665 ;	AOP_HL for _paddle_y
   0580 21 10 00           1666 	ld	hl,#_paddle_y
   0583 7E                 1667 	ld	a,(hl)
   0584 F5                 1668 	push	af
   0585 33                 1669 	inc	sp
                           1670 ;	genIpush
   0586 79                 1671 	ld	a,c
   0587 F5                 1672 	push	af
   0588 33                 1673 	inc	sp
                           1674 ;	genIpush
   0589 78                 1675 	ld	a,b
   058A F5                 1676 	push	af
   058B 33                 1677 	inc	sp
                           1678 ;	genCall
   058C CD 00 00           1679 	call	_move_sprite
   058F E8 03              1680 	lda	sp,3(sp)
                           1681 ;	genLabel
   0591                    1682 00101$:
                           1683 ;	genEndFunction
   0591 E8 02              1684 	lda	sp,2(sp)
   0593 C9                 1685 	ret
   0594                    1686 ___set_paddle_end:
                           1687 ;	goop.c 73
                           1688 ;	genLabel
                           1689 ;	genFunction
                           1690 ;	---------------------------------
                           1691 ; Function input
                           1692 ; ---------------------------------
   0594                    1693 ___input_start:
   0594                    1694 _input:
   0594 E8 FE              1695 	lda	sp,-2(sp)
                           1696 ;	goop.c 76
                           1697 ;	genAnd
                           1698 ;	AOP_HL for _key
   0596 21 06 00           1699 	ld	hl,#_key
   0599 7E                 1700 	ld	a,(hl)
   059A E6 0F              1701 	and	a,#0x0F
   059C 20 03              1702 	jr	nz,00122$
   059E C3 5F 06           1703 	jp	00113$
   05A1                    1704 00122$:
                           1705 ;	goop.c 77
                           1706 ;	genAnd
                           1707 ;	AOP_HL for _key
   05A1 21 06 00           1708 	ld	hl,#_key
   05A4 7E                 1709 	ld	a,(hl)
   05A5 E6 02              1710 	and	a,#0x02
   05A7 20 03              1711 	jr	nz,00123$
   05A9 C3 E3 05           1712 	jp	00102$
   05AC                    1713 00123$:
                           1714 ;	genCmpGt
                           1715 ;	AOP_HL for _paddle_x
   05AC 3E 00              1716 	ld	a,#0x00
   05AE 21 0F 00           1717 	ld	hl,#_paddle_x
   05B1 96                 1718 	sub	a,(hl)
   05B2 D2 E3 05           1719 	jp	nc,00102$
                           1720 ;	goop.c 78
                           1721 ;	genAssign
                           1722 ;	AOP_HL for _paddle_speed
   05B5 21 E5 04           1723 	ld	hl,#_paddle_speed
   05B8 4E                 1724 	ld	c,(hl)
   05B9 23                 1725 	inc	hl
   05BA 46                 1726 	ld	b,(hl)
                           1727 ;	genMult
   05BB 59                 1728 	ld	e,c
   05BC 50                 1729 	ld	d,b
   05BD 6B                 1730 	ld	l,e
   05BE 62                 1731 	ld	h,d
   05BF 29                 1732 	add	hl,hl
   05C0 19                 1733 	add	hl,de
   05C1 29                 1734 	add	hl,hl
   05C2 19                 1735 	add	hl,de
   05C3 29                 1736 	add	hl,hl
   05C4 19                 1737 	add	hl,de
   05C5 29                 1738 	add	hl,hl
   05C6 19                 1739 	add	hl,de
   05C7 29                 1740 	add	hl,hl
   05C8 19                 1741 	add	hl,de
   05C9 29                 1742 	add	hl,hl
   05CA 19                 1743 	add	hl,de
   05CB 29                 1744 	add	hl,hl
   05CC 19                 1745 	add	hl,de
   05CD 29                 1746 	add	hl,hl
   05CE 19                 1747 	add	hl,de
   05CF 29                 1748 	add	hl,hl
   05D0 19                 1749 	add	hl,de
   05D1 29                 1750 	add	hl,hl
   05D2 19                 1751 	add	hl,de
   05D3 29                 1752 	add	hl,hl
   05D4 19                 1753 	add	hl,de
   05D5 29                 1754 	add	hl,hl
   05D6 19                 1755 	add	hl,de
   05D7 29                 1756 	add	hl,hl
   05D8 19                 1757 	add	hl,de
   05D9 29                 1758 	add	hl,hl
   05DA 19                 1759 	add	hl,de
   05DB 29                 1760 	add	hl,hl
   05DC 19                 1761 	add	hl,de
   05DD 4D                 1762 	ld	c,l
   05DE 44                 1763 	ld	b,h
                           1764 ;	genCast
                           1765 ;	AOP_HL for _paddle_vel_x
   05DF 21 11 00           1766 	ld	hl,#_paddle_vel_x
   05E2 71                 1767 	ld	(hl),c
                           1768 ;	genLabel
   05E3                    1769 00102$:
                           1770 ;	goop.c 80
                           1771 ;	genAnd
                           1772 ;	AOP_HL for _key
   05E3 21 06 00           1773 	ld	hl,#_key
   05E6 7E                 1774 	ld	a,(hl)
   05E7 E6 01              1775 	and	a,#0x01
   05E9 20 03              1776 	jr	nz,00124$
   05EB C3 11 06           1777 	jp	00105$
   05EE                    1778 00124$:
                           1779 ;	genCast
                           1780 ;	AOP_HL for _paddle_x
                           1781 ;	AOP_STK for _input_sloc0_1_0
   05EE 21 0F 00           1782 	ld	hl,#_paddle_x
   05F1 7E                 1783 	ld	a,(hl)
   05F2 F8 00              1784 	lda	hl,0(sp)
   05F4 22                 1785 	ld	(hl+),a
   05F5 36 00              1786 	ld	(hl),#0x00
                           1787 ;	genAssign
                           1788 ;	AOP_HL for _SCREEN_WIDTH
   05F7 21 00 00           1789 	ld	hl,#_SCREEN_WIDTH
   05FA 4E                 1790 	ld	c,(hl)
   05FB 23                 1791 	inc	hl
   05FC 46                 1792 	ld	b,(hl)
                           1793 ;	genCmpLt
                           1794 ;	AOP_STK for _input_sloc0_1_0
   05FD F8 00              1795 	lda	hl,0(sp)
   05FF 7E                 1796 	ld	a,(hl)
   0600 91                 1797 	sub	a,c
   0601 23                 1798 	inc	hl
   0602 7E                 1799 	ld	a,(hl)
   0603 98                 1800 	sbc	a,b
   0604 D2 11 06           1801 	jp	nc,00105$
                           1802 ;	goop.c 81
                           1803 ;	genAssign
                           1804 ;	AOP_HL for _paddle_speed
   0607 21 E5 04           1805 	ld	hl,#_paddle_speed
   060A 4E                 1806 	ld	c,(hl)
   060B 23                 1807 	inc	hl
   060C 46                 1808 	ld	b,(hl)
                           1809 ;	genCast
                           1810 ;	AOP_HL for _paddle_vel_x
   060D 21 11 00           1811 	ld	hl,#_paddle_vel_x
   0610 71                 1812 	ld	(hl),c
                           1813 ;	genLabel
   0611                    1814 00105$:
                           1815 ;	goop.c 83
                           1816 ;	genAnd
                           1817 ;	AOP_HL for _key
   0611 21 06 00           1818 	ld	hl,#_key
   0614 7E                 1819 	ld	a,(hl)
   0615 E6 04              1820 	and	a,#0x04
   0617 20 03              1821 	jr	nz,00125$
   0619 C3 4A 06           1822 	jp	00108$
   061C                    1823 00125$:
                           1824 ;	goop.c 84
                           1825 ;	genAssign
                           1826 ;	AOP_HL for _paddle_speed
   061C 21 E5 04           1827 	ld	hl,#_paddle_speed
   061F 4E                 1828 	ld	c,(hl)
   0620 23                 1829 	inc	hl
   0621 46                 1830 	ld	b,(hl)
                           1831 ;	genMult
   0622 59                 1832 	ld	e,c
   0623 50                 1833 	ld	d,b
   0624 6B                 1834 	ld	l,e
   0625 62                 1835 	ld	h,d
   0626 29                 1836 	add	hl,hl
   0627 19                 1837 	add	hl,de
   0628 29                 1838 	add	hl,hl
   0629 19                 1839 	add	hl,de
   062A 29                 1840 	add	hl,hl
   062B 19                 1841 	add	hl,de
   062C 29                 1842 	add	hl,hl
   062D 19                 1843 	add	hl,de
   062E 29                 1844 	add	hl,hl
   062F 19                 1845 	add	hl,de
   0630 29                 1846 	add	hl,hl
   0631 19                 1847 	add	hl,de
   0632 29                 1848 	add	hl,hl
   0633 19                 1849 	add	hl,de
   0634 29                 1850 	add	hl,hl
   0635 19                 1851 	add	hl,de
   0636 29                 1852 	add	hl,hl
   0637 19                 1853 	add	hl,de
   0638 29                 1854 	add	hl,hl
   0639 19                 1855 	add	hl,de
   063A 29                 1856 	add	hl,hl
   063B 19                 1857 	add	hl,de
   063C 29                 1858 	add	hl,hl
   063D 19                 1859 	add	hl,de
   063E 29                 1860 	add	hl,hl
   063F 19                 1861 	add	hl,de
   0640 29                 1862 	add	hl,hl
   0641 19                 1863 	add	hl,de
   0642 29                 1864 	add	hl,hl
   0643 19                 1865 	add	hl,de
   0644 4D                 1866 	ld	c,l
   0645 44                 1867 	ld	b,h
                           1868 ;	genCast
                           1869 ;	AOP_HL for _paddle_vel_y
   0646 21 12 00           1870 	ld	hl,#_paddle_vel_y
   0649 71                 1871 	ld	(hl),c
                           1872 ;	genLabel
   064A                    1873 00108$:
                           1874 ;	goop.c 86
                           1875 ;	genAnd
                           1876 ;	AOP_HL for _key
   064A 21 06 00           1877 	ld	hl,#_key
   064D 7E                 1878 	ld	a,(hl)
   064E E6 08              1879 	and	a,#0x08
   0650 20 03              1880 	jr	nz,00126$
   0652 C3 5F 06           1881 	jp	00113$
   0655                    1882 00126$:
                           1883 ;	goop.c 87
                           1884 ;	genAssign
                           1885 ;	AOP_HL for _paddle_speed
   0655 21 E5 04           1886 	ld	hl,#_paddle_speed
   0658 4E                 1887 	ld	c,(hl)
   0659 23                 1888 	inc	hl
   065A 46                 1889 	ld	b,(hl)
                           1890 ;	genCast
                           1891 ;	AOP_HL for _paddle_vel_y
   065B 21 12 00           1892 	ld	hl,#_paddle_vel_y
   065E 71                 1893 	ld	(hl),c
                           1894 ;	goop.c 94
                           1895 ;	genLabel
   065F                    1896 00113$:
                           1897 ;	genEndFunction
   065F E8 02              1898 	lda	sp,2(sp)
   0661 C9                 1899 	ret
   0662                    1900 ___input_end:
                           1901 ;	goop.c 98
                           1902 ;	genLabel
                           1903 ;	genFunction
                           1904 ;	---------------------------------
                           1905 ; Function physics
                           1906 ; ---------------------------------
   0662                    1907 ___physics_start:
   0662                    1908 _physics:
                           1909 	
                           1910 ;	goop.c 101
                           1911 ;	genAnd
                           1912 ;	AOP_HL for _key
   0662 21 06 00           1913 	ld	hl,#_key
   0665 7E                 1914 	ld	a,(hl)
   0666 E6 03              1915 	and	a,#0x03
   0668 20 03              1916 	jr	nz,00111$
   066A C3 79 06           1917 	jp	00102$
   066D                    1918 00111$:
                           1919 ;	goop.c 102
                           1920 ;	genPlus
                           1921 ;	AOP_HL for _paddle_x
                           1922 ;	AOP_HL for _paddle_vel_x
                           1923 ;	Can't optimise plus by inc, falling back to the normal way
   066D 21 0F 00           1924 	ld	hl,#_paddle_x
   0670 7E                 1925 	ld	a,(hl)
   0671 21 11 00           1926 	ld	hl,#_paddle_vel_x
   0674 86                 1927 	add	a,(hl)
   0675 21 0F 00           1928 	ld	hl,#_paddle_x
   0678 77                 1929 	ld	(hl),a
                           1930 ;	genLabel
   0679                    1931 00102$:
                           1932 ;	goop.c 104
                           1933 ;	genIfx
                           1934 ;	AOP_HL for _vertical_paddle_movement
   0679 21 13 00           1935 	ld	hl,#_vertical_paddle_movement
   067C 2A                 1936 	ld	a,(hl+)
   067D B6                 1937 	or	a,(hl)
   067E CA 98 06           1938 	jp	z,00106$
                           1939 ;	genAnd
                           1940 ;	AOP_HL for _key
   0681 21 06 00           1941 	ld	hl,#_key
   0684 7E                 1942 	ld	a,(hl)
   0685 E6 0C              1943 	and	a,#0x0C
   0687 20 03              1944 	jr	nz,00112$
   0689 C3 98 06           1945 	jp	00106$
   068C                    1946 00112$:
                           1947 ;	goop.c 105
                           1948 ;	genPlus
                           1949 ;	AOP_HL for _paddle_y
                           1950 ;	AOP_HL for _paddle_vel_y
                           1951 ;	Can't optimise plus by inc, falling back to the normal way
   068C 21 10 00           1952 	ld	hl,#_paddle_y
   068F 7E                 1953 	ld	a,(hl)
   0690 21 12 00           1954 	ld	hl,#_paddle_vel_y
   0693 86                 1955 	add	a,(hl)
   0694 21 10 00           1956 	ld	hl,#_paddle_y
   0697 77                 1957 	ld	(hl),a
                           1958 ;	genLabel
   0698                    1959 00106$:
                           1960 ;	genEndFunction
                           1961 	
   0698 C9                 1962 	ret
   0699                    1963 ___physics_end:
                           1964 ;	goop.c 109
                           1965 ;	genLabel
                           1966 ;	genFunction
                           1967 ;	---------------------------------
                           1968 ; Function collide
                           1969 ; ---------------------------------
   0699                    1970 ___collide_start:
   0699                    1971 _collide:
                           1972 	
                           1973 ;	goop.c 110
                           1974 ;	genLabel
   0699                    1975 00101$:
                           1976 ;	genEndFunction
                           1977 	
   0699 C9                 1978 	ret
   069A                    1979 ___collide_end:
                           1980 ;	goop.c 112
                           1981 ;	genLabel
                           1982 ;	genFunction
                           1983 ;	---------------------------------
                           1984 ; Function move
                           1985 ; ---------------------------------
   069A                    1986 ___move_start:
   069A                    1987 _move:
                           1988 	
                           1989 ;	goop.c 114
                           1990 ;	genIpush
                           1991 ; _saveRegsForCall: sendSetSize: 0 deInUse: 0 bcInUse: 0 deSending: 0
                           1992 ;	AOP_HL for _paddle_y
   069A 21 10 00           1993 	ld	hl,#_paddle_y
   069D 7E                 1994 	ld	a,(hl)
   069E F5                 1995 	push	af
   069F 33                 1996 	inc	sp
                           1997 ;	genIpush
                           1998 ;	AOP_HL for _paddle_x
   06A0 21 0F 00           1999 	ld	hl,#_paddle_x
   06A3 7E                 2000 	ld	a,(hl)
   06A4 F5                 2001 	push	af
   06A5 33                 2002 	inc	sp
                           2003 ;	genIpush
   06A6 3E 00              2004 	ld	a,#0x00
   06A8 F5                 2005 	push	af
   06A9 33                 2006 	inc	sp
                           2007 ;	genCall
   06AA CD 00 00           2008 	call	_move_sprite
   06AD E8 03              2009 	lda	sp,3(sp)
                           2010 ;	goop.c 115
                           2011 ;	genPlus
                           2012 ;	AOP_HL for _paddle_x
                           2013 ;	genPlusIncr
                           2014 ;	Can't optimise plus by inc, falling back to the normal way
   06AF 21 0F 00           2015 	ld	hl,#_paddle_x
   06B2 7E                 2016 	ld	a,(hl)
   06B3 C6 08              2017 	add	a,#0x08
   06B5 4F                 2018 	ld	c,a
                           2019 ;	genIpush
                           2020 ; _saveRegsForCall: sendSetSize: 0 deInUse: 0 bcInUse: 0 deSending: 0
                           2021 ;	AOP_HL for _paddle_y
   06B6 21 10 00           2022 	ld	hl,#_paddle_y
   06B9 7E                 2023 	ld	a,(hl)
   06BA F5                 2024 	push	af
   06BB 33                 2025 	inc	sp
                           2026 ;	genIpush
   06BC 79                 2027 	ld	a,c
   06BD F5                 2028 	push	af
   06BE 33                 2029 	inc	sp
                           2030 ;	genIpush
   06BF 3E 01              2031 	ld	a,#0x01
   06C1 F5                 2032 	push	af
   06C2 33                 2033 	inc	sp
                           2034 ;	genCall
   06C3 CD 00 00           2035 	call	_move_sprite
   06C6 E8 03              2036 	lda	sp,3(sp)
                           2037 ;	genLabel
   06C8                    2038 00101$:
                           2039 ;	genEndFunction
                           2040 	
   06C8 C9                 2041 	ret
   06C9                    2042 ___move_end:
                           2043 ;	goop.c 118
                           2044 ;	genLabel
                           2045 ;	genFunction
                           2046 ;	---------------------------------
                           2047 ; Function score
                           2048 ; ---------------------------------
   06C9                    2049 ___score_start:
   06C9                    2050 _score:
                           2051 	
                           2052 ;	goop.c 119
                           2053 ;	genLabel
   06C9                    2054 00101$:
                           2055 ;	genEndFunction
                           2056 	
   06C9 C9                 2057 	ret
   06CA                    2058 ___score_end:
                           2059 ;	goop.c 121
                           2060 ;	genLabel
                           2061 ;	genFunction
                           2062 ;	---------------------------------
                           2063 ; Function render_score
                           2064 ; ---------------------------------
   06CA                    2065 ___render_score_start:
   06CA                    2066 _render_score:
   06CA E8 FC              2067 	lda	sp,-4(sp)
                           2068 ;	goop.c 123
                           2069 ;	genAssign
                           2070 ;	AOP_HL for _framerate
   06CC 21 DF 04           2071 	ld	hl,#_framerate
   06CF 4E                 2072 	ld	c,(hl)
   06D0 23                 2073 	inc	hl
   06D1 46                 2074 	ld	b,(hl)
                           2075 ;	genRightShift
   06D2 CB 28              2076 	sra	b
   06D4 CB 19              2077 	rr	c
                           2078 ;	genIpush
                           2079 ; _saveRegsForCall: sendSetSize: 0 deInUse: 0 bcInUse: 0 deSending: 0
   06D6 C5                 2080 	push	bc
                           2081 ;	genIpush
                           2082 ;	AOP_HL for _frames
   06D7 21 17 00           2083 	ld	hl,#_frames
   06DA 2A                 2084 	ld	a,(hl+)
   06DB 66                 2085 	ld	h,(hl)
   06DC 6F                 2086 	ld	l,a
   06DD E5                 2087 	push	hl
                           2088 ;	genCall
   06DE CD 00 00           2089 	call	__modsint_rrx_s
   06E1 42                 2090 	ld	b,d
   06E2 4B                 2091 	ld	c,e
   06E3 E8 04              2092 	lda	sp,4(sp)
                           2093 ;	genCmpEq
                           2094 ; genCmpEq: left 2, right 2, result 0
   06E5 79                 2095 	ld	a,c
   06E6 B0                 2096 	or	a,b
   06E7 C2 C8 07           2097 	jp	nz,00102$
   06EA 18 03              2098 	jr	00109$
   06EC                    2099 00108$:
   06EC C3 C8 07           2100 	jp	00102$
   06EF                    2101 00109$:
                           2102 ;	goop.c 124
                           2103 ;	genIpush
                           2104 ; _saveRegsForCall: sendSetSize: 0 deInUse: 0 bcInUse: 0 deSending: 0
   06EF 21 E8 03           2105 	ld	hl,#0x03E8
   06F2 E5                 2106 	push	hl
                           2107 ;	genIpush
                           2108 ;	AOP_HL for _game_score
   06F3 21 15 00           2109 	ld	hl,#_game_score
   06F6 2A                 2110 	ld	a,(hl+)
   06F7 66                 2111 	ld	h,(hl)
   06F8 6F                 2112 	ld	l,a
   06F9 E5                 2113 	push	hl
                           2114 ;	genCall
   06FA CD 00 00           2115 	call	__divsint_rrx_s
   06FD 42                 2116 	ld	b,d
   06FE 4B                 2117 	ld	c,e
   06FF E8 04              2118 	lda	sp,4(sp)
                           2119 ;	genIpush
                           2120 ; _saveRegsForCall: sendSetSize: 0 deInUse: 0 bcInUse: 0 deSending: 0
   0701 21 0A 00           2121 	ld	hl,#0x000A
   0704 E5                 2122 	push	hl
                           2123 ;	genIpush
   0705 C5                 2124 	push	bc
                           2125 ;	genCall
   0706 CD 00 00           2126 	call	__modsint_rrx_s
   0709 42                 2127 	ld	b,d
   070A 4B                 2128 	ld	c,e
   070B E8 04              2129 	lda	sp,4(sp)
                           2130 ;	genPlus
                           2131 ;	Can't optimise plus by inc, falling back to the normal way
   070D 21 93 04           2132 	ld	hl,#_numbers
   0710 09                 2133 	add	hl,bc
   0711 4D                 2134 	ld	c,l
   0712 44                 2135 	ld	b,h
                           2136 ;	genPointerGet
   0713 0A                 2137 	ld	a,(bc)
                           2138 ;	genAssign (pointer)
   0714 11 1B 00           2139 	ld	de,#_score_array
   0717 12                 2140 	ld	(de),a
                           2141 ;	goop.c 125
                           2142 ;	genPlus
                           2143 ;	genPlusIncr
   0718 01 1C 00           2144 	ld	bc,#_score_array + 1
                           2145 ;	genIpush
                           2146 ; _saveRegsForCall: sendSetSize: 0 deInUse: 0 bcInUse: 1 deSending: 0
   071B C5                 2147 	push	bc
   071C 21 64 00           2148 	ld	hl,#0x0064
   071F E5                 2149 	push	hl
                           2150 ;	genIpush
                           2151 ;	AOP_HL for _game_score
   0720 21 15 00           2152 	ld	hl,#_game_score
   0723 2A                 2153 	ld	a,(hl+)
   0724 66                 2154 	ld	h,(hl)
   0725 6F                 2155 	ld	l,a
   0726 E5                 2156 	push	hl
                           2157 ;	genCall
   0727 CD 00 00           2158 	call	__divsint_rrx_s
                           2159 ;	AOP_STK for _render_score_sloc0_1_0
   072A F8 09              2160 	lda	hl,9(sp)
   072C 72                 2161 	ld	(hl),d
   072D 2B                 2162 	dec	hl
   072E 73                 2163 	ld	(hl),e
   072F E8 04              2164 	lda	sp,4(sp)
   0731 C1                 2165 	pop	bc
                           2166 ;	genIpush
                           2167 ; _saveRegsForCall: sendSetSize: 0 deInUse: 0 bcInUse: 1 deSending: 0
   0732 C5                 2168 	push	bc
   0733 21 0A 00           2169 	ld	hl,#0x000A
   0736 E5                 2170 	push	hl
                           2171 ;	genIpush
                           2172 ;	AOP_STK for _render_score_sloc0_1_0
   0737 F8 06              2173 	lda	hl,6(sp)
   0739 2A                 2174 	ld	a,(hl+)
   073A 66                 2175 	ld	h,(hl)
   073B 6F                 2176 	ld	l,a
   073C E5                 2177 	push	hl
                           2178 ;	genCall
   073D CD 00 00           2179 	call	__modsint_rrx_s
                           2180 ;	AOP_STK for _render_score_sloc0_1_0
   0740 F8 09              2181 	lda	hl,9(sp)
   0742 72                 2182 	ld	(hl),d
   0743 2B                 2183 	dec	hl
   0744 73                 2184 	ld	(hl),e
   0745 E8 04              2185 	lda	sp,4(sp)
   0747 C1                 2186 	pop	bc
                           2187 ;	genPlus
                           2188 ;	AOP_STK for _render_score_sloc0_1_0
                           2189 ;	AOP_STK for _render_score_sloc1_1_0
                           2190 ;	Can't optimise plus by inc, falling back to the normal way
   0748 11 93 04           2191 	ld	de,#_numbers
   074B F8 02              2192 	lda	hl,2(sp)
   074D 2A                 2193 	ld	a,(hl+)
   074E 66                 2194 	ld	h,(hl)
   074F 6F                 2195 	ld	l,a
   0750 19                 2196 	add	hl,de
   0751 7D                 2197 	ld	a,l
   0752 54                 2198 	ld	d,h
   0753 F8 00              2199 	lda	hl,0(sp)
                           2200 ;	genPointerGet
                           2201 ;	AOP_STK for _render_score_sloc1_1_0
   0755 22                 2202 	ld	(hl+),a
   0756 72                 2203 	ld	(hl),d
   0757 5F                 2204 	ld	e,a
   0758 1A                 2205 	ld	a,(de)
                           2206 ;	genAssign (pointer)
   0759 02                 2207 	ld	(bc),a
                           2208 ;	goop.c 126
                           2209 ;	genPlus
                           2210 ;	genPlusIncr
   075A 01 1D 00           2211 	ld	bc,#_score_array + 2
                           2212 ;	genIpush
                           2213 ; _saveRegsForCall: sendSetSize: 0 deInUse: 0 bcInUse: 1 deSending: 0
   075D C5                 2214 	push	bc
   075E 21 0A 00           2215 	ld	hl,#0x000A
   0761 E5                 2216 	push	hl
                           2217 ;	genIpush
                           2218 ;	AOP_HL for _game_score
   0762 21 15 00           2219 	ld	hl,#_game_score
   0765 2A                 2220 	ld	a,(hl+)
   0766 66                 2221 	ld	h,(hl)
   0767 6F                 2222 	ld	l,a
   0768 E5                 2223 	push	hl
                           2224 ;	genCall
   0769 CD 00 00           2225 	call	__divsint_rrx_s
                           2226 ;	AOP_STK for _render_score_sloc1_1_0
   076C F8 07              2227 	lda	hl,7(sp)
   076E 72                 2228 	ld	(hl),d
   076F 2B                 2229 	dec	hl
   0770 73                 2230 	ld	(hl),e
   0771 E8 04              2231 	lda	sp,4(sp)
   0773 C1                 2232 	pop	bc
                           2233 ;	genIpush
                           2234 ; _saveRegsForCall: sendSetSize: 0 deInUse: 0 bcInUse: 1 deSending: 0
   0774 C5                 2235 	push	bc
   0775 21 0A 00           2236 	ld	hl,#0x000A
   0778 E5                 2237 	push	hl
                           2238 ;	genIpush
                           2239 ;	AOP_STK for _render_score_sloc1_1_0
   0779 F8 04              2240 	lda	hl,4(sp)
   077B 2A                 2241 	ld	a,(hl+)
   077C 66                 2242 	ld	h,(hl)
   077D 6F                 2243 	ld	l,a
   077E E5                 2244 	push	hl
                           2245 ;	genCall
   077F CD 00 00           2246 	call	__modsint_rrx_s
                           2247 ;	AOP_STK for _render_score_sloc1_1_0
   0782 F8 07              2248 	lda	hl,7(sp)
   0784 72                 2249 	ld	(hl),d
   0785 2B                 2250 	dec	hl
   0786 73                 2251 	ld	(hl),e
   0787 E8 04              2252 	lda	sp,4(sp)
   0789 C1                 2253 	pop	bc
                           2254 ;	genPlus
                           2255 ;	AOP_STK for _render_score_sloc1_1_0
                           2256 ;	AOP_STK for _render_score_sloc0_1_0
                           2257 ;	Can't optimise plus by inc, falling back to the normal way
   078A 11 93 04           2258 	ld	de,#_numbers
   078D F8 00              2259 	lda	hl,0(sp)
   078F 2A                 2260 	ld	a,(hl+)
   0790 66                 2261 	ld	h,(hl)
   0791 6F                 2262 	ld	l,a
   0792 19                 2263 	add	hl,de
   0793 7D                 2264 	ld	a,l
   0794 54                 2265 	ld	d,h
   0795 F8 02              2266 	lda	hl,2(sp)
                           2267 ;	genPointerGet
                           2268 ;	AOP_STK for _render_score_sloc0_1_0
   0797 22                 2269 	ld	(hl+),a
   0798 72                 2270 	ld	(hl),d
   0799 5F                 2271 	ld	e,a
   079A 1A                 2272 	ld	a,(de)
                           2273 ;	genAssign (pointer)
   079B 02                 2274 	ld	(bc),a
                           2275 ;	goop.c 127
                           2276 ;	genPlus
                           2277 ;	genPlusIncr
   079C 01 1E 00           2278 	ld	bc,#_score_array + 3
                           2279 ;	genIpush
                           2280 ; _saveRegsForCall: sendSetSize: 0 deInUse: 0 bcInUse: 1 deSending: 0
   079F C5                 2281 	push	bc
   07A0 21 0A 00           2282 	ld	hl,#0x000A
   07A3 E5                 2283 	push	hl
                           2284 ;	genIpush
                           2285 ;	AOP_HL for _game_score
   07A4 21 15 00           2286 	ld	hl,#_game_score
   07A7 2A                 2287 	ld	a,(hl+)
   07A8 66                 2288 	ld	h,(hl)
   07A9 6F                 2289 	ld	l,a
   07AA E5                 2290 	push	hl
                           2291 ;	genCall
   07AB CD 00 00           2292 	call	__modsint_rrx_s
                           2293 ;	AOP_STK for _render_score_sloc1_1_0
   07AE F8 07              2294 	lda	hl,7(sp)
   07B0 72                 2295 	ld	(hl),d
   07B1 2B                 2296 	dec	hl
   07B2 73                 2297 	ld	(hl),e
   07B3 E8 04              2298 	lda	sp,4(sp)
   07B5 C1                 2299 	pop	bc
                           2300 ;	genPlus
                           2301 ;	AOP_STK for _render_score_sloc1_1_0
                           2302 ;	AOP_STK for _render_score_sloc0_1_0
                           2303 ;	Can't optimise plus by inc, falling back to the normal way
   07B6 11 93 04           2304 	ld	de,#_numbers
   07B9 F8 00              2305 	lda	hl,0(sp)
   07BB 2A                 2306 	ld	a,(hl+)
   07BC 66                 2307 	ld	h,(hl)
   07BD 6F                 2308 	ld	l,a
   07BE 19                 2309 	add	hl,de
   07BF 7D                 2310 	ld	a,l
   07C0 54                 2311 	ld	d,h
   07C1 F8 02              2312 	lda	hl,2(sp)
                           2313 ;	genPointerGet
                           2314 ;	AOP_STK for _render_score_sloc0_1_0
   07C3 22                 2315 	ld	(hl+),a
   07C4 72                 2316 	ld	(hl),d
   07C5 5F                 2317 	ld	e,a
   07C6 1A                 2318 	ld	a,(de)
                           2319 ;	genAssign (pointer)
   07C7 02                 2320 	ld	(bc),a
                           2321 ;	genLabel
   07C8                    2322 00102$:
                           2323 ;	goop.c 136
                           2324 ;	goop.c 132
                           2325 ;	genIpush
                           2326 ; _saveRegsForCall: sendSetSize: 0 deInUse: 0 bcInUse: 0 deSending: 0
   07C8 21 1B 00           2327 	ld	hl,#_score_array
   07CB E5                 2328 	push	hl
                           2329 ;	genIpush
   07CC 21 04 01           2330 	ld	hl,#0x0104
   07CF E5                 2331 	push	hl
                           2332 ;	genIpush
   07D0 21 10 00           2333 	ld	hl,#0x0010
   07D3 E5                 2334 	push	hl
                           2335 ;	genCall
   07D4 CD 00 00           2336 	call	_set_bkg_tiles
   07D7 E8 06              2337 	lda	sp,6(sp)
                           2338 ;	genLabel
   07D9                    2339 00103$:
                           2340 ;	genEndFunction
   07D9 E8 04              2341 	lda	sp,4(sp)
   07DB C9                 2342 	ret
   07DC                    2343 ___render_score_end:
                           2344 ;	goop.c 140
                           2345 ;	genLabel
                           2346 ;	genFunction
                           2347 ;	---------------------------------
                           2348 ; Function state_game_over
                           2349 ; ---------------------------------
   07DC                    2350 ___state_game_over_start:
   07DC                    2351 _state_game_over:
   07DC E8 FD              2352 	lda	sp,-3(sp)
                           2353 ;	goop.c 141
                           2354 ;	genAssign
                           2355 ;	AOP_HL for _game_over
   07DE 21 0B 00           2356 	ld	hl,#_game_over
   07E1 36 01              2357 	ld	(hl),#0x01
   07E3 23                 2358 	inc	hl
   07E4 36 00              2359 	ld	(hl),#0x00
                           2360 ;	goop.c 142
                           2361 ;	genAssign
   07E6 01 40 FF           2362 	ld	bc,#0xFF40
                           2363 ;	genAssign
                           2364 ;	AOP_STK for _state_game_over_sloc0_1_0
   07E9 F8 01              2365 	lda	hl,1(sp)
   07EB 36 40              2366 	ld	(hl),#0x40
   07ED 23                 2367 	inc	hl
   07EE 36 FF              2368 	ld	(hl),#0xFF
                           2369 ;	genPointerGet
                           2370 ;	AOP_STK for _state_game_over_sloc0_1_0
                           2371 ;	AOP_STK for _state_game_over_sloc1_1_0
   07F0 2B                 2372 	dec	hl
   07F1 5E                 2373 	ld	e,(hl)
   07F2 23                 2374 	inc	hl
   07F3 56                 2375 	ld	d,(hl)
   07F4 1A                 2376 	ld	a,(de)
   07F5 2B                 2377 	dec	hl
   07F6 2B                 2378 	dec	hl
                           2379 ;	genAnd
                           2380 ;	AOP_STK for _state_game_over_sloc1_1_0
   07F7 77                 2381 	ld      (hl),a
   07F8 7F                 2382 	ld      a,a
   07F9 E6 FD              2383 	and	a,#0xFD
                           2384 ;	genAssign (pointer)
   07FB 02                 2385 	ld	(bc),a
                           2386 ;	genLabel
   07FC                    2387 00101$:
                           2388 ;	genEndFunction
   07FC E8 03              2389 	lda	sp,3(sp)
   07FE C9                 2390 	ret
   07FF                    2391 ___state_game_over_end:
                           2392 ;	goop.c 145
                           2393 ;	genLabel
                           2394 ;	genFunction
                           2395 ;	---------------------------------
                           2396 ; Function state_game_init
                           2397 ; ---------------------------------
   07FF                    2398 ___state_game_init_start:
   07FF                    2399 _state_game_init:
   07FF E8 FD              2400 	lda	sp,-3(sp)
                           2401 ;	goop.c 146
                           2402 ;	genAssign
                           2403 ;	AOP_HL for _game_over
   0801 21 0B 00           2404 	ld	hl,#_game_over
   0804 36 00              2405 	ld	(hl),#0x00
   0806 23                 2406 	inc	hl
   0807 36 00              2407 	ld	(hl),#0x00
                           2408 ;	goop.c 147
                           2409 ;	genCall
                           2410 ; _saveRegsForCall: sendSetSize: 0 deInUse: 0 bcInUse: 0 deSending: 0
   0809 CD 08 05           2411 	call	_set_paddle
                           2412 ;	goop.c 148
                           2413 ;	genAssign
   080C 01 40 FF           2414 	ld	bc,#0xFF40
                           2415 ;	genAssign
                           2416 ;	AOP_STK for _state_game_init_sloc0_1_0
   080F F8 01              2417 	lda	hl,1(sp)
   0811 36 40              2418 	ld	(hl),#0x40
   0813 23                 2419 	inc	hl
   0814 36 FF              2420 	ld	(hl),#0xFF
                           2421 ;	genPointerGet
                           2422 ;	AOP_STK for _state_game_init_sloc0_1_0
                           2423 ;	AOP_STK for _state_game_init_sloc1_1_0
   0816 2B                 2424 	dec	hl
   0817 5E                 2425 	ld	e,(hl)
   0818 23                 2426 	inc	hl
   0819 56                 2427 	ld	d,(hl)
   081A 1A                 2428 	ld	a,(de)
   081B 2B                 2429 	dec	hl
   081C 2B                 2430 	dec	hl
                           2431 ;	genOr
                           2432 ;	AOP_STK for _state_game_init_sloc1_1_0
   081D 77                 2433 	ld      (hl),a
   081E 7F                 2434 	ld      a,a
   081F F6 02              2435 	or	a,#0x02
                           2436 ;	genAssign (pointer)
   0821 02                 2437 	ld	(bc),a
                           2438 ;	genLabel
   0822                    2439 00101$:
                           2440 ;	genEndFunction
   0822 E8 03              2441 	lda	sp,3(sp)
   0824 C9                 2442 	ret
   0825                    2443 ___state_game_init_end:
                           2444 ;	goop.c 151
                           2445 ;	genLabel
                           2446 ;	genFunction
                           2447 ;	---------------------------------
                           2448 ; Function run
                           2449 ; ---------------------------------
   0825                    2450 ___run_start:
   0825                    2451 _run:
   0825 E8 FD              2452 	lda	sp,-3(sp)
                           2453 ;	goop.c 154
                           2454 ;	genLabel
   0827                    2455 00109$:
                           2456 ;	goop.c 156
                           2457 ;	genPlus
                           2458 ;	AOP_HL for _frames
                           2459 ;	genPlusIncr
   0827 21 17 00           2460 	ld	hl,#_frames
   082A 34                 2461 	inc	(hl)
   082B 20 02              2462 	jr	nz,00117$
   082D 23                 2463 	inc	hl
   082E 34                 2464 	inc	(hl)
   082F                    2465 00117$:
                           2466 ;	goop.c 157
                           2467 ;	genAssign
                           2468 ;	AOP_HL for _framerate
   082F 21 DF 04           2469 	ld	hl,#_framerate
   0832 4E                 2470 	ld	c,(hl)
   0833 23                 2471 	inc	hl
   0834 46                 2472 	ld	b,(hl)
                           2473 ;	genCmpEq
                           2474 ;	AOP_HL for _frames
                           2475 ; genCmpEq: left 2, right 2, result 0
   0835 21 17 00           2476 	ld	hl,#_frames
   0838 7E                 2477 	ld	a,(hl)
   0839 B9                 2478 	cp	c
   083A C2 45 08           2479 	jp	nz,00118$
   083D 23                 2480 	inc	hl
   083E 7E                 2481 	ld	a,(hl)
   083F B8                 2482 	cp	b
   0840 C2 58 08           2483 	jp	nz,00102$
   0843 18 03              2484 	jr	00119$
   0845                    2485 00118$:
   0845 C3 58 08           2486 	jp	00102$
   0848                    2487 00119$:
                           2488 ;	goop.c 158
                           2489 ;	genAssign
                           2490 ;	AOP_HL for _frames
   0848 21 17 00           2491 	ld	hl,#_frames
   084B 36 00              2492 	ld	(hl),#0x00
   084D 23                 2493 	inc	hl
   084E 36 00              2494 	ld	(hl),#0x00
                           2495 ;	goop.c 159
                           2496 ;	genPlus
                           2497 ;	AOP_HL for _seconds
                           2498 ;	genPlusIncr
   0850 21 19 00           2499 	ld	hl,#_seconds
   0853 34                 2500 	inc	(hl)
   0854 20 02              2501 	jr	nz,00120$
   0856 23                 2502 	inc	hl
   0857 34                 2503 	inc	(hl)
   0858                    2504 00120$:
                           2505 ;	genLabel
   0858                    2506 00102$:
                           2507 ;	goop.c 162
                           2508 ;	genCall
                           2509 ; _saveRegsForCall: sendSetSize: 0 deInUse: 0 bcInUse: 0 deSending: 0
   0858 CD 00 00           2510 	call	_wait_vbl_done
                           2511 ;	goop.c 164
                           2512 ;	genCall
                           2513 ; _saveRegsForCall: sendSetSize: 0 deInUse: 0 bcInUse: 0 deSending: 0
   085B CD 00 00           2514 	call	_joypad
                           2515 ;	AOP_HL for _key
   085E 21 06 00           2516 	ld	hl,#_key
   0861 73                 2517 	ld	(hl),e
                           2518 ;	goop.c 166
                           2519 ;	genCall
                           2520 ; _saveRegsForCall: sendSetSize: 0 deInUse: 0 bcInUse: 0 deSending: 0
   0862 CD 94 05           2521 	call	_input
                           2522 ;	goop.c 167
                           2523 ;	genIfx
                           2524 ;	AOP_HL for _game_over
   0865 21 0B 00           2525 	ld	hl,#_game_over
   0868 2A                 2526 	ld	a,(hl+)
   0869 B6                 2527 	or	a,(hl)
   086A C2 7C 08           2528 	jp	nz,00104$
                           2529 ;	goop.c 168
                           2530 ;	genCall
                           2531 ; _saveRegsForCall: sendSetSize: 0 deInUse: 0 bcInUse: 0 deSending: 0
   086D CD 62 06           2532 	call	_physics
                           2533 ;	goop.c 169
                           2534 ;	genCall
                           2535 ; _saveRegsForCall: sendSetSize: 0 deInUse: 0 bcInUse: 0 deSending: 0
   0870 CD 99 06           2536 	call	_collide
                           2537 ;	goop.c 170
                           2538 ;	genCall
                           2539 ; _saveRegsForCall: sendSetSize: 0 deInUse: 0 bcInUse: 0 deSending: 0
   0873 CD 9A 06           2540 	call	_move
                           2541 ;	goop.c 171
                           2542 ;	genCall
                           2543 ; _saveRegsForCall: sendSetSize: 0 deInUse: 0 bcInUse: 0 deSending: 0
   0876 CD C9 06           2544 	call	_score
                           2545 ;	goop.c 172
                           2546 ;	genCall
                           2547 ; _saveRegsForCall: sendSetSize: 0 deInUse: 0 bcInUse: 0 deSending: 0
   0879 CD CA 06           2548 	call	_render_score
                           2549 ;	genLabel
   087C                    2550 00104$:
                           2551 ;	goop.c 175
                           2552 ;	genAssign
   087C 01 40 FF           2553 	ld	bc,#0xFF40
                           2554 ;	genAssign
                           2555 ;	AOP_STK for _run_sloc0_1_0
   087F F8 01              2556 	lda	hl,1(sp)
   0881 36 40              2557 	ld	(hl),#0x40
   0883 23                 2558 	inc	hl
   0884 36 FF              2559 	ld	(hl),#0xFF
                           2560 ;	genPointerGet
                           2561 ;	AOP_STK for _run_sloc0_1_0
                           2562 ;	AOP_STK for _run_sloc1_1_0
   0886 2B                 2563 	dec	hl
   0887 5E                 2564 	ld	e,(hl)
   0888 23                 2565 	inc	hl
   0889 56                 2566 	ld	d,(hl)
   088A 1A                 2567 	ld	a,(de)
   088B 2B                 2568 	dec	hl
   088C 2B                 2569 	dec	hl
                           2570 ;	genOr
                           2571 ;	AOP_STK for _run_sloc1_1_0
   088D 77                 2572 	ld      (hl),a
                           2573 ; Removed redundent load
   088E F6 01              2574 	or	a,#0x01
                           2575 ;	genAssign (pointer)
   0890 02                 2576 	ld	(bc),a
                           2577 ;	goop.c 176
                           2578 ;	genIfx
                           2579 ;	AOP_HL for _game_over
   0891 21 0B 00           2580 	ld	hl,#_game_over
   0894 2A                 2581 	ld	a,(hl+)
   0895 B6                 2582 	or	a,(hl)
   0896 CA B1 08           2583 	jp	z,00106$
                           2584 ;	goop.c 177
                           2585 ;	genAssign
   0899 01 40 FF           2586 	ld	bc,#0xFF40
                           2587 ;	genAssign
                           2588 ;	AOP_STK for _run_sloc0_1_0
   089C F8 01              2589 	lda	hl,1(sp)
   089E 36 40              2590 	ld	(hl),#0x40
   08A0 23                 2591 	inc	hl
   08A1 36 FF              2592 	ld	(hl),#0xFF
                           2593 ;	genPointerGet
                           2594 ;	AOP_STK for _run_sloc0_1_0
                           2595 ;	AOP_STK for _run_sloc1_1_0
   08A3 2B                 2596 	dec	hl
   08A4 5E                 2597 	ld	e,(hl)
   08A5 23                 2598 	inc	hl
   08A6 56                 2599 	ld	d,(hl)
   08A7 1A                 2600 	ld	a,(de)
   08A8 2B                 2601 	dec	hl
   08A9 2B                 2602 	dec	hl
                           2603 ;	genAnd
                           2604 ;	AOP_STK for _run_sloc1_1_0
   08AA 77                 2605 	ld      (hl),a
                           2606 ; Removed redundent load
   08AB E6 FD              2607 	and	a,#0xFD
                           2608 ;	genAssign (pointer)
   08AD 02                 2609 	ld	(bc),a
                           2610 ;	genGoto
   08AE C3 27 08           2611 	jp	00109$
                           2612 ;	genLabel
   08B1                    2613 00106$:
                           2614 ;	goop.c 179
                           2615 ;	genAssign
   08B1 01 40 FF           2616 	ld	bc,#0xFF40
                           2617 ;	genAssign
                           2618 ;	AOP_STK for _run_sloc0_1_0
   08B4 F8 01              2619 	lda	hl,1(sp)
   08B6 36 40              2620 	ld	(hl),#0x40
   08B8 23                 2621 	inc	hl
   08B9 36 FF              2622 	ld	(hl),#0xFF
                           2623 ;	genPointerGet
                           2624 ;	AOP_STK for _run_sloc0_1_0
                           2625 ;	AOP_STK for _run_sloc1_1_0
   08BB 2B                 2626 	dec	hl
   08BC 5E                 2627 	ld	e,(hl)
   08BD 23                 2628 	inc	hl
   08BE 56                 2629 	ld	d,(hl)
   08BF 1A                 2630 	ld	a,(de)
   08C0 2B                 2631 	dec	hl
   08C1 2B                 2632 	dec	hl
                           2633 ;	genOr
                           2634 ;	AOP_STK for _run_sloc1_1_0
   08C2 77                 2635 	ld      (hl),a
                           2636 ; Removed redundent load
   08C3 F6 02              2637 	or	a,#0x02
                           2638 ;	genAssign (pointer)
   08C5 02                 2639 	ld	(bc),a
                           2640 ;	genGoto
   08C6 C3 27 08           2641 	jp	00109$
                           2642 ;	genLabel
   08C9                    2643 00111$:
                           2644 ;	genEndFunction
   08C9 E8 03              2645 	lda	sp,3(sp)
   08CB C9                 2646 	ret
   08CC                    2647 ___run_end:
                           2648 ;	goop.c 184
                           2649 ;	genLabel
                           2650 ;	genFunction
                           2651 ;	---------------------------------
                           2652 ; Function main
                           2653 ; ---------------------------------
   08CC                    2654 ___main_start:
   08CC                    2655 _main:
   08CC E8 FD              2656 	lda	sp,-3(sp)
                           2657 ;	goop.c 186
                           2658 ;	genAssign
   08CE 01 40 FF           2659 	ld	bc,#0xFF40
                           2660 ;	genAssign
                           2661 ;	AOP_STK for _main_sloc0_1_0
   08D1 F8 01              2662 	lda	hl,1(sp)
   08D3 36 40              2663 	ld	(hl),#0x40
   08D5 23                 2664 	inc	hl
   08D6 36 FF              2665 	ld	(hl),#0xFF
                           2666 ;	genPointerGet
                           2667 ;	AOP_STK for _main_sloc0_1_0
                           2668 ;	AOP_STK for _main_sloc1_1_0
   08D8 2B                 2669 	dec	hl
   08D9 5E                 2670 	ld	e,(hl)
   08DA 23                 2671 	inc	hl
   08DB 56                 2672 	ld	d,(hl)
   08DC 1A                 2673 	ld	a,(de)
   08DD 2B                 2674 	dec	hl
   08DE 2B                 2675 	dec	hl
                           2676 ;	genOr
                           2677 ;	AOP_STK for _main_sloc1_1_0
   08DF 77                 2678 	ld      (hl),a
   08E0 7F                 2679 	ld      a,a
   08E1 F6 04              2680 	or	a,#0x04
                           2681 ;	genAssign (pointer)
   08E3 02                 2682 	ld	(bc),a
                           2683 ;	goop.c 187
                           2684 ;	genCall
                           2685 ; _saveRegsForCall: sendSetSize: 0 deInUse: 0 bcInUse: 0 deSending: 0
   08E4 CD FF 07           2686 	call	_state_game_init
                           2687 ;	goop.c 188
                           2688 ;	genCall
                           2689 ; _saveRegsForCall: sendSetSize: 0 deInUse: 0 bcInUse: 0 deSending: 0
   08E7 CD 25 08           2690 	call	_run
                           2691 ;	genLabel
   08EA                    2692 00101$:
                           2693 ;	genEndFunction
   08EA E8 03              2694 	lda	sp,3(sp)
   08EC C9                 2695 	ret
   08ED                    2696 ___main_end:
                           2697 	.area _CODE
ASxxxx Assembler V01.75  (GameBoy Z80-like CPU), page 1.

Symbol Table

  0 _INITIAL_LIVES                     04DD GR
  1 _SCREEN_HEIGHT                     0002 GR
  1 _SCREEN_WIDTH                      0000 GR
  1 _SPRITE_SIZE                       0004 GR
  0 ___collide_end                     069A R
  0 ___collide_start                   0699 R
  0 ___input_end                       0662 R
  0 ___input_start                     0594 R
  0 ___main_end                        08ED R
  0 ___main_start                      08CC R
  0 ___move_end                        06C9 R
  0 ___move_start                      069A R
  0 ___physics_end                     0699 R
  0 ___physics_start                   0662 R
  0 ___render_background_end           0508 R
  0 ___render_background_start         04E9 R
  0 ___render_score_end                07DC R
  0 ___render_score_start              06CA R
  0 ___restart_game_end                002B R
  0 ___restart_game_start              0000 R
  0 ___run_end                         08CC R
  0 ___run_start                       0825 R
  0 ___score_end                       06CA R
  0 ___score_start                     06C9 R
  0 ___set_paddle_end                  0594 R
  0 ___set_paddle_start                0508 R
  0 ___state_game_init_end             0825 R
  0 ___state_game_init_start           07FF R
  0 ___state_game_over_end             07FF R
  0 ___state_game_over_start           07DC R
    __divsint_rrx_s                    **** GX
    __initrleblock                     **** GX
    __modsint_rrx_s                    **** GX
  0 _alpha                             002B GR
  0 _blank_screen                      032B GR
  0 _collide                           0699 GR
  1 _current_level                     000D GR
  0 _framerate                         04DF GR
  1 _frames                            0017 GR
  1 _game_over                         000B GR
  1 _game_score                        0015 GR
  1 _game_started                      0009 GR
  0 _input                             0594 GR
    _joypad                            **** GX
  1 _key                               0006 GR
  1 _lives                             0007 GR
  0 _lives_sprite_begin                04E7 GR
  0 _main                              08CC GR
  0 _move                              069A GR
    _move_sprite                       **** GX
  0 _numbers                           0493 GR
  0 _paddle_speed                      04E5 GR
  0 _paddle_sprite_data                049D GR
  0 _paddle_sprite_left                04E1 GR
  0 _paddle_sprite_right               04E3 GR
  1 _paddle_vel_x                      0011 GR
  1 _paddle_vel_y                      0012 GR
  1 _paddle_x                          000F GR
  1 _paddle_y                          0010 GR
  0 _physics                           0662 GR
  0 _render_background                 04E9 GR
  0 _render_score                      06CA GR
  0 _restart_game                      0000 GR
  0 _run                               0825 GR
  0 _score                             06C9 GR
  1 _score_array                       001B GR
  1 _seconds                           0019 GR
    _set_bkg_data                      **** GX
    _set_bkg_tiles                     **** GX
  0 _set_paddle                        0508 GR
    _set_sprite_data                   **** GX
    _set_sprite_tile                   **** GX
  0 _state_game_init                   07FF GR
  0 _state_game_over                   07DC R
  1 _vertical_paddle_movement          0013 GR
    _wait_vbl_done                     **** GX

ASxxxx Assembler V01.75  (GameBoy Z80-like CPU), page 2.

Area Table

   0 _CODE                              size  8ED   flags 0
   1 _DATA                              size   1F   flags 0
   2 _OVERLAY                           size    0   flags 0
   3 _ISEG                              size    0   flags 0
   4 _BSEG                              size    0   flags 0
   5 _XSEG                              size    0   flags 0
   6 _GSINIT                            size   66   flags 0
   7 _GSFINAL                           size    0   flags 0
   8 _HOME                              size    0   flags 0
